
C:/Users/Utente/RPiPicoW/Project/build/blink.elf:     file format elf32-littlearm

Sections:
Idx Name          Size      VMA       LMA       File off  Algn
  0 .boot2        00000100  10000000  10000000  00001000  2**0
                  CONTENTS, ALLOC, LOAD, READONLY, CODE
  1 .text         00009870  10000100  10000100  00001100  2**3
                  CONTENTS, ALLOC, LOAD, READONLY, CODE
  2 .rodata       00000cb4  10009970  10009970  0000a970  2**3
                  CONTENTS, ALLOC, LOAD, READONLY, DATA
  3 .big_const    00036fd8  1000a624  1000a624  0000b624  2**0
                  CONTENTS, ALLOC, LOAD, READONLY, DATA
  4 .binary_info  00000024  100415fc  100415fc  000425fc  2**2
                  CONTENTS, ALLOC, LOAD, DATA
  5 .ram_vector_table 000000c0  20000000  20000000  000434b8  2**2
                  CONTENTS
  6 .data         000003f8  200000c0  10041620  000430c0  2**4
                  CONTENTS, ALLOC, LOAD, READONLY, CODE
  7 .uninitialized_data 00000000  200004b8  200004b8  00043578  2**0
                  CONTENTS
  8 .scratch_x    00000000  20040000  20040000  00043578  2**0
                  CONTENTS
  9 .scratch_y    00000000  20041000  20041000  00043578  2**0
                  CONTENTS
 10 .bss          0000a954  200004b8  200004b8  000434b8  2**3
                  ALLOC
 11 .heap         00000800  2000ae0c  2000ae0c  00043578  2**2
                  CONTENTS, READONLY
 12 .stack_dummy  00000800  20041000  20041000  00043d80  2**5
                  CONTENTS, READONLY
 13 .ARM.attributes 00000028  00000000  00000000  00044580  2**0
                  CONTENTS, READONLY
 14 .comment      00000033  00000000  00000000  000445a8  2**0
                  CONTENTS, READONLY
 15 .debug_line   000006a0  00000000  00000000  000445db  2**0
                  CONTENTS, READONLY, DEBUGGING, OCTETS
 16 .debug_line_str 000000c9  00000000  00000000  00044c7b  2**0
                  CONTENTS, READONLY, DEBUGGING, OCTETS
 17 .debug_info   0000035f  00000000  00000000  00044d44  2**0
                  CONTENTS, READONLY, DEBUGGING, OCTETS
 18 .debug_abbrev 000001f9  00000000  00000000  000450a3  2**0
                  CONTENTS, READONLY, DEBUGGING, OCTETS
 19 .debug_aranges 00000080  00000000  00000000  000452a0  2**3
                  CONTENTS, READONLY, DEBUGGING, OCTETS
 20 .debug_str    000003b2  00000000  00000000  00045320  2**0
                  CONTENTS, READONLY, DEBUGGING, OCTETS
 21 .debug_loclists 000004d5  00000000  00000000  000456d2  2**0
                  CONTENTS, READONLY, DEBUGGING, OCTETS
 22 .debug_rnglists 0000003a  00000000  00000000  00045ba7  2**0
                  CONTENTS, READONLY, DEBUGGING, OCTETS
 23 .debug_frame  00000084  00000000  00000000  00045be4  2**2
                  CONTENTS, READONLY, DEBUGGING, OCTETS

C:/Users/Utente/RPiPicoW/Project/build/blink.elf:     file format elf32-littlearm


Disassembly of section .boot2:

10000000 <__boot2_start__>:
10000000:	4b32b500 	.word	0x4b32b500
10000004:	60582021 	.word	0x60582021
10000008:	21026898 	.word	0x21026898
1000000c:	60984388 	.word	0x60984388
10000010:	611860d8 	.word	0x611860d8
10000014:	4b2e6158 	.word	0x4b2e6158
10000018:	60992100 	.word	0x60992100
1000001c:	61592102 	.word	0x61592102
10000020:	22f02101 	.word	0x22f02101
10000024:	492b5099 	.word	0x492b5099
10000028:	21016019 	.word	0x21016019
1000002c:	20356099 	.word	0x20356099
10000030:	f844f000 	.word	0xf844f000
10000034:	42902202 	.word	0x42902202
10000038:	2106d014 	.word	0x2106d014
1000003c:	f0006619 	.word	0xf0006619
10000040:	6e19f834 	.word	0x6e19f834
10000044:	66192101 	.word	0x66192101
10000048:	66182000 	.word	0x66182000
1000004c:	f000661a 	.word	0xf000661a
10000050:	6e19f82c 	.word	0x6e19f82c
10000054:	6e196e19 	.word	0x6e196e19
10000058:	f0002005 	.word	0xf0002005
1000005c:	2101f82f 	.word	0x2101f82f
10000060:	d1f94208 	.word	0xd1f94208
10000064:	60992100 	.word	0x60992100
10000068:	6019491b 	.word	0x6019491b
1000006c:	60592100 	.word	0x60592100
10000070:	481b491a 	.word	0x481b491a
10000074:	21016001 	.word	0x21016001
10000078:	21eb6099 	.word	0x21eb6099
1000007c:	21a06619 	.word	0x21a06619
10000080:	f0006619 	.word	0xf0006619
10000084:	2100f812 	.word	0x2100f812
10000088:	49166099 	.word	0x49166099
1000008c:	60014814 	.word	0x60014814
10000090:	60992101 	.word	0x60992101
10000094:	2800bc01 	.word	0x2800bc01
10000098:	4700d000 	.word	0x4700d000
1000009c:	49134812 	.word	0x49134812
100000a0:	c8036008 	.word	0xc8036008
100000a4:	8808f380 	.word	0x8808f380
100000a8:	b5034708 	.word	0xb5034708
100000ac:	20046a99 	.word	0x20046a99
100000b0:	d0fb4201 	.word	0xd0fb4201
100000b4:	42012001 	.word	0x42012001
100000b8:	bd03d1f8 	.word	0xbd03d1f8
100000bc:	6618b502 	.word	0x6618b502
100000c0:	f7ff6618 	.word	0xf7ff6618
100000c4:	6e18fff2 	.word	0x6e18fff2
100000c8:	bd026e18 	.word	0xbd026e18
100000cc:	40020000 	.word	0x40020000
100000d0:	18000000 	.word	0x18000000
100000d4:	00070000 	.word	0x00070000
100000d8:	005f0300 	.word	0x005f0300
100000dc:	00002221 	.word	0x00002221
100000e0:	180000f4 	.word	0x180000f4
100000e4:	a0002022 	.word	0xa0002022
100000e8:	10000100 	.word	0x10000100
100000ec:	e000ed08 	.word	0xe000ed08
	...
100000fc:	7a4eb274 	.word	0x7a4eb274

Disassembly of section .text:

10000100 <__VECTOR_TABLE>:
10000100:	20042000 	.word	0x20042000
10000104:	100001f7 	.word	0x100001f7
10000108:	100001c3 	.word	0x100001c3
1000010c:	100001c5 	.word	0x100001c5
10000110:	100001c1 	.word	0x100001c1
10000114:	100001c1 	.word	0x100001c1
10000118:	100001c1 	.word	0x100001c1
1000011c:	100001c1 	.word	0x100001c1
10000120:	100001c1 	.word	0x100001c1
10000124:	100001c1 	.word	0x100001c1
10000128:	100001c1 	.word	0x100001c1
1000012c:	100001c7 	.word	0x100001c7
10000130:	100001c1 	.word	0x100001c1
10000134:	100001c1 	.word	0x100001c1
10000138:	100001c9 	.word	0x100001c9
1000013c:	100001cb 	.word	0x100001cb
10000140:	100001cd 	.word	0x100001cd
10000144:	100001cd 	.word	0x100001cd
10000148:	100001cd 	.word	0x100001cd
1000014c:	100001cd 	.word	0x100001cd
10000150:	100001cd 	.word	0x100001cd
10000154:	100001cd 	.word	0x100001cd
10000158:	100001cd 	.word	0x100001cd
1000015c:	100001cd 	.word	0x100001cd
10000160:	100001cd 	.word	0x100001cd
10000164:	100001cd 	.word	0x100001cd
10000168:	100001cd 	.word	0x100001cd
1000016c:	100001cd 	.word	0x100001cd
10000170:	100001cd 	.word	0x100001cd
10000174:	100001cd 	.word	0x100001cd
10000178:	100001cd 	.word	0x100001cd
1000017c:	100001cd 	.word	0x100001cd
10000180:	100001cd 	.word	0x100001cd
10000184:	100001cd 	.word	0x100001cd
10000188:	100001cd 	.word	0x100001cd
1000018c:	100001cd 	.word	0x100001cd
10000190:	100001cd 	.word	0x100001cd
10000194:	100001cd 	.word	0x100001cd
10000198:	100001cd 	.word	0x100001cd
1000019c:	100001cd 	.word	0x100001cd
100001a0:	100001cd 	.word	0x100001cd
100001a4:	100001cd 	.word	0x100001cd
100001a8:	100001cd 	.word	0x100001cd
100001ac:	100001cd 	.word	0x100001cd
100001b0:	100001cd 	.word	0x100001cd
100001b4:	100001cd 	.word	0x100001cd
100001b8:	100001cd 	.word	0x100001cd
100001bc:	100001cd 	.word	0x100001cd

100001c0 <isr_invalid>:
100001c0:	be00      	bkpt	0x0000

100001c2 <isr_nmi>:
100001c2:	be00      	bkpt	0x0000

100001c4 <isr_hardfault>:
100001c4:	be00      	bkpt	0x0000

100001c6 <isr_svcall>:
100001c6:	be00      	bkpt	0x0000

100001c8 <isr_pendsv>:
100001c8:	be00      	bkpt	0x0000

100001ca <isr_systick>:
100001ca:	be00      	bkpt	0x0000

100001cc <__unhandled_user_irq>:
100001cc:	f000 f84b 	bl	10000266 <__get_current_exception>
100001d0:	3810      	subs	r0, #16

100001d2 <unhandled_user_irq_num_in_r0>:
100001d2:	be00      	bkpt	0x0000

100001d4 <binary_info_header>:
100001d4:	7188ebf2 	.word	0x7188ebf2
100001d8:	100415fc 	.word	0x100415fc
100001dc:	10041620 	.word	0x10041620
100001e0:	10000234 	.word	0x10000234
100001e4:	e71aa390 	.word	0xe71aa390

100001e8 <_entry_point>:
100001e8:	2000      	movs	r0, #0
100001ea:	4921      	ldr	r1, [pc, #132]	; (10000270 <__get_current_exception+0xa>)
100001ec:	6008      	str	r0, [r1, #0]
100001ee:	c806      	ldmia	r0!, {r1, r2}
100001f0:	f381 8808 	msr	MSP, r1
100001f4:	4710      	bx	r2

100001f6 <_reset_handler>:
100001f6:	481f      	ldr	r0, [pc, #124]	; (10000274 <__get_current_exception+0xe>)
100001f8:	6800      	ldr	r0, [r0, #0]
100001fa:	2800      	cmp	r0, #0
100001fc:	d12f      	bne.n	1000025e <hold_non_core0_in_bootrom>
100001fe:	a40d      	add	r4, pc, #52	; (adr r4, 10000234 <data_cpy_table>)
10000200:	cc0e      	ldmia	r4!, {r1, r2, r3}
10000202:	2900      	cmp	r1, #0
10000204:	d002      	beq.n	1000020c <_reset_handler+0x16>
10000206:	f000 f812 	bl	1000022e <data_cpy>
1000020a:	e7f9      	b.n	10000200 <_reset_handler+0xa>
1000020c:	491a      	ldr	r1, [pc, #104]	; (10000278 <__get_current_exception+0x12>)
1000020e:	4a1b      	ldr	r2, [pc, #108]	; (1000027c <__get_current_exception+0x16>)
10000210:	2000      	movs	r0, #0
10000212:	e000      	b.n	10000216 <bss_fill_test>

10000214 <bss_fill_loop>:
10000214:	c101      	stmia	r1!, {r0}

10000216 <bss_fill_test>:
10000216:	4291      	cmp	r1, r2
10000218:	d1fc      	bne.n	10000214 <bss_fill_loop>

1000021a <platform_entry>:
1000021a:	4919      	ldr	r1, [pc, #100]	; (10000280 <__get_current_exception+0x1a>)
1000021c:	4788      	blx	r1
1000021e:	4919      	ldr	r1, [pc, #100]	; (10000284 <__get_current_exception+0x1e>)
10000220:	4788      	blx	r1
10000222:	4919      	ldr	r1, [pc, #100]	; (10000288 <__get_current_exception+0x22>)
10000224:	4788      	blx	r1
10000226:	be00      	bkpt	0x0000
10000228:	e7fd      	b.n	10000226 <platform_entry+0xc>

1000022a <data_cpy_loop>:
1000022a:	c901      	ldmia	r1!, {r0}
1000022c:	c201      	stmia	r2!, {r0}

1000022e <data_cpy>:
1000022e:	429a      	cmp	r2, r3
10000230:	d3fb      	bcc.n	1000022a <data_cpy_loop>
10000232:	4770      	bx	lr

10000234 <data_cpy_table>:
10000234:	10041620 	.word	0x10041620
10000238:	200000c0 	.word	0x200000c0
1000023c:	200004b8 	.word	0x200004b8
10000240:	10041a18 	.word	0x10041a18
10000244:	20040000 	.word	0x20040000
10000248:	20040000 	.word	0x20040000
1000024c:	10041a18 	.word	0x10041a18
10000250:	20041000 	.word	0x20041000
10000254:	20041000 	.word	0x20041000
10000258:	00000000 	.word	0x00000000
1000025c:	4770      	bx	lr

1000025e <hold_non_core0_in_bootrom>:
1000025e:	480b      	ldr	r0, [pc, #44]	; (1000028c <__get_current_exception+0x26>)
10000260:	f000 fa1e 	bl	100006a0 <rom_func_lookup>
10000264:	4700      	bx	r0

10000266 <__get_current_exception>:
10000266:	f3ef 8005 	mrs	r0, IPSR
1000026a:	b2c0      	uxtb	r0, r0
1000026c:	4770      	bx	lr
1000026e:	0000      	.short	0x0000
10000270:	e000ed08 	.word	0xe000ed08
10000274:	d0000000 	.word	0xd0000000
10000278:	200004b8 	.word	0x200004b8
1000027c:	2000ae0c 	.word	0x2000ae0c
10000280:	1000477d 	.word	0x1000477d
10000284:	10000311 	.word	0x10000311
10000288:	1000486d 	.word	0x1000486d
1000028c:	00005657 	.word	0x00005657

10000290 <__bi_50>:
10000290:	50520006 5360b3ab 1000a498              ..RP..`S....

1000029c <__bi_38>:
1000029c:	50520006 02031c86 1000a4a8              ..RP........

100002a8 <__bi_30>:
100002a8:	50520006 9da22254 1000a4b0              ..RPT"......

100002b4 <__bi_22>:
100002b4:	50520005 68f465de 10041a18              ..RP.e.h....

100002c0 <_init>:
100002c0:	b5f8      	push	{r3, r4, r5, r6, r7, lr}
100002c2:	46c0      	nop			; (mov r8, r8)

100002c4 <register_tm_clones>:
100002c4:	4806      	ldr	r0, [pc, #24]	; (100002e0 <register_tm_clones+0x1c>)
100002c6:	4907      	ldr	r1, [pc, #28]	; (100002e4 <register_tm_clones+0x20>)
100002c8:	1a09      	subs	r1, r1, r0
100002ca:	108b      	asrs	r3, r1, #2
100002cc:	0fc9      	lsrs	r1, r1, #31
100002ce:	18c9      	adds	r1, r1, r3
100002d0:	b510      	push	{r4, lr}
100002d2:	1049      	asrs	r1, r1, #1
100002d4:	d003      	beq.n	100002de <register_tm_clones+0x1a>
100002d6:	4b04      	ldr	r3, [pc, #16]	; (100002e8 <register_tm_clones+0x24>)
100002d8:	2b00      	cmp	r3, #0
100002da:	d000      	beq.n	100002de <register_tm_clones+0x1a>
100002dc:	4798      	blx	r3
100002de:	bd10      	pop	{r4, pc}
100002e0:	200004b8 	.word	0x200004b8
100002e4:	200004b8 	.word	0x200004b8
100002e8:	00000000 	.word	0x00000000

100002ec <frame_dummy>:
100002ec:	4b05      	ldr	r3, [pc, #20]	; (10000304 <frame_dummy+0x18>)
100002ee:	b510      	push	{r4, lr}
100002f0:	2b00      	cmp	r3, #0
100002f2:	d003      	beq.n	100002fc <frame_dummy+0x10>
100002f4:	4904      	ldr	r1, [pc, #16]	; (10000308 <frame_dummy+0x1c>)
100002f6:	4805      	ldr	r0, [pc, #20]	; (1000030c <frame_dummy+0x20>)
100002f8:	e000      	b.n	100002fc <frame_dummy+0x10>
100002fa:	bf00      	nop
100002fc:	f7ff ffe2 	bl	100002c4 <register_tm_clones>
10000300:	bd10      	pop	{r4, pc}
10000302:	46c0      	nop			; (mov r8, r8)
10000304:	00000000 	.word	0x00000000
10000308:	2000ac7c 	.word	0x2000ac7c
1000030c:	10009970 	.word	0x10009970

10000310 <main>:
10000310:	b510      	push	{r4, lr}
10000312:	f006 fd93 	bl	10006e3c <stdio_init_all>
10000316:	2101      	movs	r1, #1
10000318:	2000      	movs	r0, #0
1000031a:	f000 f821 	bl	10000360 <cyw43_arch_gpio_put>
1000031e:	4805      	ldr	r0, [pc, #20]	; (10000334 <main+0x24>)
10000320:	f003 fdf6 	bl	10003f10 <sleep_ms>
10000324:	2100      	movs	r1, #0
10000326:	2000      	movs	r0, #0
10000328:	f000 f81a 	bl	10000360 <cyw43_arch_gpio_put>
1000032c:	4801      	ldr	r0, [pc, #4]	; (10000334 <main+0x24>)
1000032e:	f003 fdef 	bl	10003f10 <sleep_ms>
10000332:	e7f0      	b.n	10000316 <main+0x6>
10000334:	000009c4 	.word	0x000009c4

10000338 <cyw43_hal_generate_laa_mac>:
10000338:	b510      	push	{r4, lr}
1000033a:	b082      	sub	sp, #8
1000033c:	4668      	mov	r0, sp
1000033e:	000c      	movs	r4, r1
10000340:	f000 f8c2 	bl	100004c8 <pico_get_unique_board_id>
10000344:	466b      	mov	r3, sp
10000346:	2206      	movs	r2, #6
10000348:	1c99      	adds	r1, r3, #2
1000034a:	0020      	movs	r0, r4
1000034c:	f006 fb62 	bl	10006a14 <__wrap___aeabi_memcpy>
10000350:	2201      	movs	r2, #1
10000352:	7823      	ldrb	r3, [r4, #0]
10000354:	4393      	bics	r3, r2
10000356:	2202      	movs	r2, #2
10000358:	4313      	orrs	r3, r2
1000035a:	7023      	strb	r3, [r4, #0]
1000035c:	b002      	add	sp, #8
1000035e:	bd10      	pop	{r4, pc}

10000360 <cyw43_arch_gpio_put>:
10000360:	b510      	push	{r4, lr}
10000362:	4b03      	ldr	r3, [pc, #12]	; (10000370 <cyw43_arch_gpio_put+0x10>)
10000364:	000a      	movs	r2, r1
10000366:	0001      	movs	r1, r0
10000368:	0018      	movs	r0, r3
1000036a:	f003 f8b1 	bl	100034d0 <cyw43_gpio_set>
1000036e:	bd10      	pop	{r4, pc}
10000370:	2000090c 	.word	0x2000090c

10000374 <cyw43_await_background_or_timeout_us>:
10000374:	b510      	push	{r4, lr}
10000376:	0004      	movs	r4, r0
10000378:	f7ff ff75 	bl	10000266 <__get_current_exception>
1000037c:	2800      	cmp	r0, #0
1000037e:	d000      	beq.n	10000382 <cyw43_await_background_or_timeout_us+0xe>
10000380:	bd10      	pop	{r4, pc}
10000382:	0021      	movs	r1, r4
10000384:	4801      	ldr	r0, [pc, #4]	; (1000038c <cyw43_await_background_or_timeout_us+0x18>)
10000386:	f009 fadb 	bl	10009940 <__sem_acquire_timeout_us_veneer>
1000038a:	e7f9      	b.n	10000380 <cyw43_await_background_or_timeout_us+0xc>
1000038c:	200008f4 	.word	0x200008f4

10000390 <cyw43_post_poll_hook>:
10000390:	b510      	push	{r4, lr}
10000392:	2201      	movs	r2, #1
10000394:	2102      	movs	r1, #2
10000396:	2018      	movs	r0, #24
10000398:	f003 f92a 	bl	100035f0 <gpio_set_irq_enabled>
1000039c:	bd10      	pop	{r4, pc}
1000039e:	46c0      	nop			; (mov r8, r8)

100003a0 <cyw43_schedule_internal_poll_dispatch>:
100003a0:	22d0      	movs	r2, #208	; 0xd0
100003a2:	b510      	push	{r4, lr}
100003a4:	4b0d      	ldr	r3, [pc, #52]	; (100003dc <cyw43_schedule_internal_poll_dispatch+0x3c>)
100003a6:	0612      	lsls	r2, r2, #24
100003a8:	6018      	str	r0, [r3, #0]
100003aa:	4b0d      	ldr	r3, [pc, #52]	; (100003e0 <cyw43_schedule_internal_poll_dispatch+0x40>)
100003ac:	6812      	ldr	r2, [r2, #0]
100003ae:	781b      	ldrb	r3, [r3, #0]
100003b0:	4293      	cmp	r3, r2
100003b2:	d00d      	beq.n	100003d0 <cyw43_schedule_internal_poll_dispatch+0x30>
100003b4:	1e5a      	subs	r2, r3, #1
100003b6:	4193      	sbcs	r3, r2
100003b8:	2230      	movs	r2, #48	; 0x30
100003ba:	425b      	negs	r3, r3
100003bc:	4013      	ands	r3, r2
100003be:	4a09      	ldr	r2, [pc, #36]	; (100003e4 <cyw43_schedule_internal_poll_dispatch+0x44>)
100003c0:	4694      	mov	ip, r2
100003c2:	2280      	movs	r2, #128	; 0x80
100003c4:	4463      	add	r3, ip
100003c6:	0192      	lsls	r2, r2, #6
100003c8:	4313      	orrs	r3, r2
100003ca:	2202      	movs	r2, #2
100003cc:	601a      	str	r2, [r3, #0]
100003ce:	bd10      	pop	{r4, pc}
100003d0:	4b05      	ldr	r3, [pc, #20]	; (100003e8 <cyw43_schedule_internal_poll_dispatch+0x48>)
100003d2:	7818      	ldrb	r0, [r3, #0]
100003d4:	f003 f966 	bl	100036a4 <irq_set_pending>
100003d8:	e7f9      	b.n	100003ce <cyw43_schedule_internal_poll_dispatch+0x2e>
100003da:	46c0      	nop			; (mov r8, r8)
100003dc:	200012f0 	.word	0x200012f0
100003e0:	2000ae02 	.word	0x2000ae02
100003e4:	4001411c 	.word	0x4001411c
100003e8:	2000ae05 	.word	0x2000ae05

100003ec <cyw43_thread_enter>:
100003ec:	b510      	push	{r4, lr}
100003ee:	4802      	ldr	r0, [pc, #8]	; (100003f8 <cyw43_thread_enter+0xc>)
100003f0:	f009 fa96 	bl	10009920 <__recursive_mutex_enter_blocking_veneer>
100003f4:	bd10      	pop	{r4, pc}
100003f6:	46c0      	nop			; (mov r8, r8)
100003f8:	200008fc 	.word	0x200008fc

100003fc <cyw43_thread_exit>:
100003fc:	b510      	push	{r4, lr}
100003fe:	4c14      	ldr	r4, [pc, #80]	; (10000450 <cyw43_thread_exit+0x54>)
10000400:	7963      	ldrb	r3, [r4, #5]
10000402:	2b01      	cmp	r3, #1
10000404:	d003      	beq.n	1000040e <cyw43_thread_exit+0x12>
10000406:	0020      	movs	r0, r4
10000408:	f009 faa2 	bl	10009950 <__recursive_mutex_exit_veneer>
1000040c:	bd10      	pop	{r4, pc}
1000040e:	4b11      	ldr	r3, [pc, #68]	; (10000454 <cyw43_thread_exit+0x58>)
10000410:	681a      	ldr	r2, [r3, #0]
10000412:	2a00      	cmp	r2, #0
10000414:	d0f7      	beq.n	10000406 <cyw43_thread_exit+0xa>
10000416:	4a10      	ldr	r2, [pc, #64]	; (10000458 <cyw43_thread_exit+0x5c>)
10000418:	6812      	ldr	r2, [r2, #0]
1000041a:	601a      	str	r2, [r3, #0]
1000041c:	22d0      	movs	r2, #208	; 0xd0
1000041e:	4b0f      	ldr	r3, [pc, #60]	; (1000045c <cyw43_thread_exit+0x60>)
10000420:	0612      	lsls	r2, r2, #24
10000422:	781b      	ldrb	r3, [r3, #0]
10000424:	6812      	ldr	r2, [r2, #0]
10000426:	4293      	cmp	r3, r2
10000428:	d00d      	beq.n	10000446 <cyw43_thread_exit+0x4a>
1000042a:	1e5a      	subs	r2, r3, #1
1000042c:	4193      	sbcs	r3, r2
1000042e:	2230      	movs	r2, #48	; 0x30
10000430:	425b      	negs	r3, r3
10000432:	4013      	ands	r3, r2
10000434:	4a0a      	ldr	r2, [pc, #40]	; (10000460 <cyw43_thread_exit+0x64>)
10000436:	4694      	mov	ip, r2
10000438:	2280      	movs	r2, #128	; 0x80
1000043a:	4463      	add	r3, ip
1000043c:	0192      	lsls	r2, r2, #6
1000043e:	4313      	orrs	r3, r2
10000440:	2202      	movs	r2, #2
10000442:	601a      	str	r2, [r3, #0]
10000444:	e7df      	b.n	10000406 <cyw43_thread_exit+0xa>
10000446:	4b07      	ldr	r3, [pc, #28]	; (10000464 <cyw43_thread_exit+0x68>)
10000448:	7818      	ldrb	r0, [r3, #0]
1000044a:	f003 f92b 	bl	100036a4 <irq_set_pending>
1000044e:	e7da      	b.n	10000406 <cyw43_thread_exit+0xa>
10000450:	200008fc 	.word	0x200008fc
10000454:	200012f0 	.word	0x200012f0
10000458:	20000904 	.word	0x20000904
1000045c:	2000ae02 	.word	0x2000ae02
10000460:	4001411c 	.word	0x4001411c
10000464:	2000ae05 	.word	0x2000ae05

10000468 <cyw43_delay_ms>:
10000468:	b5f8      	push	{r3, r4, r5, r6, r7, lr}
1000046a:	0004      	movs	r4, r0
1000046c:	f003 fe34 	bl	100040d8 <time_us_64>
10000470:	22fa      	movs	r2, #250	; 0xfa
10000472:	0006      	movs	r6, r0
10000474:	000f      	movs	r7, r1
10000476:	0020      	movs	r0, r4
10000478:	2300      	movs	r3, #0
1000047a:	2100      	movs	r1, #0
1000047c:	0092      	lsls	r2, r2, #2
1000047e:	f006 fa6d 	bl	1000695c <__wrap___aeabi_lmul>
10000482:	1980      	adds	r0, r0, r6
10000484:	4179      	adcs	r1, r7
10000486:	0004      	movs	r4, r0
10000488:	000d      	movs	r5, r1
1000048a:	428f      	cmp	r7, r1
1000048c:	d810      	bhi.n	100004b0 <cyw43_delay_ms+0x48>
1000048e:	d00d      	beq.n	100004ac <cyw43_delay_ms+0x44>
10000490:	f7ff fee9 	bl	10000266 <__get_current_exception>
10000494:	2800      	cmp	r0, #0
10000496:	d004      	beq.n	100004a2 <cyw43_delay_ms+0x3a>
10000498:	0020      	movs	r0, r4
1000049a:	0029      	movs	r1, r5
1000049c:	f003 fe26 	bl	100040ec <busy_wait_until>
100004a0:	bdf8      	pop	{r3, r4, r5, r6, r7, pc}
100004a2:	0020      	movs	r0, r4
100004a4:	0029      	movs	r1, r5
100004a6:	f003 fcdd 	bl	10003e64 <sleep_until>
100004aa:	e7f9      	b.n	100004a0 <cyw43_delay_ms+0x38>
100004ac:	4286      	cmp	r6, r0
100004ae:	d9ef      	bls.n	10000490 <cyw43_delay_ms+0x28>
100004b0:	2401      	movs	r4, #1
100004b2:	4264      	negs	r4, r4
100004b4:	17e5      	asrs	r5, r4, #31
100004b6:	e7eb      	b.n	10000490 <cyw43_delay_ms+0x28>

100004b8 <_retrieve_unique_id_on_boot>:
100004b8:	b510      	push	{r4, lr}
100004ba:	4802      	ldr	r0, [pc, #8]	; (100004c4 <_retrieve_unique_id_on_boot+0xc>)
100004bc:	f000 f80c 	bl	100004d8 <flash_get_unique_id>
100004c0:	bd10      	pop	{r4, pc}
100004c2:	46c0      	nop			; (mov r8, r8)
100004c4:	2000acb0 	.word	0x2000acb0

100004c8 <pico_get_unique_board_id>:
100004c8:	b510      	push	{r4, lr}
100004ca:	2208      	movs	r2, #8
100004cc:	4901      	ldr	r1, [pc, #4]	; (100004d4 <pico_get_unique_board_id+0xc>)
100004ce:	f006 faa1 	bl	10006a14 <__wrap___aeabi_memcpy>
100004d2:	bd10      	pop	{r4, pc}
100004d4:	2000acb0 	.word	0x2000acb0

100004d8 <flash_get_unique_id>:
100004d8:	b530      	push	{r4, r5, lr}
100004da:	2500      	movs	r5, #0
100004dc:	b089      	sub	sp, #36	; 0x24
100004de:	0004      	movs	r4, r0
100004e0:	2209      	movs	r2, #9
100004e2:	2100      	movs	r1, #0
100004e4:	a801      	add	r0, sp, #4
100004e6:	9500      	str	r5, [sp, #0]
100004e8:	f006 fa8e 	bl	10006a08 <__wrap_memset>
100004ec:	2209      	movs	r2, #9
100004ee:	2100      	movs	r1, #0
100004f0:	a805      	add	r0, sp, #20
100004f2:	9504      	str	r5, [sp, #16]
100004f4:	f006 fa88 	bl	10006a08 <__wrap_memset>
100004f8:	234b      	movs	r3, #75	; 0x4b
100004fa:	466a      	mov	r2, sp
100004fc:	4668      	mov	r0, sp
100004fe:	7013      	strb	r3, [r2, #0]
10000500:	a904      	add	r1, sp, #16
10000502:	220d      	movs	r2, #13
10000504:	f009 f9ec 	bl	100098e0 <__flash_do_cmd_veneer>
10000508:	2115      	movs	r1, #21
1000050a:	2208      	movs	r2, #8
1000050c:	0020      	movs	r0, r4
1000050e:	4469      	add	r1, sp
10000510:	f006 fa80 	bl	10006a14 <__wrap___aeabi_memcpy>
10000514:	b009      	add	sp, #36	; 0x24
10000516:	bd30      	pop	{r4, r5, pc}

10000518 <hw_claim_lock>:
10000518:	f3ef 8010 	mrs	r0, PRIMASK
1000051c:	b672      	cpsid	i
1000051e:	4a03      	ldr	r2, [pc, #12]	; (1000052c <hw_claim_lock+0x14>)
10000520:	6813      	ldr	r3, [r2, #0]
10000522:	2b00      	cmp	r3, #0
10000524:	d0fc      	beq.n	10000520 <hw_claim_lock+0x8>
10000526:	f3bf 8f5f 	dmb	sy
1000052a:	4770      	bx	lr
1000052c:	d000012c 	.word	0xd000012c

10000530 <hw_claim_unlock>:
10000530:	f3bf 8f5f 	dmb	sy
10000534:	2200      	movs	r2, #0
10000536:	4b02      	ldr	r3, [pc, #8]	; (10000540 <hw_claim_unlock+0x10>)
10000538:	601a      	str	r2, [r3, #0]
1000053a:	f380 8810 	msr	PRIMASK, r0
1000053e:	4770      	bx	lr
10000540:	d000012c 	.word	0xd000012c

10000544 <hw_claim_or_assert>:
10000544:	b570      	push	{r4, r5, r6, lr}
10000546:	f3ef 8c10 	mrs	ip, PRIMASK
1000054a:	b672      	cpsid	i
1000054c:	4d0d      	ldr	r5, [pc, #52]	; (10000584 <hw_claim_or_assert+0x40>)
1000054e:	682b      	ldr	r3, [r5, #0]
10000550:	2b00      	cmp	r3, #0
10000552:	d0fc      	beq.n	1000054e <hw_claim_or_assert+0xa>
10000554:	f3bf 8f5f 	dmb	sy
10000558:	2407      	movs	r4, #7
1000055a:	08cb      	lsrs	r3, r1, #3
1000055c:	18c6      	adds	r6, r0, r3
1000055e:	5cc0      	ldrb	r0, [r0, r3]
10000560:	2301      	movs	r3, #1
10000562:	400c      	ands	r4, r1
10000564:	40a3      	lsls	r3, r4
10000566:	001c      	movs	r4, r3
10000568:	4004      	ands	r4, r0
1000056a:	4203      	tst	r3, r0
1000056c:	d107      	bne.n	1000057e <hw_claim_or_assert+0x3a>
1000056e:	4318      	orrs	r0, r3
10000570:	7030      	strb	r0, [r6, #0]
10000572:	f3bf 8f5f 	dmb	sy
10000576:	602c      	str	r4, [r5, #0]
10000578:	f38c 8810 	msr	PRIMASK, ip
1000057c:	bd70      	pop	{r4, r5, r6, pc}
1000057e:	0010      	movs	r0, r2
10000580:	f004 f976 	bl	10004870 <panic>
10000584:	d000012c 	.word	0xd000012c

10000588 <hw_claim_unused_from_range>:
10000588:	b5f8      	push	{r3, r4, r5, r6, r7, lr}
1000058a:	4647      	mov	r7, r8
1000058c:	46ce      	mov	lr, r9
1000058e:	4688      	mov	r8, r1
10000590:	b580      	push	{r7, lr}
10000592:	f3ef 8c10 	mrs	ip, PRIMASK
10000596:	b672      	cpsid	i
10000598:	4d21      	ldr	r5, [pc, #132]	; (10000620 <hw_claim_unused_from_range+0x98>)
1000059a:	682c      	ldr	r4, [r5, #0]
1000059c:	2c00      	cmp	r4, #0
1000059e:	d0fc      	beq.n	1000059a <hw_claim_unused_from_range+0x12>
100005a0:	f3bf 8f5f 	dmb	sy
100005a4:	429a      	cmp	r2, r3
100005a6:	d82c      	bhi.n	10000602 <hw_claim_unused_from_range+0x7a>
100005a8:	08d4      	lsrs	r4, r2, #3
100005aa:	2707      	movs	r7, #7
100005ac:	5d05      	ldrb	r5, [r0, r4]
100005ae:	1906      	adds	r6, r0, r4
100005b0:	2401      	movs	r4, #1
100005b2:	4017      	ands	r7, r2
100005b4:	40bc      	lsls	r4, r7
100005b6:	422c      	tst	r4, r5
100005b8:	d01f      	beq.n	100005fa <hw_claim_unused_from_range+0x72>
100005ba:	2107      	movs	r1, #7
100005bc:	2701      	movs	r7, #1
100005be:	4689      	mov	r9, r1
100005c0:	e009      	b.n	100005d6 <hw_claim_unused_from_range+0x4e>
100005c2:	08d4      	lsrs	r4, r2, #3
100005c4:	5d05      	ldrb	r5, [r0, r4]
100005c6:	1906      	adds	r6, r0, r4
100005c8:	464c      	mov	r4, r9
100005ca:	0039      	movs	r1, r7
100005cc:	4014      	ands	r4, r2
100005ce:	40a1      	lsls	r1, r4
100005d0:	000c      	movs	r4, r1
100005d2:	4229      	tst	r1, r5
100005d4:	d011      	beq.n	100005fa <hw_claim_unused_from_range+0x72>
100005d6:	3201      	adds	r2, #1
100005d8:	4293      	cmp	r3, r2
100005da:	d2f2      	bcs.n	100005c2 <hw_claim_unused_from_range+0x3a>
100005dc:	2001      	movs	r0, #1
100005de:	4240      	negs	r0, r0
100005e0:	f3bf 8f5f 	dmb	sy
100005e4:	2200      	movs	r2, #0
100005e6:	4b0e      	ldr	r3, [pc, #56]	; (10000620 <hw_claim_unused_from_range+0x98>)
100005e8:	601a      	str	r2, [r3, #0]
100005ea:	f38c 8810 	msr	PRIMASK, ip
100005ee:	2800      	cmp	r0, #0
100005f0:	db0f      	blt.n	10000612 <hw_claim_unused_from_range+0x8a>
100005f2:	bcc0      	pop	{r6, r7}
100005f4:	46b9      	mov	r9, r7
100005f6:	46b0      	mov	r8, r6
100005f8:	bdf8      	pop	{r3, r4, r5, r6, r7, pc}
100005fa:	4325      	orrs	r5, r4
100005fc:	0010      	movs	r0, r2
100005fe:	7035      	strb	r5, [r6, #0]
10000600:	e7ee      	b.n	100005e0 <hw_claim_unused_from_range+0x58>
10000602:	f3bf 8f5f 	dmb	sy
10000606:	2300      	movs	r3, #0
10000608:	602b      	str	r3, [r5, #0]
1000060a:	f38c 8810 	msr	PRIMASK, ip
1000060e:	2001      	movs	r0, #1
10000610:	4240      	negs	r0, r0
10000612:	4643      	mov	r3, r8
10000614:	2b00      	cmp	r3, #0
10000616:	d0ec      	beq.n	100005f2 <hw_claim_unused_from_range+0x6a>
10000618:	9808      	ldr	r0, [sp, #32]
1000061a:	f004 f929 	bl	10004870 <panic>
1000061e:	46c0      	nop			; (mov r8, r8)
10000620:	d000012c 	.word	0xd000012c

10000624 <hw_claim_clear>:
10000624:	b530      	push	{r4, r5, lr}
10000626:	f3ef 8c10 	mrs	ip, PRIMASK
1000062a:	b672      	cpsid	i
1000062c:	4c0a      	ldr	r4, [pc, #40]	; (10000658 <hw_claim_clear+0x34>)
1000062e:	6823      	ldr	r3, [r4, #0]
10000630:	2b00      	cmp	r3, #0
10000632:	d0fc      	beq.n	1000062e <hw_claim_clear+0xa>
10000634:	f3bf 8f5f 	dmb	sy
10000638:	2307      	movs	r3, #7
1000063a:	2201      	movs	r2, #1
1000063c:	400b      	ands	r3, r1
1000063e:	409a      	lsls	r2, r3
10000640:	08cd      	lsrs	r5, r1, #3
10000642:	5d43      	ldrb	r3, [r0, r5]
10000644:	4393      	bics	r3, r2
10000646:	5543      	strb	r3, [r0, r5]
10000648:	f3bf 8f5f 	dmb	sy
1000064c:	2300      	movs	r3, #0
1000064e:	6023      	str	r3, [r4, #0]
10000650:	f38c 8810 	msr	PRIMASK, ip
10000654:	bd30      	pop	{r4, r5, pc}
10000656:	46c0      	nop			; (mov r8, r8)
10000658:	d000012c 	.word	0xd000012c

1000065c <running_on_fpga>:
1000065c:	4b02      	ldr	r3, [pc, #8]	; (10000668 <running_on_fpga+0xc>)
1000065e:	6818      	ldr	r0, [r3, #0]
10000660:	0780      	lsls	r0, r0, #30
10000662:	0fc0      	lsrs	r0, r0, #31
10000664:	4770      	bx	lr
10000666:	46c0      	nop			; (mov r8, r8)
10000668:	4006c000 	.word	0x4006c000

1000066c <spin_locks_reset>:
1000066c:	2100      	movs	r1, #0
1000066e:	4b04      	ldr	r3, [pc, #16]	; (10000680 <spin_locks_reset+0x14>)
10000670:	4a04      	ldr	r2, [pc, #16]	; (10000684 <spin_locks_reset+0x18>)
10000672:	f3bf 8f5f 	dmb	sy
10000676:	c302      	stmia	r3!, {r1}
10000678:	4293      	cmp	r3, r2
1000067a:	d1fa      	bne.n	10000672 <spin_locks_reset+0x6>
1000067c:	4770      	bx	lr
1000067e:	46c0      	nop			; (mov r8, r8)
10000680:	d0000100 	.word	0xd0000100
10000684:	d0000180 	.word	0xd0000180

10000688 <next_striped_spin_lock_num>:
10000688:	4a04      	ldr	r2, [pc, #16]	; (1000069c <next_striped_spin_lock_num+0x14>)
1000068a:	7810      	ldrb	r0, [r2, #0]
1000068c:	1c43      	adds	r3, r0, #1
1000068e:	b2db      	uxtb	r3, r3
10000690:	2b17      	cmp	r3, #23
10000692:	d900      	bls.n	10000696 <next_striped_spin_lock_num+0xe>
10000694:	2310      	movs	r3, #16
10000696:	7013      	strb	r3, [r2, #0]
10000698:	4770      	bx	lr
1000069a:	46c0      	nop			; (mov r8, r8)
1000069c:	200003e8 	.word	0x200003e8

100006a0 <rom_func_lookup>:
100006a0:	2314      	movs	r3, #20
100006a2:	b510      	push	{r4, lr}
100006a4:	0001      	movs	r1, r0
100006a6:	8818      	ldrh	r0, [r3, #0]
100006a8:	3304      	adds	r3, #4
100006aa:	881b      	ldrh	r3, [r3, #0]
100006ac:	4798      	blx	r3
100006ae:	bd10      	pop	{r4, pc}

100006b0 <rom_data_lookup>:
100006b0:	2316      	movs	r3, #22
100006b2:	b510      	push	{r4, lr}
100006b4:	0001      	movs	r1, r0
100006b6:	8818      	ldrh	r0, [r3, #0]
100006b8:	3302      	adds	r3, #2
100006ba:	881b      	ldrh	r3, [r3, #0]
100006bc:	4798      	blx	r3
100006be:	bd10      	pop	{r4, pc}

100006c0 <rom_funcs_lookup>:
100006c0:	b5f8      	push	{r3, r4, r5, r6, r7, lr}
100006c2:	4647      	mov	r7, r8
100006c4:	46ce      	mov	lr, r9
100006c6:	b580      	push	{r7, lr}
100006c8:	1e0f      	subs	r7, r1, #0
100006ca:	d019      	beq.n	10000700 <rom_funcs_lookup+0x40>
100006cc:	2314      	movs	r3, #20
100006ce:	4699      	mov	r9, r3
100006d0:	3304      	adds	r3, #4
100006d2:	0004      	movs	r4, r0
100006d4:	2500      	movs	r5, #0
100006d6:	2601      	movs	r6, #1
100006d8:	4698      	mov	r8, r3
100006da:	464b      	mov	r3, r9
100006dc:	8818      	ldrh	r0, [r3, #0]
100006de:	4643      	mov	r3, r8
100006e0:	6821      	ldr	r1, [r4, #0]
100006e2:	881b      	ldrh	r3, [r3, #0]
100006e4:	4798      	blx	r3
100006e6:	c401      	stmia	r4!, {r0}
100006e8:	1e43      	subs	r3, r0, #1
100006ea:	4198      	sbcs	r0, r3
100006ec:	3501      	adds	r5, #1
100006ee:	4240      	negs	r0, r0
100006f0:	4006      	ands	r6, r0
100006f2:	42af      	cmp	r7, r5
100006f4:	d1f1      	bne.n	100006da <rom_funcs_lookup+0x1a>
100006f6:	0030      	movs	r0, r6
100006f8:	bcc0      	pop	{r6, r7}
100006fa:	46b9      	mov	r9, r7
100006fc:	46b0      	mov	r8, r6
100006fe:	bdf8      	pop	{r3, r4, r5, r6, r7, pc}
10000700:	2601      	movs	r6, #1
10000702:	e7f8      	b.n	100006f6 <rom_funcs_lookup+0x36>

10000704 <ns_delay.constprop.0>:
10000704:	b510      	push	{r4, lr}
10000706:	2005      	movs	r0, #5
10000708:	f004 fa28 	bl	10004b5c <clock_get_hz>
1000070c:	0c03      	lsrs	r3, r0, #16
1000070e:	2064      	movs	r0, #100	; 0x64
10000710:	4903      	ldr	r1, [pc, #12]	; (10000720 <ns_delay.constprop.0+0x1c>)
10000712:	4358      	muls	r0, r3
10000714:	f005 fda2 	bl	1000625c <__wrap___aeabi_uidiv>
10000718:	3803      	subs	r0, #3
1000071a:	d2fd      	bcs.n	10000718 <ns_delay.constprop.0+0x14>
1000071c:	bd10      	pop	{r4, pc}
1000071e:	46c0      	nop			; (mov r8, r8)
10000720:	00003b9a 	.word	0x00003b9a

10000724 <cyw43_spi_init>:
10000724:	b5f0      	push	{r4, r5, r6, r7, lr}
10000726:	464e      	mov	r6, r9
10000728:	4645      	mov	r5, r8
1000072a:	46de      	mov	lr, fp
1000072c:	4657      	mov	r7, sl
1000072e:	b5e0      	push	{r5, r6, r7, lr}
10000730:	4e62      	ldr	r6, [pc, #392]	; (100008bc <cyw43_spi_init+0x198>)
10000732:	0005      	movs	r5, r0
10000734:	b083      	sub	sp, #12
10000736:	0031      	movs	r1, r6
10000738:	4861      	ldr	r0, [pc, #388]	; (100008c0 <cyw43_spi_init+0x19c>)
1000073a:	f006 fc17 	bl	10006f6c <pio_can_add_program>
1000073e:	2800      	cmp	r0, #0
10000740:	d109      	bne.n	10000756 <cyw43_spi_init+0x32>
10000742:	0031      	movs	r1, r6
10000744:	485f      	ldr	r0, [pc, #380]	; (100008c4 <cyw43_spi_init+0x1a0>)
10000746:	f006 fc11 	bl	10006f6c <pio_can_add_program>
1000074a:	2800      	cmp	r0, #0
1000074c:	d100      	bne.n	10000750 <cyw43_spi_init+0x2c>
1000074e:	e0b2      	b.n	100008b6 <cyw43_spi_init+0x192>
10000750:	2206      	movs	r2, #6
10000752:	485c      	ldr	r0, [pc, #368]	; (100008c4 <cyw43_spi_init+0x1a0>)
10000754:	e001      	b.n	1000075a <cyw43_spi_init+0x36>
10000756:	2207      	movs	r2, #7
10000758:	4859      	ldr	r0, [pc, #356]	; (100008c0 <cyw43_spi_init+0x19c>)
1000075a:	2384      	movs	r3, #132	; 0x84
1000075c:	4c5a      	ldr	r4, [pc, #360]	; (100008c8 <cyw43_spi_init+0x1a4>)
1000075e:	011b      	lsls	r3, r3, #4
10000760:	50ec      	str	r4, [r5, r3]
10000762:	469a      	mov	sl, r3
10000764:	23ff      	movs	r3, #255	; 0xff
10000766:	2100      	movs	r1, #0
10000768:	6020      	str	r0, [r4, #0]
1000076a:	7223      	strb	r3, [r4, #8]
1000076c:	71e3      	strb	r3, [r4, #7]
1000076e:	7122      	strb	r2, [r4, #4]
10000770:	f006 fbde 	bl	10006f30 <pio_claim_unused_sm>
10000774:	b240      	sxtb	r0, r0
10000776:	71a0      	strb	r0, [r4, #6]
10000778:	2800      	cmp	r0, #0
1000077a:	da00      	bge.n	1000077e <cyw43_spi_init+0x5a>
1000077c:	e072      	b.n	10000864 <cyw43_spi_init+0x140>
1000077e:	0031      	movs	r1, r6
10000780:	6820      	ldr	r0, [r4, #0]
10000782:	f006 fc27 	bl	10006fd4 <pio_add_program>
10000786:	b240      	sxtb	r0, r0
10000788:	1d42      	adds	r2, r0, #5
1000078a:	7160      	strb	r0, [r4, #5]
1000078c:	4b4f      	ldr	r3, [pc, #316]	; (100008cc <cyw43_spi_init+0x1a8>)
1000078e:	01c0      	lsls	r0, r0, #7
10000790:	0312      	lsls	r2, r2, #12
10000792:	4302      	orrs	r2, r0
10000794:	401a      	ands	r2, r3
10000796:	2330      	movs	r3, #48	; 0x30
10000798:	484d      	ldr	r0, [pc, #308]	; (100008d0 <cyw43_spi_init+0x1ac>)
1000079a:	27c8      	movs	r7, #200	; 0xc8
1000079c:	6801      	ldr	r1, [r0, #0]
1000079e:	46b8      	mov	r8, r7
100007a0:	438b      	bics	r3, r1
100007a2:	494c      	ldr	r1, [pc, #304]	; (100008d4 <cyw43_spi_init+0x1b0>)
100007a4:	2780      	movs	r7, #128	; 0x80
100007a6:	600b      	str	r3, [r1, #0]
100007a8:	6803      	ldr	r3, [r0, #0]
100007aa:	2001      	movs	r0, #1
100007ac:	4684      	mov	ip, r0
100007ae:	4398      	bics	r0, r3
100007b0:	6008      	str	r0, [r1, #0]
100007b2:	6820      	ldr	r0, [r4, #0]
100007b4:	2380      	movs	r3, #128	; 0x80
100007b6:	0001      	movs	r1, r0
100007b8:	019b      	lsls	r3, r3, #6
100007ba:	3138      	adds	r1, #56	; 0x38
100007bc:	430b      	orrs	r3, r1
100007be:	2180      	movs	r1, #128	; 0x80
100007c0:	0449      	lsls	r1, r1, #17
100007c2:	6019      	str	r1, [r3, #0]
100007c4:	2106      	movs	r1, #6
100007c6:	02bf      	lsls	r7, r7, #10
100007c8:	46b9      	mov	r9, r7
100007ca:	5661      	ldrsb	r1, [r4, r1]
100007cc:	4693      	mov	fp, r2
100007ce:	004b      	lsls	r3, r1, #1
100007d0:	185b      	adds	r3, r3, r1
100007d2:	00db      	lsls	r3, r3, #3
100007d4:	18c3      	adds	r3, r0, r3
100007d6:	4498      	add	r8, r3
100007d8:	4647      	mov	r7, r8
100007da:	464a      	mov	r2, r9
100007dc:	603a      	str	r2, [r7, #0]
100007de:	22cc      	movs	r2, #204	; 0xcc
100007e0:	4690      	mov	r8, r2
100007e2:	4498      	add	r8, r3
100007e4:	4642      	mov	r2, r8
100007e6:	465f      	mov	r7, fp
100007e8:	6017      	str	r7, [r2, #0]
100007ea:	001a      	movs	r2, r3
100007ec:	27c0      	movs	r7, #192	; 0xc0
100007ee:	32d0      	adds	r2, #208	; 0xd0
100007f0:	02bf      	lsls	r7, r7, #10
100007f2:	6017      	str	r7, [r2, #0]
100007f4:	4a38      	ldr	r2, [pc, #224]	; (100008d8 <cyw43_spi_init+0x1b4>)
100007f6:	33dc      	adds	r3, #220	; 0xdc
100007f8:	601a      	str	r2, [r3, #0]
100007fa:	4663      	mov	r3, ip
100007fc:	221d      	movs	r2, #29
100007fe:	9300      	str	r3, [sp, #0]
10000800:	f006 fcac 	bl	1000715c <pio_sm_set_consecutive_pindirs>
10000804:	2018      	movs	r0, #24
10000806:	7921      	ldrb	r1, [r4, #4]
10000808:	f002 feb4 	bl	10003574 <gpio_set_function>
1000080c:	201d      	movs	r0, #29
1000080e:	7921      	ldrb	r1, [r4, #4]
10000810:	f002 feb0 	bl	10003574 <gpio_set_function>
10000814:	2201      	movs	r2, #1
10000816:	2100      	movs	r1, #0
10000818:	2018      	movs	r0, #24
1000081a:	f002 fec3 	bl	100035a4 <gpio_set_pulls>
1000081e:	2101      	movs	r1, #1
10000820:	2018      	movs	r0, #24
10000822:	f002 fed1 	bl	100035c8 <gpio_set_input_hysteresis_enabled>
10000826:	2106      	movs	r1, #6
10000828:	5661      	ldrsb	r1, [r4, r1]
1000082a:	6823      	ldr	r3, [r4, #0]
1000082c:	004a      	lsls	r2, r1, #1
1000082e:	1852      	adds	r2, r2, r1
10000830:	00d2      	lsls	r2, r2, #3
10000832:	189b      	adds	r3, r3, r2
10000834:	4a29      	ldr	r2, [pc, #164]	; (100008dc <cyw43_spi_init+0x1b8>)
10000836:	33d8      	adds	r3, #216	; 0xd8
10000838:	601a      	str	r2, [r3, #0]
1000083a:	2000      	movs	r0, #0
1000083c:	f006 fcda 	bl	100071f4 <dma_claim_unused_channel>
10000840:	71e0      	strb	r0, [r4, #7]
10000842:	2000      	movs	r0, #0
10000844:	f006 fcd6 	bl	100071f4 <dma_claim_unused_channel>
10000848:	79e2      	ldrb	r2, [r4, #7]
1000084a:	b243      	sxtb	r3, r0
1000084c:	7223      	strb	r3, [r4, #8]
1000084e:	4313      	orrs	r3, r2
10000850:	2000      	movs	r0, #0
10000852:	061b      	lsls	r3, r3, #24
10000854:	d406      	bmi.n	10000864 <cyw43_spi_init+0x140>
10000856:	b003      	add	sp, #12
10000858:	bcf0      	pop	{r4, r5, r6, r7}
1000085a:	46bb      	mov	fp, r7
1000085c:	46b2      	mov	sl, r6
1000085e:	46a9      	mov	r9, r5
10000860:	46a0      	mov	r8, r4
10000862:	bdf0      	pop	{r4, r5, r6, r7, pc}
10000864:	4653      	mov	r3, sl
10000866:	58ec      	ldr	r4, [r5, r3]
10000868:	2c00      	cmp	r4, #0
1000086a:	d024      	beq.n	100008b6 <cyw43_spi_init+0x192>
1000086c:	2106      	movs	r1, #6
1000086e:	5661      	ldrsb	r1, [r4, r1]
10000870:	2900      	cmp	r1, #0
10000872:	db0c      	blt.n	1000088e <cyw43_spi_init+0x16a>
10000874:	2205      	movs	r2, #5
10000876:	56a2      	ldrsb	r2, [r4, r2]
10000878:	1c53      	adds	r3, r2, #1
1000087a:	d005      	beq.n	10000888 <cyw43_spi_init+0x164>
1000087c:	0031      	movs	r1, r6
1000087e:	6820      	ldr	r0, [r4, #0]
10000880:	f006 fc0e 	bl	100070a0 <pio_remove_program>
10000884:	2106      	movs	r1, #6
10000886:	5661      	ldrsb	r1, [r4, r1]
10000888:	6820      	ldr	r0, [r4, #0]
1000088a:	f006 fb41 	bl	10006f10 <pio_sm_unclaim>
1000088e:	2007      	movs	r0, #7
10000890:	5620      	ldrsb	r0, [r4, r0]
10000892:	2800      	cmp	r0, #0
10000894:	db03      	blt.n	1000089e <cyw43_spi_init+0x17a>
10000896:	f006 fca3 	bl	100071e0 <dma_channel_unclaim>
1000089a:	23ff      	movs	r3, #255	; 0xff
1000089c:	71e3      	strb	r3, [r4, #7]
1000089e:	2008      	movs	r0, #8
100008a0:	5620      	ldrsb	r0, [r4, r0]
100008a2:	2800      	cmp	r0, #0
100008a4:	db03      	blt.n	100008ae <cyw43_spi_init+0x18a>
100008a6:	f006 fc9b 	bl	100071e0 <dma_channel_unclaim>
100008aa:	23ff      	movs	r3, #255	; 0xff
100008ac:	7223      	strb	r3, [r4, #8]
100008ae:	2384      	movs	r3, #132	; 0x84
100008b0:	2200      	movs	r2, #0
100008b2:	011b      	lsls	r3, r3, #4
100008b4:	50ea      	str	r2, [r5, r3]
100008b6:	2006      	movs	r0, #6
100008b8:	4240      	negs	r0, r0
100008ba:	e7cc      	b.n	10000856 <cyw43_spi_init+0x132>
100008bc:	1000998c 	.word	0x1000998c
100008c0:	50300000 	.word	0x50300000
100008c4:	50200000 	.word	0x50200000
100008c8:	200008c0 	.word	0x200008c0
100008cc:	9fffffff 	.word	0x9fffffff
100008d0:	4001c078 	.word	0x4001c078
100008d4:	4001d078 	.word	0x4001d078
100008d8:	241c7718 	.word	0x241c7718
100008dc:	0000e001 	.word	0x0000e001

100008e0 <cyw43_spi_transfer>:
100008e0:	b5f0      	push	{r4, r5, r6, r7, lr}
100008e2:	4657      	mov	r7, sl
100008e4:	4645      	mov	r5, r8
100008e6:	46de      	mov	lr, fp
100008e8:	464e      	mov	r6, r9
100008ea:	b5e0      	push	{r5, r6, r7, lr}
100008ec:	b085      	sub	sp, #20
100008ee:	000f      	movs	r7, r1
100008f0:	0015      	movs	r5, r2
100008f2:	9302      	str	r3, [sp, #8]
100008f4:	2900      	cmp	r1, #0
100008f6:	d100      	bne.n	100008fa <cyw43_spi_transfer+0x1a>
100008f8:	e0ab      	b.n	10000a52 <cyw43_spi_transfer+0x172>
100008fa:	2384      	movs	r3, #132	; 0x84
100008fc:	011b      	lsls	r3, r3, #4
100008fe:	58c4      	ldr	r4, [r0, r3]
10000900:	2280      	movs	r2, #128	; 0x80
10000902:	23d0      	movs	r3, #208	; 0xd0
10000904:	0492      	lsls	r2, r2, #18
10000906:	061b      	lsls	r3, r3, #24
10000908:	619a      	str	r2, [r3, #24]
1000090a:	2018      	movs	r0, #24
1000090c:	7921      	ldrb	r1, [r4, #4]
1000090e:	f002 fe31 	bl	10003574 <gpio_set_function>
10000912:	9b02      	ldr	r3, [sp, #8]
10000914:	2b00      	cmp	r3, #0
10000916:	d000      	beq.n	1000091a <cyw43_spi_transfer+0x3a>
10000918:	e0ab      	b.n	10000a72 <cyw43_spi_transfer+0x192>
1000091a:	2106      	movs	r1, #6
1000091c:	2201      	movs	r2, #1
1000091e:	5661      	ldrsb	r1, [r4, r1]
10000920:	4690      	mov	r8, r2
10000922:	408a      	lsls	r2, r1
10000924:	26cc      	movs	r6, #204	; 0xcc
10000926:	6820      	ldr	r0, [r4, #0]
10000928:	46b4      	mov	ip, r6
1000092a:	6803      	ldr	r3, [r0, #0]
1000092c:	4393      	bics	r3, r2
1000092e:	6003      	str	r3, [r0, #0]
10000930:	2305      	movs	r3, #5
10000932:	56e3      	ldrsb	r3, [r4, r3]
10000934:	4699      	mov	r9, r3
10000936:	004b      	lsls	r3, r1, #1
10000938:	185b      	adds	r3, r3, r1
1000093a:	00db      	lsls	r3, r3, #3
1000093c:	18c2      	adds	r2, r0, r3
1000093e:	4494      	add	ip, r2
10000940:	4662      	mov	r2, ip
10000942:	6812      	ldr	r2, [r2, #0]
10000944:	33d0      	adds	r3, #208	; 0xd0
10000946:	4692      	mov	sl, r2
10000948:	464a      	mov	r2, r9
1000094a:	3201      	adds	r2, #1
1000094c:	0316      	lsls	r6, r2, #12
1000094e:	9603      	str	r6, [sp, #12]
10000950:	4ec6      	ldr	r6, [pc, #792]	; (10000c6c <cyw43_spi_transfer+0x38c>)
10000952:	18c3      	adds	r3, r0, r3
10000954:	46b3      	mov	fp, r6
10000956:	4656      	mov	r6, sl
10000958:	465a      	mov	r2, fp
1000095a:	4016      	ands	r6, r2
1000095c:	0032      	movs	r2, r6
1000095e:	9e03      	ldr	r6, [sp, #12]
10000960:	4316      	orrs	r6, r2
10000962:	0032      	movs	r2, r6
10000964:	464e      	mov	r6, r9
10000966:	01f6      	lsls	r6, r6, #7
10000968:	4332      	orrs	r2, r6
1000096a:	4666      	mov	r6, ip
1000096c:	6032      	str	r2, [r6, #0]
1000096e:	2280      	movs	r2, #128	; 0x80
10000970:	0152      	lsls	r2, r2, #5
10000972:	4313      	orrs	r3, r2
10000974:	2280      	movs	r2, #128	; 0x80
10000976:	0612      	lsls	r2, r2, #24
10000978:	601a      	str	r2, [r3, #0]
1000097a:	601a      	str	r2, [r3, #0]
1000097c:	2380      	movs	r3, #128	; 0x80
1000097e:	045b      	lsls	r3, r3, #17
10000980:	001a      	movs	r2, r3
10000982:	f006 fba7 	bl	100070d4 <pio_sm_set_pindirs_with_mask>
10000986:	2106      	movs	r1, #6
10000988:	4646      	mov	r6, r8
1000098a:	5661      	ldrsb	r1, [r4, r1]
1000098c:	6823      	ldr	r3, [r4, #0]
1000098e:	1d0a      	adds	r2, r1, #4
10000990:	4096      	lsls	r6, r2
10000992:	0032      	movs	r2, r6
10000994:	6818      	ldr	r0, [r3, #0]
10000996:	4646      	mov	r6, r8
10000998:	4302      	orrs	r2, r0
1000099a:	601a      	str	r2, [r3, #0]
1000099c:	000a      	movs	r2, r1
1000099e:	3208      	adds	r2, #8
100009a0:	4096      	lsls	r6, r2
100009a2:	0032      	movs	r2, r6
100009a4:	6818      	ldr	r0, [r3, #0]
100009a6:	2607      	movs	r6, #7
100009a8:	4302      	orrs	r2, r0
100009aa:	601a      	str	r2, [r3, #0]
100009ac:	0088      	lsls	r0, r1, #2
100009ae:	00ea      	lsls	r2, r5, #3
100009b0:	1818      	adds	r0, r3, r0
100009b2:	3a01      	subs	r2, #1
100009b4:	6102      	str	r2, [r0, #16]
100009b6:	004a      	lsls	r2, r1, #1
100009b8:	1852      	adds	r2, r2, r1
100009ba:	00d2      	lsls	r2, r2, #3
100009bc:	49ac      	ldr	r1, [pc, #688]	; (10000c70 <cyw43_spi_transfer+0x390>)
100009be:	189a      	adds	r2, r3, r2
100009c0:	32d8      	adds	r2, #216	; 0xd8
100009c2:	6011      	str	r1, [r2, #0]
100009c4:	9902      	ldr	r1, [sp, #8]
100009c6:	6101      	str	r1, [r0, #16]
100009c8:	49aa      	ldr	r1, [pc, #680]	; (10000c74 <cyw43_spi_transfer+0x394>)
100009ca:	6011      	str	r1, [r2, #0]
100009cc:	211f      	movs	r1, #31
100009ce:	7960      	ldrb	r0, [r4, #5]
100009d0:	4001      	ands	r1, r0
100009d2:	6011      	str	r1, [r2, #0]
100009d4:	4642      	mov	r2, r8
100009d6:	57a6      	ldrsb	r6, [r4, r6]
100009d8:	20a0      	movs	r0, #160	; 0xa0
100009da:	40b2      	lsls	r2, r6
100009dc:	49a6      	ldr	r1, [pc, #664]	; (10000c78 <cyw43_spi_transfer+0x398>)
100009de:	05c0      	lsls	r0, r0, #23
100009e0:	5042      	str	r2, [r0, r1]
100009e2:	4aa6      	ldr	r2, [pc, #664]	; (10000c7c <cyw43_spi_transfer+0x39c>)
100009e4:	4684      	mov	ip, r0
100009e6:	4690      	mov	r8, r2
100009e8:	2080      	movs	r0, #128	; 0x80
100009ea:	01b1      	lsls	r1, r6, #6
100009ec:	448c      	add	ip, r1
100009ee:	0440      	lsls	r0, r0, #17
100009f0:	4441      	add	r1, r8
100009f2:	680a      	ldr	r2, [r1, #0]
100009f4:	4202      	tst	r2, r0
100009f6:	d1fc      	bne.n	100009f2 <cyw43_spi_transfer+0x112>
100009f8:	4aa1      	ldr	r2, [pc, #644]	; (10000c80 <cyw43_spi_transfer+0x3a0>)
100009fa:	02f6      	lsls	r6, r6, #11
100009fc:	189a      	adds	r2, r3, r2
100009fe:	1e51      	subs	r1, r2, #1
10000a00:	418a      	sbcs	r2, r1
10000a02:	49a0      	ldr	r1, [pc, #640]	; (10000c84 <cyw43_spi_transfer+0x3a4>)
10000a04:	0492      	lsls	r2, r2, #18
10000a06:	400e      	ands	r6, r1
10000a08:	499f      	ldr	r1, [pc, #636]	; (10000c88 <cyw43_spi_transfer+0x3a8>)
10000a0a:	4332      	orrs	r2, r6
10000a0c:	430a      	orrs	r2, r1
10000a0e:	4661      	mov	r1, ip
10000a10:	600f      	str	r7, [r1, #0]
10000a12:	0019      	movs	r1, r3
10000a14:	4666      	mov	r6, ip
10000a16:	3110      	adds	r1, #16
10000a18:	6071      	str	r1, [r6, #4]
10000a1a:	2101      	movs	r1, #1
10000a1c:	08ad      	lsrs	r5, r5, #2
10000a1e:	60b5      	str	r5, [r6, #8]
10000a20:	60f2      	str	r2, [r6, #12]
10000a22:	6098      	str	r0, [r3, #8]
10000a24:	681a      	ldr	r2, [r3, #0]
10000a26:	430a      	orrs	r2, r1
10000a28:	2180      	movs	r1, #128	; 0x80
10000a2a:	601a      	str	r2, [r3, #0]
10000a2c:	0449      	lsls	r1, r1, #17
10000a2e:	689a      	ldr	r2, [r3, #8]
10000a30:	420a      	tst	r2, r1
10000a32:	d0fc      	beq.n	10000a2e <cyw43_spi_transfer+0x14e>
10000a34:	2106      	movs	r1, #6
10000a36:	2201      	movs	r2, #1
10000a38:	5661      	ldrsb	r1, [r4, r1]
10000a3a:	6820      	ldr	r0, [r4, #0]
10000a3c:	408a      	lsls	r2, r1
10000a3e:	6803      	ldr	r3, [r0, #0]
10000a40:	4393      	bics	r3, r2
10000a42:	6003      	str	r3, [r0, #0]
10000a44:	2300      	movs	r3, #0
10000a46:	2218      	movs	r2, #24
10000a48:	9300      	str	r3, [sp, #0]
10000a4a:	3301      	adds	r3, #1
10000a4c:	f006 fb86 	bl	1000715c <pio_sm_set_consecutive_pindirs>
10000a50:	e0f0      	b.n	10000c34 <cyw43_spi_transfer+0x354>
10000a52:	2b00      	cmp	r3, #0
10000a54:	d100      	bne.n	10000a58 <cyw43_spi_transfer+0x178>
10000a56:	e106      	b.n	10000c66 <cyw43_spi_transfer+0x386>
10000a58:	2384      	movs	r3, #132	; 0x84
10000a5a:	011b      	lsls	r3, r3, #4
10000a5c:	58c4      	ldr	r4, [r0, r3]
10000a5e:	2280      	movs	r2, #128	; 0x80
10000a60:	23d0      	movs	r3, #208	; 0xd0
10000a62:	0492      	lsls	r2, r2, #18
10000a64:	061b      	lsls	r3, r3, #24
10000a66:	619a      	str	r2, [r3, #24]
10000a68:	2018      	movs	r0, #24
10000a6a:	7921      	ldrb	r1, [r4, #4]
10000a6c:	f002 fd82 	bl	10003574 <gpio_set_function>
10000a70:	9f02      	ldr	r7, [sp, #8]
10000a72:	2106      	movs	r1, #6
10000a74:	2201      	movs	r2, #1
10000a76:	5661      	ldrsb	r1, [r4, r1]
10000a78:	4690      	mov	r8, r2
10000a7a:	408a      	lsls	r2, r1
10000a7c:	26cc      	movs	r6, #204	; 0xcc
10000a7e:	6820      	ldr	r0, [r4, #0]
10000a80:	46b4      	mov	ip, r6
10000a82:	6803      	ldr	r3, [r0, #0]
10000a84:	4393      	bics	r3, r2
10000a86:	6003      	str	r3, [r0, #0]
10000a88:	2305      	movs	r3, #5
10000a8a:	56e3      	ldrsb	r3, [r4, r3]
10000a8c:	4699      	mov	r9, r3
10000a8e:	004b      	lsls	r3, r1, #1
10000a90:	185b      	adds	r3, r3, r1
10000a92:	00db      	lsls	r3, r3, #3
10000a94:	18c2      	adds	r2, r0, r3
10000a96:	4494      	add	ip, r2
10000a98:	4662      	mov	r2, ip
10000a9a:	6812      	ldr	r2, [r2, #0]
10000a9c:	33d0      	adds	r3, #208	; 0xd0
10000a9e:	4692      	mov	sl, r2
10000aa0:	464a      	mov	r2, r9
10000aa2:	3205      	adds	r2, #5
10000aa4:	0316      	lsls	r6, r2, #12
10000aa6:	9603      	str	r6, [sp, #12]
10000aa8:	4e70      	ldr	r6, [pc, #448]	; (10000c6c <cyw43_spi_transfer+0x38c>)
10000aaa:	18c3      	adds	r3, r0, r3
10000aac:	46b3      	mov	fp, r6
10000aae:	4656      	mov	r6, sl
10000ab0:	465a      	mov	r2, fp
10000ab2:	4016      	ands	r6, r2
10000ab4:	0032      	movs	r2, r6
10000ab6:	9e03      	ldr	r6, [sp, #12]
10000ab8:	4316      	orrs	r6, r2
10000aba:	0032      	movs	r2, r6
10000abc:	464e      	mov	r6, r9
10000abe:	01f6      	lsls	r6, r6, #7
10000ac0:	4332      	orrs	r2, r6
10000ac2:	4666      	mov	r6, ip
10000ac4:	6032      	str	r2, [r6, #0]
10000ac6:	2280      	movs	r2, #128	; 0x80
10000ac8:	0152      	lsls	r2, r2, #5
10000aca:	4313      	orrs	r3, r2
10000acc:	2280      	movs	r2, #128	; 0x80
10000ace:	0612      	lsls	r2, r2, #24
10000ad0:	601a      	str	r2, [r3, #0]
10000ad2:	601a      	str	r2, [r3, #0]
10000ad4:	2380      	movs	r3, #128	; 0x80
10000ad6:	045b      	lsls	r3, r3, #17
10000ad8:	001a      	movs	r2, r3
10000ada:	f006 fafb 	bl	100070d4 <pio_sm_set_pindirs_with_mask>
10000ade:	2306      	movs	r3, #6
10000ae0:	4640      	mov	r0, r8
10000ae2:	56e3      	ldrsb	r3, [r4, r3]
10000ae4:	6822      	ldr	r2, [r4, #0]
10000ae6:	4699      	mov	r9, r3
10000ae8:	3304      	adds	r3, #4
10000aea:	4098      	lsls	r0, r3
10000aec:	0003      	movs	r3, r0
10000aee:	6811      	ldr	r1, [r2, #0]
10000af0:	4640      	mov	r0, r8
10000af2:	430b      	orrs	r3, r1
10000af4:	6013      	str	r3, [r2, #0]
10000af6:	464b      	mov	r3, r9
10000af8:	3308      	adds	r3, #8
10000afa:	4098      	lsls	r0, r3
10000afc:	0003      	movs	r3, r0
10000afe:	6811      	ldr	r1, [r2, #0]
10000b00:	485b      	ldr	r0, [pc, #364]	; (10000c70 <cyw43_spi_transfer+0x390>)
10000b02:	430b      	orrs	r3, r1
10000b04:	4649      	mov	r1, r9
10000b06:	6013      	str	r3, [r2, #0]
10000b08:	0089      	lsls	r1, r1, #2
10000b0a:	00eb      	lsls	r3, r5, #3
10000b0c:	1851      	adds	r1, r2, r1
10000b0e:	3b01      	subs	r3, #1
10000b10:	610b      	str	r3, [r1, #16]
10000b12:	464b      	mov	r3, r9
10000b14:	005b      	lsls	r3, r3, #1
10000b16:	444b      	add	r3, r9
10000b18:	00db      	lsls	r3, r3, #3
10000b1a:	18d3      	adds	r3, r2, r3
10000b1c:	33d8      	adds	r3, #216	; 0xd8
10000b1e:	6018      	str	r0, [r3, #0]
10000b20:	980e      	ldr	r0, [sp, #56]	; 0x38
10000b22:	1b40      	subs	r0, r0, r5
10000b24:	00c0      	lsls	r0, r0, #3
10000b26:	3801      	subs	r0, #1
10000b28:	6108      	str	r0, [r1, #16]
10000b2a:	4952      	ldr	r1, [pc, #328]	; (10000c74 <cyw43_spi_transfer+0x394>)
10000b2c:	6019      	str	r1, [r3, #0]
10000b2e:	211f      	movs	r1, #31
10000b30:	7960      	ldrb	r0, [r4, #5]
10000b32:	4001      	ands	r1, r0
10000b34:	6019      	str	r1, [r3, #0]
10000b36:	2307      	movs	r3, #7
10000b38:	56e3      	ldrsb	r3, [r4, r3]
10000b3a:	484f      	ldr	r0, [pc, #316]	; (10000c78 <cyw43_spi_transfer+0x398>)
10000b3c:	469b      	mov	fp, r3
10000b3e:	4643      	mov	r3, r8
10000b40:	4659      	mov	r1, fp
10000b42:	408b      	lsls	r3, r1
10000b44:	21a0      	movs	r1, #160	; 0xa0
10000b46:	05c9      	lsls	r1, r1, #23
10000b48:	500b      	str	r3, [r1, r0]
10000b4a:	465b      	mov	r3, fp
10000b4c:	019b      	lsls	r3, r3, #6
10000b4e:	469c      	mov	ip, r3
10000b50:	9303      	str	r3, [sp, #12]
10000b52:	2380      	movs	r3, #128	; 0x80
10000b54:	468a      	mov	sl, r1
10000b56:	4949      	ldr	r1, [pc, #292]	; (10000c7c <cyw43_spi_transfer+0x39c>)
10000b58:	045b      	lsls	r3, r3, #17
10000b5a:	4461      	add	r1, ip
10000b5c:	6808      	ldr	r0, [r1, #0]
10000b5e:	4218      	tst	r0, r3
10000b60:	d1fc      	bne.n	10000b5c <cyw43_spi_transfer+0x27c>
10000b62:	2308      	movs	r3, #8
10000b64:	56e3      	ldrsb	r3, [r4, r3]
10000b66:	4844      	ldr	r0, [pc, #272]	; (10000c78 <cyw43_spi_transfer+0x398>)
10000b68:	469c      	mov	ip, r3
10000b6a:	2301      	movs	r3, #1
10000b6c:	4661      	mov	r1, ip
10000b6e:	408b      	lsls	r3, r1
10000b70:	4651      	mov	r1, sl
10000b72:	500b      	str	r3, [r1, r0]
10000b74:	21a0      	movs	r1, #160	; 0xa0
10000b76:	05c9      	lsls	r1, r1, #23
10000b78:	468a      	mov	sl, r1
10000b7a:	4940      	ldr	r1, [pc, #256]	; (10000c7c <cyw43_spi_transfer+0x39c>)
10000b7c:	4663      	mov	r3, ip
10000b7e:	4688      	mov	r8, r1
10000b80:	2180      	movs	r1, #128	; 0x80
10000b82:	019b      	lsls	r3, r3, #6
10000b84:	449a      	add	sl, r3
10000b86:	0449      	lsls	r1, r1, #17
10000b88:	4443      	add	r3, r8
10000b8a:	6818      	ldr	r0, [r3, #0]
10000b8c:	4208      	tst	r0, r1
10000b8e:	d1fc      	bne.n	10000b8a <cyw43_spi_transfer+0x2aa>
10000b90:	26a0      	movs	r6, #160	; 0xa0
10000b92:	05f6      	lsls	r6, r6, #23
10000b94:	46b0      	mov	r8, r6
10000b96:	4b3a      	ldr	r3, [pc, #232]	; (10000c80 <cyw43_spi_transfer+0x3a0>)
10000b98:	9e03      	ldr	r6, [sp, #12]
10000b9a:	18d0      	adds	r0, r2, r3
10000b9c:	1e43      	subs	r3, r0, #1
10000b9e:	4198      	sbcs	r0, r3
10000ba0:	465b      	mov	r3, fp
10000ba2:	4446      	add	r6, r8
10000ba4:	6037      	str	r7, [r6, #0]
10000ba6:	0017      	movs	r7, r2
10000ba8:	02d9      	lsls	r1, r3, #11
10000baa:	4b36      	ldr	r3, [pc, #216]	; (10000c84 <cyw43_spi_transfer+0x3a4>)
10000bac:	3710      	adds	r7, #16
10000bae:	469b      	mov	fp, r3
10000bb0:	4019      	ands	r1, r3
10000bb2:	0483      	lsls	r3, r0, #18
10000bb4:	4319      	orrs	r1, r3
10000bb6:	4b34      	ldr	r3, [pc, #208]	; (10000c88 <cyw43_spi_transfer+0x3a8>)
10000bb8:	6077      	str	r7, [r6, #4]
10000bba:	4319      	orrs	r1, r3
10000bbc:	08ab      	lsrs	r3, r5, #2
10000bbe:	60b3      	str	r3, [r6, #8]
10000bc0:	60f1      	str	r1, [r6, #12]
10000bc2:	2180      	movs	r1, #128	; 0x80
10000bc4:	0289      	lsls	r1, r1, #10
10000bc6:	4688      	mov	r8, r1
10000bc8:	4661      	mov	r1, ip
10000bca:	465e      	mov	r6, fp
10000bcc:	0480      	lsls	r0, r0, #18
10000bce:	02c9      	lsls	r1, r1, #11
10000bd0:	4031      	ands	r1, r6
10000bd2:	4440      	add	r0, r8
10000bd4:	4308      	orrs	r0, r1
10000bd6:	492d      	ldr	r1, [pc, #180]	; (10000c8c <cyw43_spi_transfer+0x3ac>)
10000bd8:	4656      	mov	r6, sl
10000bda:	4301      	orrs	r1, r0
10000bdc:	980e      	ldr	r0, [sp, #56]	; 0x38
10000bde:	0880      	lsrs	r0, r0, #2
10000be0:	1ac3      	subs	r3, r0, r3
10000be2:	0010      	movs	r0, r2
10000be4:	3020      	adds	r0, #32
10000be6:	6030      	str	r0, [r6, #0]
10000be8:	9802      	ldr	r0, [sp, #8]
10000bea:	1940      	adds	r0, r0, r5
10000bec:	6070      	str	r0, [r6, #4]
10000bee:	60b3      	str	r3, [r6, #8]
10000bf0:	4648      	mov	r0, r9
10000bf2:	2301      	movs	r3, #1
10000bf4:	4083      	lsls	r3, r0
10000bf6:	60f1      	str	r1, [r6, #12]
10000bf8:	6811      	ldr	r1, [r2, #0]
10000bfa:	430b      	orrs	r3, r1
10000bfc:	6013      	str	r3, [r2, #0]
10000bfe:	2307      	movs	r3, #7
10000c00:	4a23      	ldr	r2, [pc, #140]	; (10000c90 <cyw43_spi_transfer+0x3b0>)
10000c02:	56e3      	ldrsb	r3, [r4, r3]
10000c04:	4694      	mov	ip, r2
10000c06:	2280      	movs	r2, #128	; 0x80
10000c08:	019b      	lsls	r3, r3, #6
10000c0a:	4463      	add	r3, ip
10000c0c:	0452      	lsls	r2, r2, #17
10000c0e:	6819      	ldr	r1, [r3, #0]
10000c10:	4211      	tst	r1, r2
10000c12:	d1fc      	bne.n	10000c0e <cyw43_spi_transfer+0x32e>
10000c14:	2008      	movs	r0, #8
10000c16:	4b1e      	ldr	r3, [pc, #120]	; (10000c90 <cyw43_spi_transfer+0x3b0>)
10000c18:	5620      	ldrsb	r0, [r4, r0]
10000c1a:	469c      	mov	ip, r3
10000c1c:	2380      	movs	r3, #128	; 0x80
10000c1e:	0180      	lsls	r0, r0, #6
10000c20:	4460      	add	r0, ip
10000c22:	045b      	lsls	r3, r3, #17
10000c24:	6801      	ldr	r1, [r0, #0]
10000c26:	4219      	tst	r1, r3
10000c28:	d1fc      	bne.n	10000c24 <cyw43_spi_transfer+0x344>
10000c2a:	2100      	movs	r1, #0
10000c2c:	002a      	movs	r2, r5
10000c2e:	9802      	ldr	r0, [sp, #8]
10000c30:	f005 feea 	bl	10006a08 <__wrap_memset>
10000c34:	2106      	movs	r1, #6
10000c36:	5661      	ldrsb	r1, [r4, r1]
10000c38:	6823      	ldr	r3, [r4, #0]
10000c3a:	004a      	lsls	r2, r1, #1
10000c3c:	1852      	adds	r2, r2, r1
10000c3e:	00d2      	lsls	r2, r2, #3
10000c40:	189b      	adds	r3, r3, r2
10000c42:	4a14      	ldr	r2, [pc, #80]	; (10000c94 <cyw43_spi_transfer+0x3b4>)
10000c44:	33d8      	adds	r3, #216	; 0xd8
10000c46:	601a      	str	r2, [r3, #0]
10000c48:	23d0      	movs	r3, #208	; 0xd0
10000c4a:	2280      	movs	r2, #128	; 0x80
10000c4c:	061b      	lsls	r3, r3, #24
10000c4e:	0492      	lsls	r2, r2, #18
10000c50:	615a      	str	r2, [r3, #20]
10000c52:	f7ff fd57 	bl	10000704 <ns_delay.constprop.0>
10000c56:	2000      	movs	r0, #0
10000c58:	b005      	add	sp, #20
10000c5a:	bcf0      	pop	{r4, r5, r6, r7}
10000c5c:	46bb      	mov	fp, r7
10000c5e:	46b2      	mov	sl, r6
10000c60:	46a9      	mov	r9, r5
10000c62:	46a0      	mov	r8, r4
10000c64:	bdf0      	pop	{r4, r5, r6, r7, pc}
10000c66:	2005      	movs	r0, #5
10000c68:	4240      	negs	r0, r0
10000c6a:	e7f5      	b.n	10000c58 <cyw43_spi_transfer+0x378>
10000c6c:	fffe007f 	.word	0xfffe007f
10000c70:	00006020 	.word	0x00006020
10000c74:	00006040 	.word	0x00006040
10000c78:	00000444 	.word	0x00000444
10000c7c:	5000000c 	.word	0x5000000c
10000c80:	afe00000 	.word	0xafe00000
10000c84:	ff007fff 	.word	0xff007fff
10000c88:	00400019 	.word	0x00400019
10000c8c:	00400029 	.word	0x00400029
10000c90:	50000010 	.word	0x50000010
10000c94:	0000a003 	.word	0x0000a003

10000c98 <cyw43_spi_gpio_setup>:
10000c98:	b510      	push	{r4, lr}
10000c9a:	2017      	movs	r0, #23
10000c9c:	f002 fcd2 	bl	10003644 <gpio_init>
10000ca0:	24d0      	movs	r4, #208	; 0xd0
10000ca2:	2380      	movs	r3, #128	; 0x80
10000ca4:	0624      	lsls	r4, r4, #24
10000ca6:	041b      	lsls	r3, r3, #16
10000ca8:	2200      	movs	r2, #0
10000caa:	2101      	movs	r1, #1
10000cac:	6263      	str	r3, [r4, #36]	; 0x24
10000cae:	2017      	movs	r0, #23
10000cb0:	f002 fc78 	bl	100035a4 <gpio_set_pulls>
10000cb4:	2018      	movs	r0, #24
10000cb6:	f002 fcc5 	bl	10003644 <gpio_init>
10000cba:	2380      	movs	r3, #128	; 0x80
10000cbc:	045b      	lsls	r3, r3, #17
10000cbe:	6263      	str	r3, [r4, #36]	; 0x24
10000cc0:	2019      	movs	r0, #25
10000cc2:	61a3      	str	r3, [r4, #24]
10000cc4:	f002 fcbe 	bl	10003644 <gpio_init>
10000cc8:	2380      	movs	r3, #128	; 0x80
10000cca:	049b      	lsls	r3, r3, #18
10000ccc:	6263      	str	r3, [r4, #36]	; 0x24
10000cce:	6163      	str	r3, [r4, #20]
10000cd0:	bd10      	pop	{r4, pc}
10000cd2:	46c0      	nop			; (mov r8, r8)

10000cd4 <cyw43_spi_reset>:
10000cd4:	b570      	push	{r4, r5, r6, lr}
10000cd6:	24d0      	movs	r4, #208	; 0xd0
10000cd8:	2580      	movs	r5, #128	; 0x80
10000cda:	0624      	lsls	r4, r4, #24
10000cdc:	042d      	lsls	r5, r5, #16
10000cde:	61a5      	str	r5, [r4, #24]
10000ce0:	2014      	movs	r0, #20
10000ce2:	f003 f915 	bl	10003f10 <sleep_ms>
10000ce6:	6165      	str	r5, [r4, #20]
10000ce8:	20fa      	movs	r0, #250	; 0xfa
10000cea:	f003 f911 	bl	10003f10 <sleep_ms>
10000cee:	2018      	movs	r0, #24
10000cf0:	f002 fca8 	bl	10003644 <gpio_init>
10000cf4:	2380      	movs	r3, #128	; 0x80
10000cf6:	045b      	lsls	r3, r3, #17
10000cf8:	62a3      	str	r3, [r4, #40]	; 0x28
10000cfa:	bd70      	pop	{r4, r5, r6, pc}

10000cfc <read_reg_u32_swap>:
10000cfc:	2300      	movs	r3, #0
10000cfe:	b500      	push	{lr}
10000d00:	b085      	sub	sp, #20
10000d02:	9303      	str	r3, [sp, #12]
10000d04:	4b0a      	ldr	r3, [pc, #40]	; (10000d30 <read_reg_u32_swap+0x34>)
10000d06:	02d2      	lsls	r2, r2, #11
10000d08:	401a      	ands	r2, r3
10000d0a:	2308      	movs	r3, #8
10000d0c:	0709      	lsls	r1, r1, #28
10000d0e:	4311      	orrs	r1, r2
10000d10:	4a08      	ldr	r2, [pc, #32]	; (10000d34 <read_reg_u32_swap+0x38>)
10000d12:	9300      	str	r3, [sp, #0]
10000d14:	430a      	orrs	r2, r1
10000d16:	ab02      	add	r3, sp, #8
10000d18:	ba52      	rev16	r2, r2
10000d1a:	2100      	movs	r1, #0
10000d1c:	9202      	str	r2, [sp, #8]
10000d1e:	2204      	movs	r2, #4
10000d20:	f7ff fdde 	bl	100008e0 <cyw43_spi_transfer>
10000d24:	2800      	cmp	r0, #0
10000d26:	d101      	bne.n	10000d2c <read_reg_u32_swap+0x30>
10000d28:	9803      	ldr	r0, [sp, #12]
10000d2a:	ba40      	rev16	r0, r0
10000d2c:	b005      	add	sp, #20
10000d2e:	bd00      	pop	{pc}
10000d30:	0ffff800 	.word	0x0ffff800
10000d34:	40000004 	.word	0x40000004

10000d38 <cyw43_read_reg_u32>:
10000d38:	b510      	push	{r4, lr}
10000d3a:	b086      	sub	sp, #24
10000d3c:	2901      	cmp	r1, #1
10000d3e:	d016      	beq.n	10000d6e <cyw43_read_reg_u32+0x36>
10000d40:	4b15      	ldr	r3, [pc, #84]	; (10000d98 <cyw43_read_reg_u32+0x60>)
10000d42:	02d2      	lsls	r2, r2, #11
10000d44:	401a      	ands	r2, r3
10000d46:	0709      	lsls	r1, r1, #28
10000d48:	4b14      	ldr	r3, [pc, #80]	; (10000d9c <cyw43_read_reg_u32+0x64>)
10000d4a:	430a      	orrs	r2, r1
10000d4c:	4313      	orrs	r3, r2
10000d4e:	9303      	str	r3, [sp, #12]
10000d50:	2308      	movs	r3, #8
10000d52:	ac03      	add	r4, sp, #12
10000d54:	9300      	str	r3, [sp, #0]
10000d56:	2204      	movs	r2, #4
10000d58:	0023      	movs	r3, r4
10000d5a:	2100      	movs	r1, #0
10000d5c:	f7ff fdc0 	bl	100008e0 <cyw43_spi_transfer>
10000d60:	2301      	movs	r3, #1
10000d62:	2800      	cmp	r0, #0
10000d64:	d101      	bne.n	10000d6a <cyw43_read_reg_u32+0x32>
10000d66:	009b      	lsls	r3, r3, #2
10000d68:	58e0      	ldr	r0, [r4, r3]
10000d6a:	b006      	add	sp, #24
10000d6c:	bd10      	pop	{r4, pc}
10000d6e:	4b0a      	ldr	r3, [pc, #40]	; (10000d98 <cyw43_read_reg_u32+0x60>)
10000d70:	02d2      	lsls	r2, r2, #11
10000d72:	401a      	ands	r2, r3
10000d74:	4b0a      	ldr	r3, [pc, #40]	; (10000da0 <cyw43_read_reg_u32+0x68>)
10000d76:	ac03      	add	r4, sp, #12
10000d78:	4313      	orrs	r3, r2
10000d7a:	9303      	str	r3, [sp, #12]
10000d7c:	230c      	movs	r3, #12
10000d7e:	2204      	movs	r2, #4
10000d80:	9300      	str	r3, [sp, #0]
10000d82:	2100      	movs	r1, #0
10000d84:	0023      	movs	r3, r4
10000d86:	f7ff fdab 	bl	100008e0 <cyw43_spi_transfer>
10000d8a:	2800      	cmp	r0, #0
10000d8c:	d1ed      	bne.n	10000d6a <cyw43_read_reg_u32+0x32>
10000d8e:	2302      	movs	r3, #2
10000d90:	009b      	lsls	r3, r3, #2
10000d92:	58e0      	ldr	r0, [r4, r3]
10000d94:	e7e9      	b.n	10000d6a <cyw43_read_reg_u32+0x32>
10000d96:	46c0      	nop			; (mov r8, r8)
10000d98:	0ffff800 	.word	0x0ffff800
10000d9c:	40000004 	.word	0x40000004
10000da0:	50000008 	.word	0x50000008

10000da4 <cyw43_read_reg_u16>:
10000da4:	b510      	push	{r4, lr}
10000da6:	b086      	sub	sp, #24
10000da8:	2901      	cmp	r1, #1
10000daa:	d016      	beq.n	10000dda <cyw43_read_reg_u16+0x36>
10000dac:	4b15      	ldr	r3, [pc, #84]	; (10000e04 <cyw43_read_reg_u16+0x60>)
10000dae:	02d2      	lsls	r2, r2, #11
10000db0:	401a      	ands	r2, r3
10000db2:	0709      	lsls	r1, r1, #28
10000db4:	4b14      	ldr	r3, [pc, #80]	; (10000e08 <cyw43_read_reg_u16+0x64>)
10000db6:	430a      	orrs	r2, r1
10000db8:	4313      	orrs	r3, r2
10000dba:	9303      	str	r3, [sp, #12]
10000dbc:	2308      	movs	r3, #8
10000dbe:	ac03      	add	r4, sp, #12
10000dc0:	9300      	str	r3, [sp, #0]
10000dc2:	2204      	movs	r2, #4
10000dc4:	0023      	movs	r3, r4
10000dc6:	2100      	movs	r1, #0
10000dc8:	f7ff fd8a 	bl	100008e0 <cyw43_spi_transfer>
10000dcc:	2301      	movs	r3, #1
10000dce:	2800      	cmp	r0, #0
10000dd0:	d101      	bne.n	10000dd6 <cyw43_read_reg_u16+0x32>
10000dd2:	009b      	lsls	r3, r3, #2
10000dd4:	58e0      	ldr	r0, [r4, r3]
10000dd6:	b006      	add	sp, #24
10000dd8:	bd10      	pop	{r4, pc}
10000dda:	4b0a      	ldr	r3, [pc, #40]	; (10000e04 <cyw43_read_reg_u16+0x60>)
10000ddc:	02d2      	lsls	r2, r2, #11
10000dde:	401a      	ands	r2, r3
10000de0:	4b0a      	ldr	r3, [pc, #40]	; (10000e0c <cyw43_read_reg_u16+0x68>)
10000de2:	ac03      	add	r4, sp, #12
10000de4:	4313      	orrs	r3, r2
10000de6:	9303      	str	r3, [sp, #12]
10000de8:	230c      	movs	r3, #12
10000dea:	2204      	movs	r2, #4
10000dec:	9300      	str	r3, [sp, #0]
10000dee:	2100      	movs	r1, #0
10000df0:	0023      	movs	r3, r4
10000df2:	f7ff fd75 	bl	100008e0 <cyw43_spi_transfer>
10000df6:	2800      	cmp	r0, #0
10000df8:	d1ed      	bne.n	10000dd6 <cyw43_read_reg_u16+0x32>
10000dfa:	2302      	movs	r3, #2
10000dfc:	009b      	lsls	r3, r3, #2
10000dfe:	58e0      	ldr	r0, [r4, r3]
10000e00:	e7e9      	b.n	10000dd6 <cyw43_read_reg_u16+0x32>
10000e02:	46c0      	nop			; (mov r8, r8)
10000e04:	0ffff800 	.word	0x0ffff800
10000e08:	40000002 	.word	0x40000002
10000e0c:	50000006 	.word	0x50000006

10000e10 <cyw43_read_reg_u8>:
10000e10:	b510      	push	{r4, lr}
10000e12:	b086      	sub	sp, #24
10000e14:	2901      	cmp	r1, #1
10000e16:	d016      	beq.n	10000e46 <cyw43_read_reg_u8+0x36>
10000e18:	4b15      	ldr	r3, [pc, #84]	; (10000e70 <cyw43_read_reg_u8+0x60>)
10000e1a:	02d2      	lsls	r2, r2, #11
10000e1c:	401a      	ands	r2, r3
10000e1e:	0709      	lsls	r1, r1, #28
10000e20:	4b14      	ldr	r3, [pc, #80]	; (10000e74 <cyw43_read_reg_u8+0x64>)
10000e22:	430a      	orrs	r2, r1
10000e24:	4313      	orrs	r3, r2
10000e26:	9303      	str	r3, [sp, #12]
10000e28:	2308      	movs	r3, #8
10000e2a:	ac03      	add	r4, sp, #12
10000e2c:	9300      	str	r3, [sp, #0]
10000e2e:	2204      	movs	r2, #4
10000e30:	0023      	movs	r3, r4
10000e32:	2100      	movs	r1, #0
10000e34:	f7ff fd54 	bl	100008e0 <cyw43_spi_transfer>
10000e38:	2301      	movs	r3, #1
10000e3a:	2800      	cmp	r0, #0
10000e3c:	d101      	bne.n	10000e42 <cyw43_read_reg_u8+0x32>
10000e3e:	009b      	lsls	r3, r3, #2
10000e40:	58e0      	ldr	r0, [r4, r3]
10000e42:	b006      	add	sp, #24
10000e44:	bd10      	pop	{r4, pc}
10000e46:	4b0a      	ldr	r3, [pc, #40]	; (10000e70 <cyw43_read_reg_u8+0x60>)
10000e48:	02d2      	lsls	r2, r2, #11
10000e4a:	401a      	ands	r2, r3
10000e4c:	4b0a      	ldr	r3, [pc, #40]	; (10000e78 <cyw43_read_reg_u8+0x68>)
10000e4e:	ac03      	add	r4, sp, #12
10000e50:	4313      	orrs	r3, r2
10000e52:	9303      	str	r3, [sp, #12]
10000e54:	230c      	movs	r3, #12
10000e56:	2204      	movs	r2, #4
10000e58:	9300      	str	r3, [sp, #0]
10000e5a:	2100      	movs	r1, #0
10000e5c:	0023      	movs	r3, r4
10000e5e:	f7ff fd3f 	bl	100008e0 <cyw43_spi_transfer>
10000e62:	2800      	cmp	r0, #0
10000e64:	d1ed      	bne.n	10000e42 <cyw43_read_reg_u8+0x32>
10000e66:	2302      	movs	r3, #2
10000e68:	009b      	lsls	r3, r3, #2
10000e6a:	58e0      	ldr	r0, [r4, r3]
10000e6c:	e7e9      	b.n	10000e42 <cyw43_read_reg_u8+0x32>
10000e6e:	46c0      	nop			; (mov r8, r8)
10000e70:	0ffff800 	.word	0x0ffff800
10000e74:	40000001 	.word	0x40000001
10000e78:	50000005 	.word	0x50000005

10000e7c <write_reg_u32_swap>:
10000e7c:	b5f0      	push	{r4, r5, r6, r7, lr}
10000e7e:	ba5b      	rev16	r3, r3
10000e80:	46de      	mov	lr, fp
10000e82:	4645      	mov	r5, r8
10000e84:	4657      	mov	r7, sl
10000e86:	464e      	mov	r6, r9
10000e88:	b5e0      	push	{r5, r6, r7, lr}
10000e8a:	b085      	sub	sp, #20
10000e8c:	9303      	str	r3, [sp, #12]
10000e8e:	2384      	movs	r3, #132	; 0x84
10000e90:	4c60      	ldr	r4, [pc, #384]	; (10001014 <write_reg_u32_swap+0x198>)
10000e92:	02d2      	lsls	r2, r2, #11
10000e94:	4022      	ands	r2, r4
10000e96:	0709      	lsls	r1, r1, #28
10000e98:	4311      	orrs	r1, r2
10000e9a:	4a5f      	ldr	r2, [pc, #380]	; (10001018 <write_reg_u32_swap+0x19c>)
10000e9c:	011b      	lsls	r3, r3, #4
10000e9e:	58c4      	ldr	r4, [r0, r3]
10000ea0:	430a      	orrs	r2, r1
10000ea2:	23d0      	movs	r3, #208	; 0xd0
10000ea4:	ba52      	rev16	r2, r2
10000ea6:	9202      	str	r2, [sp, #8]
10000ea8:	2280      	movs	r2, #128	; 0x80
10000eaa:	2601      	movs	r6, #1
10000eac:	061b      	lsls	r3, r3, #24
10000eae:	0492      	lsls	r2, r2, #18
10000eb0:	619a      	str	r2, [r3, #24]
10000eb2:	2018      	movs	r0, #24
10000eb4:	7921      	ldrb	r1, [r4, #4]
10000eb6:	f002 fb5d 	bl	10003574 <gpio_set_function>
10000eba:	2106      	movs	r1, #6
10000ebc:	0032      	movs	r2, r6
10000ebe:	5661      	ldrsb	r1, [r4, r1]
10000ec0:	6820      	ldr	r0, [r4, #0]
10000ec2:	408a      	lsls	r2, r1
10000ec4:	6803      	ldr	r3, [r0, #0]
10000ec6:	ad02      	add	r5, sp, #8
10000ec8:	4393      	bics	r3, r2
10000eca:	6003      	str	r3, [r0, #0]
10000ecc:	2305      	movs	r3, #5
10000ece:	56e3      	ldrsb	r3, [r4, r3]
10000ed0:	469c      	mov	ip, r3
10000ed2:	004b      	lsls	r3, r1, #1
10000ed4:	185b      	adds	r3, r3, r1
10000ed6:	00db      	lsls	r3, r3, #3
10000ed8:	18c7      	adds	r7, r0, r3
10000eda:	37cc      	adds	r7, #204	; 0xcc
10000edc:	469a      	mov	sl, r3
10000ede:	683b      	ldr	r3, [r7, #0]
10000ee0:	4698      	mov	r8, r3
10000ee2:	4663      	mov	r3, ip
10000ee4:	1c5a      	adds	r2, r3, #1
10000ee6:	0313      	lsls	r3, r2, #12
10000ee8:	469b      	mov	fp, r3
10000eea:	4b4c      	ldr	r3, [pc, #304]	; (1000101c <write_reg_u32_swap+0x1a0>)
10000eec:	4699      	mov	r9, r3
10000eee:	4643      	mov	r3, r8
10000ef0:	464a      	mov	r2, r9
10000ef2:	4013      	ands	r3, r2
10000ef4:	465a      	mov	r2, fp
10000ef6:	431a      	orrs	r2, r3
10000ef8:	4663      	mov	r3, ip
10000efa:	01db      	lsls	r3, r3, #7
10000efc:	431a      	orrs	r2, r3
10000efe:	4653      	mov	r3, sl
10000f00:	603a      	str	r2, [r7, #0]
10000f02:	2280      	movs	r2, #128	; 0x80
10000f04:	33d0      	adds	r3, #208	; 0xd0
10000f06:	18c3      	adds	r3, r0, r3
10000f08:	0152      	lsls	r2, r2, #5
10000f0a:	4313      	orrs	r3, r2
10000f0c:	2280      	movs	r2, #128	; 0x80
10000f0e:	0612      	lsls	r2, r2, #24
10000f10:	601a      	str	r2, [r3, #0]
10000f12:	601a      	str	r2, [r3, #0]
10000f14:	2380      	movs	r3, #128	; 0x80
10000f16:	045b      	lsls	r3, r3, #17
10000f18:	001a      	movs	r2, r3
10000f1a:	f006 f8db 	bl	100070d4 <pio_sm_set_pindirs_with_mask>
10000f1e:	2106      	movs	r1, #6
10000f20:	0037      	movs	r7, r6
10000f22:	5661      	ldrsb	r1, [r4, r1]
10000f24:	6823      	ldr	r3, [r4, #0]
10000f26:	1d0a      	adds	r2, r1, #4
10000f28:	4097      	lsls	r7, r2
10000f2a:	003a      	movs	r2, r7
10000f2c:	6818      	ldr	r0, [r3, #0]
10000f2e:	0037      	movs	r7, r6
10000f30:	4302      	orrs	r2, r0
10000f32:	601a      	str	r2, [r3, #0]
10000f34:	000a      	movs	r2, r1
10000f36:	3208      	adds	r2, #8
10000f38:	4097      	lsls	r7, r2
10000f3a:	003a      	movs	r2, r7
10000f3c:	6818      	ldr	r0, [r3, #0]
10000f3e:	2707      	movs	r7, #7
10000f40:	4302      	orrs	r2, r0
10000f42:	601a      	str	r2, [r3, #0]
10000f44:	223f      	movs	r2, #63	; 0x3f
10000f46:	0088      	lsls	r0, r1, #2
10000f48:	1818      	adds	r0, r3, r0
10000f4a:	6102      	str	r2, [r0, #16]
10000f4c:	004a      	lsls	r2, r1, #1
10000f4e:	1852      	adds	r2, r2, r1
10000f50:	00d2      	lsls	r2, r2, #3
10000f52:	4933      	ldr	r1, [pc, #204]	; (10001020 <write_reg_u32_swap+0x1a4>)
10000f54:	189a      	adds	r2, r3, r2
10000f56:	32d8      	adds	r2, #216	; 0xd8
10000f58:	6011      	str	r1, [r2, #0]
10000f5a:	2100      	movs	r1, #0
10000f5c:	6101      	str	r1, [r0, #16]
10000f5e:	4931      	ldr	r1, [pc, #196]	; (10001024 <write_reg_u32_swap+0x1a8>)
10000f60:	6011      	str	r1, [r2, #0]
10000f62:	211f      	movs	r1, #31
10000f64:	7960      	ldrb	r0, [r4, #5]
10000f66:	4001      	ands	r1, r0
10000f68:	6011      	str	r1, [r2, #0]
10000f6a:	57e7      	ldrsb	r7, [r4, r7]
10000f6c:	21a0      	movs	r1, #160	; 0xa0
10000f6e:	40be      	lsls	r6, r7
10000f70:	4a2d      	ldr	r2, [pc, #180]	; (10001028 <write_reg_u32_swap+0x1ac>)
10000f72:	05c9      	lsls	r1, r1, #23
10000f74:	508e      	str	r6, [r1, r2]
10000f76:	22a0      	movs	r2, #160	; 0xa0
10000f78:	01b9      	lsls	r1, r7, #6
10000f7a:	05d2      	lsls	r2, r2, #23
10000f7c:	188e      	adds	r6, r1, r2
10000f7e:	4a2b      	ldr	r2, [pc, #172]	; (1000102c <write_reg_u32_swap+0x1b0>)
10000f80:	2080      	movs	r0, #128	; 0x80
10000f82:	4694      	mov	ip, r2
10000f84:	0440      	lsls	r0, r0, #17
10000f86:	4461      	add	r1, ip
10000f88:	680a      	ldr	r2, [r1, #0]
10000f8a:	4202      	tst	r2, r0
10000f8c:	d1fc      	bne.n	10000f88 <write_reg_u32_swap+0x10c>
10000f8e:	4a28      	ldr	r2, [pc, #160]	; (10001030 <write_reg_u32_swap+0x1b4>)
10000f90:	02ff      	lsls	r7, r7, #11
10000f92:	4017      	ands	r7, r2
10000f94:	4a27      	ldr	r2, [pc, #156]	; (10001034 <write_reg_u32_swap+0x1b8>)
10000f96:	6035      	str	r5, [r6, #0]
10000f98:	189a      	adds	r2, r3, r2
10000f9a:	1e51      	subs	r1, r2, #1
10000f9c:	418a      	sbcs	r2, r1
10000f9e:	0019      	movs	r1, r3
10000fa0:	3110      	adds	r1, #16
10000fa2:	6071      	str	r1, [r6, #4]
10000fa4:	2102      	movs	r1, #2
10000fa6:	0492      	lsls	r2, r2, #18
10000fa8:	4317      	orrs	r7, r2
10000faa:	4a23      	ldr	r2, [pc, #140]	; (10001038 <write_reg_u32_swap+0x1bc>)
10000fac:	60b1      	str	r1, [r6, #8]
10000fae:	433a      	orrs	r2, r7
10000fb0:	60f2      	str	r2, [r6, #12]
10000fb2:	6098      	str	r0, [r3, #8]
10000fb4:	681a      	ldr	r2, [r3, #0]
10000fb6:	3901      	subs	r1, #1
10000fb8:	430a      	orrs	r2, r1
10000fba:	2180      	movs	r1, #128	; 0x80
10000fbc:	601a      	str	r2, [r3, #0]
10000fbe:	0449      	lsls	r1, r1, #17
10000fc0:	689a      	ldr	r2, [r3, #8]
10000fc2:	420a      	tst	r2, r1
10000fc4:	d0fc      	beq.n	10000fc0 <write_reg_u32_swap+0x144>
10000fc6:	2106      	movs	r1, #6
10000fc8:	2201      	movs	r2, #1
10000fca:	5661      	ldrsb	r1, [r4, r1]
10000fcc:	6820      	ldr	r0, [r4, #0]
10000fce:	408a      	lsls	r2, r1
10000fd0:	6803      	ldr	r3, [r0, #0]
10000fd2:	4393      	bics	r3, r2
10000fd4:	6003      	str	r3, [r0, #0]
10000fd6:	2300      	movs	r3, #0
10000fd8:	2218      	movs	r2, #24
10000fda:	9300      	str	r3, [sp, #0]
10000fdc:	3301      	adds	r3, #1
10000fde:	f006 f8bd 	bl	1000715c <pio_sm_set_consecutive_pindirs>
10000fe2:	2106      	movs	r1, #6
10000fe4:	5661      	ldrsb	r1, [r4, r1]
10000fe6:	6823      	ldr	r3, [r4, #0]
10000fe8:	004a      	lsls	r2, r1, #1
10000fea:	1852      	adds	r2, r2, r1
10000fec:	00d2      	lsls	r2, r2, #3
10000fee:	189b      	adds	r3, r3, r2
10000ff0:	4a12      	ldr	r2, [pc, #72]	; (1000103c <write_reg_u32_swap+0x1c0>)
10000ff2:	33d8      	adds	r3, #216	; 0xd8
10000ff4:	601a      	str	r2, [r3, #0]
10000ff6:	23d0      	movs	r3, #208	; 0xd0
10000ff8:	2280      	movs	r2, #128	; 0x80
10000ffa:	061b      	lsls	r3, r3, #24
10000ffc:	0492      	lsls	r2, r2, #18
10000ffe:	615a      	str	r2, [r3, #20]
10001000:	f7ff fb80 	bl	10000704 <ns_delay.constprop.0>
10001004:	2000      	movs	r0, #0
10001006:	b005      	add	sp, #20
10001008:	bcf0      	pop	{r4, r5, r6, r7}
1000100a:	46bb      	mov	fp, r7
1000100c:	46b2      	mov	sl, r6
1000100e:	46a9      	mov	r9, r5
10001010:	46a0      	mov	r8, r4
10001012:	bdf0      	pop	{r4, r5, r6, r7, pc}
10001014:	0ffff800 	.word	0x0ffff800
10001018:	c0000004 	.word	0xc0000004
1000101c:	fffe007f 	.word	0xfffe007f
10001020:	00006020 	.word	0x00006020
10001024:	00006040 	.word	0x00006040
10001028:	00000444 	.word	0x00000444
1000102c:	5000000c 	.word	0x5000000c
10001030:	ff007fff 	.word	0xff007fff
10001034:	afe00000 	.word	0xafe00000
10001038:	00400019 	.word	0x00400019
1000103c:	0000a003 	.word	0x0000a003

10001040 <cyw43_write_reg_u32>:
10001040:	b5f0      	push	{r4, r5, r6, r7, lr}
10001042:	4645      	mov	r5, r8
10001044:	46de      	mov	lr, fp
10001046:	4657      	mov	r7, sl
10001048:	464e      	mov	r6, r9
1000104a:	b5e0      	push	{r5, r6, r7, lr}
1000104c:	4c68      	ldr	r4, [pc, #416]	; (100011f0 <cyw43_write_reg_u32+0x1b0>)
1000104e:	02d2      	lsls	r2, r2, #11
10001050:	4022      	ands	r2, r4
10001052:	070c      	lsls	r4, r1, #28
10001054:	4322      	orrs	r2, r4
10001056:	4c67      	ldr	r4, [pc, #412]	; (100011f4 <cyw43_write_reg_u32+0x1b4>)
10001058:	b085      	sub	sp, #20
1000105a:	4322      	orrs	r2, r4
1000105c:	ad02      	add	r5, sp, #8
1000105e:	9202      	str	r2, [sp, #8]
10001060:	606b      	str	r3, [r5, #4]
10001062:	2901      	cmp	r1, #1
10001064:	d10a      	bne.n	1000107c <cyw43_write_reg_u32+0x3c>
10001066:	2408      	movs	r4, #8
10001068:	4963      	ldr	r1, [pc, #396]	; (100011f8 <cyw43_write_reg_u32+0x1b8>)
1000106a:	5044      	str	r4, [r0, r1]
1000106c:	4963      	ldr	r1, [pc, #396]	; (100011fc <cyw43_write_reg_u32+0x1bc>)
1000106e:	5042      	str	r2, [r0, r1]
10001070:	4a63      	ldr	r2, [pc, #396]	; (10001200 <cyw43_write_reg_u32+0x1c0>)
10001072:	5083      	str	r3, [r0, r2]
10001074:	2385      	movs	r3, #133	; 0x85
10001076:	6882      	ldr	r2, [r0, #8]
10001078:	011b      	lsls	r3, r3, #4
1000107a:	50c2      	str	r2, [r0, r3]
1000107c:	2384      	movs	r3, #132	; 0x84
1000107e:	011b      	lsls	r3, r3, #4
10001080:	58c4      	ldr	r4, [r0, r3]
10001082:	2280      	movs	r2, #128	; 0x80
10001084:	23d0      	movs	r3, #208	; 0xd0
10001086:	2601      	movs	r6, #1
10001088:	061b      	lsls	r3, r3, #24
1000108a:	0492      	lsls	r2, r2, #18
1000108c:	619a      	str	r2, [r3, #24]
1000108e:	2018      	movs	r0, #24
10001090:	7921      	ldrb	r1, [r4, #4]
10001092:	f002 fa6f 	bl	10003574 <gpio_set_function>
10001096:	2106      	movs	r1, #6
10001098:	0032      	movs	r2, r6
1000109a:	5661      	ldrsb	r1, [r4, r1]
1000109c:	6820      	ldr	r0, [r4, #0]
1000109e:	408a      	lsls	r2, r1
100010a0:	6803      	ldr	r3, [r0, #0]
100010a2:	4393      	bics	r3, r2
100010a4:	6003      	str	r3, [r0, #0]
100010a6:	2305      	movs	r3, #5
100010a8:	56e3      	ldrsb	r3, [r4, r3]
100010aa:	469c      	mov	ip, r3
100010ac:	004b      	lsls	r3, r1, #1
100010ae:	185b      	adds	r3, r3, r1
100010b0:	00db      	lsls	r3, r3, #3
100010b2:	18c7      	adds	r7, r0, r3
100010b4:	37cc      	adds	r7, #204	; 0xcc
100010b6:	469a      	mov	sl, r3
100010b8:	683b      	ldr	r3, [r7, #0]
100010ba:	4698      	mov	r8, r3
100010bc:	4663      	mov	r3, ip
100010be:	1c5a      	adds	r2, r3, #1
100010c0:	0313      	lsls	r3, r2, #12
100010c2:	469b      	mov	fp, r3
100010c4:	4b4f      	ldr	r3, [pc, #316]	; (10001204 <cyw43_write_reg_u32+0x1c4>)
100010c6:	4699      	mov	r9, r3
100010c8:	4643      	mov	r3, r8
100010ca:	464a      	mov	r2, r9
100010cc:	4013      	ands	r3, r2
100010ce:	465a      	mov	r2, fp
100010d0:	431a      	orrs	r2, r3
100010d2:	4663      	mov	r3, ip
100010d4:	01db      	lsls	r3, r3, #7
100010d6:	431a      	orrs	r2, r3
100010d8:	4653      	mov	r3, sl
100010da:	603a      	str	r2, [r7, #0]
100010dc:	2280      	movs	r2, #128	; 0x80
100010de:	33d0      	adds	r3, #208	; 0xd0
100010e0:	18c3      	adds	r3, r0, r3
100010e2:	0152      	lsls	r2, r2, #5
100010e4:	4313      	orrs	r3, r2
100010e6:	2280      	movs	r2, #128	; 0x80
100010e8:	0612      	lsls	r2, r2, #24
100010ea:	601a      	str	r2, [r3, #0]
100010ec:	601a      	str	r2, [r3, #0]
100010ee:	2380      	movs	r3, #128	; 0x80
100010f0:	045b      	lsls	r3, r3, #17
100010f2:	001a      	movs	r2, r3
100010f4:	f005 ffee 	bl	100070d4 <pio_sm_set_pindirs_with_mask>
100010f8:	2106      	movs	r1, #6
100010fa:	0037      	movs	r7, r6
100010fc:	5661      	ldrsb	r1, [r4, r1]
100010fe:	6823      	ldr	r3, [r4, #0]
10001100:	1d0a      	adds	r2, r1, #4
10001102:	4097      	lsls	r7, r2
10001104:	003a      	movs	r2, r7
10001106:	6818      	ldr	r0, [r3, #0]
10001108:	0037      	movs	r7, r6
1000110a:	4302      	orrs	r2, r0
1000110c:	601a      	str	r2, [r3, #0]
1000110e:	000a      	movs	r2, r1
10001110:	3208      	adds	r2, #8
10001112:	4097      	lsls	r7, r2
10001114:	003a      	movs	r2, r7
10001116:	6818      	ldr	r0, [r3, #0]
10001118:	2707      	movs	r7, #7
1000111a:	4302      	orrs	r2, r0
1000111c:	601a      	str	r2, [r3, #0]
1000111e:	223f      	movs	r2, #63	; 0x3f
10001120:	0088      	lsls	r0, r1, #2
10001122:	1818      	adds	r0, r3, r0
10001124:	6102      	str	r2, [r0, #16]
10001126:	004a      	lsls	r2, r1, #1
10001128:	1852      	adds	r2, r2, r1
1000112a:	00d2      	lsls	r2, r2, #3
1000112c:	4936      	ldr	r1, [pc, #216]	; (10001208 <cyw43_write_reg_u32+0x1c8>)
1000112e:	189a      	adds	r2, r3, r2
10001130:	32d8      	adds	r2, #216	; 0xd8
10001132:	6011      	str	r1, [r2, #0]
10001134:	2100      	movs	r1, #0
10001136:	6101      	str	r1, [r0, #16]
10001138:	4934      	ldr	r1, [pc, #208]	; (1000120c <cyw43_write_reg_u32+0x1cc>)
1000113a:	6011      	str	r1, [r2, #0]
1000113c:	211f      	movs	r1, #31
1000113e:	7960      	ldrb	r0, [r4, #5]
10001140:	4001      	ands	r1, r0
10001142:	6011      	str	r1, [r2, #0]
10001144:	57e7      	ldrsb	r7, [r4, r7]
10001146:	21a0      	movs	r1, #160	; 0xa0
10001148:	40be      	lsls	r6, r7
1000114a:	4a31      	ldr	r2, [pc, #196]	; (10001210 <cyw43_write_reg_u32+0x1d0>)
1000114c:	05c9      	lsls	r1, r1, #23
1000114e:	508e      	str	r6, [r1, r2]
10001150:	22a0      	movs	r2, #160	; 0xa0
10001152:	01b9      	lsls	r1, r7, #6
10001154:	05d2      	lsls	r2, r2, #23
10001156:	188e      	adds	r6, r1, r2
10001158:	4a2e      	ldr	r2, [pc, #184]	; (10001214 <cyw43_write_reg_u32+0x1d4>)
1000115a:	2080      	movs	r0, #128	; 0x80
1000115c:	4694      	mov	ip, r2
1000115e:	0440      	lsls	r0, r0, #17
10001160:	4461      	add	r1, ip
10001162:	680a      	ldr	r2, [r1, #0]
10001164:	4202      	tst	r2, r0
10001166:	d1fc      	bne.n	10001162 <cyw43_write_reg_u32+0x122>
10001168:	4a2b      	ldr	r2, [pc, #172]	; (10001218 <cyw43_write_reg_u32+0x1d8>)
1000116a:	02ff      	lsls	r7, r7, #11
1000116c:	4017      	ands	r7, r2
1000116e:	4a2b      	ldr	r2, [pc, #172]	; (1000121c <cyw43_write_reg_u32+0x1dc>)
10001170:	6035      	str	r5, [r6, #0]
10001172:	189a      	adds	r2, r3, r2
10001174:	1e51      	subs	r1, r2, #1
10001176:	418a      	sbcs	r2, r1
10001178:	0019      	movs	r1, r3
1000117a:	3110      	adds	r1, #16
1000117c:	6071      	str	r1, [r6, #4]
1000117e:	2102      	movs	r1, #2
10001180:	0492      	lsls	r2, r2, #18
10001182:	4317      	orrs	r7, r2
10001184:	4a26      	ldr	r2, [pc, #152]	; (10001220 <cyw43_write_reg_u32+0x1e0>)
10001186:	60b1      	str	r1, [r6, #8]
10001188:	433a      	orrs	r2, r7
1000118a:	60f2      	str	r2, [r6, #12]
1000118c:	6098      	str	r0, [r3, #8]
1000118e:	681a      	ldr	r2, [r3, #0]
10001190:	3901      	subs	r1, #1
10001192:	430a      	orrs	r2, r1
10001194:	2180      	movs	r1, #128	; 0x80
10001196:	601a      	str	r2, [r3, #0]
10001198:	0449      	lsls	r1, r1, #17
1000119a:	689a      	ldr	r2, [r3, #8]
1000119c:	420a      	tst	r2, r1
1000119e:	d0fc      	beq.n	1000119a <cyw43_write_reg_u32+0x15a>
100011a0:	2106      	movs	r1, #6
100011a2:	2201      	movs	r2, #1
100011a4:	5661      	ldrsb	r1, [r4, r1]
100011a6:	6820      	ldr	r0, [r4, #0]
100011a8:	408a      	lsls	r2, r1
100011aa:	6803      	ldr	r3, [r0, #0]
100011ac:	4393      	bics	r3, r2
100011ae:	6003      	str	r3, [r0, #0]
100011b0:	2300      	movs	r3, #0
100011b2:	2218      	movs	r2, #24
100011b4:	9300      	str	r3, [sp, #0]
100011b6:	3301      	adds	r3, #1
100011b8:	f005 ffd0 	bl	1000715c <pio_sm_set_consecutive_pindirs>
100011bc:	2106      	movs	r1, #6
100011be:	5661      	ldrsb	r1, [r4, r1]
100011c0:	6823      	ldr	r3, [r4, #0]
100011c2:	004a      	lsls	r2, r1, #1
100011c4:	1852      	adds	r2, r2, r1
100011c6:	00d2      	lsls	r2, r2, #3
100011c8:	189b      	adds	r3, r3, r2
100011ca:	4a16      	ldr	r2, [pc, #88]	; (10001224 <cyw43_write_reg_u32+0x1e4>)
100011cc:	33d8      	adds	r3, #216	; 0xd8
100011ce:	601a      	str	r2, [r3, #0]
100011d0:	23d0      	movs	r3, #208	; 0xd0
100011d2:	2280      	movs	r2, #128	; 0x80
100011d4:	061b      	lsls	r3, r3, #24
100011d6:	0492      	lsls	r2, r2, #18
100011d8:	615a      	str	r2, [r3, #20]
100011da:	f7ff fa93 	bl	10000704 <ns_delay.constprop.0>
100011de:	2000      	movs	r0, #0
100011e0:	b005      	add	sp, #20
100011e2:	bcf0      	pop	{r4, r5, r6, r7}
100011e4:	46bb      	mov	fp, r7
100011e6:	46b2      	mov	sl, r6
100011e8:	46a9      	mov	r9, r5
100011ea:	46a0      	mov	r8, r4
100011ec:	bdf0      	pop	{r4, r5, r6, r7, pc}
100011ee:	46c0      	nop			; (mov r8, r8)
100011f0:	0ffff800 	.word	0x0ffff800
100011f4:	c0000004 	.word	0xc0000004
100011f8:	0000084c 	.word	0x0000084c
100011fc:	00000844 	.word	0x00000844
10001200:	00000848 	.word	0x00000848
10001204:	fffe007f 	.word	0xfffe007f
10001208:	00006020 	.word	0x00006020
1000120c:	00006040 	.word	0x00006040
10001210:	00000444 	.word	0x00000444
10001214:	5000000c 	.word	0x5000000c
10001218:	ff007fff 	.word	0xff007fff
1000121c:	afe00000 	.word	0xafe00000
10001220:	00400019 	.word	0x00400019
10001224:	0000a003 	.word	0x0000a003

10001228 <cyw43_write_reg_u16>:
10001228:	b5f0      	push	{r4, r5, r6, r7, lr}
1000122a:	4645      	mov	r5, r8
1000122c:	46de      	mov	lr, fp
1000122e:	4657      	mov	r7, sl
10001230:	464e      	mov	r6, r9
10001232:	b5e0      	push	{r5, r6, r7, lr}
10001234:	4c68      	ldr	r4, [pc, #416]	; (100013d8 <cyw43_write_reg_u16+0x1b0>)
10001236:	02d2      	lsls	r2, r2, #11
10001238:	4022      	ands	r2, r4
1000123a:	070c      	lsls	r4, r1, #28
1000123c:	4322      	orrs	r2, r4
1000123e:	4c67      	ldr	r4, [pc, #412]	; (100013dc <cyw43_write_reg_u16+0x1b4>)
10001240:	b085      	sub	sp, #20
10001242:	4322      	orrs	r2, r4
10001244:	ad02      	add	r5, sp, #8
10001246:	9202      	str	r2, [sp, #8]
10001248:	606b      	str	r3, [r5, #4]
1000124a:	2901      	cmp	r1, #1
1000124c:	d10a      	bne.n	10001264 <cyw43_write_reg_u16+0x3c>
1000124e:	2408      	movs	r4, #8
10001250:	4963      	ldr	r1, [pc, #396]	; (100013e0 <cyw43_write_reg_u16+0x1b8>)
10001252:	5044      	str	r4, [r0, r1]
10001254:	4963      	ldr	r1, [pc, #396]	; (100013e4 <cyw43_write_reg_u16+0x1bc>)
10001256:	5042      	str	r2, [r0, r1]
10001258:	4a63      	ldr	r2, [pc, #396]	; (100013e8 <cyw43_write_reg_u16+0x1c0>)
1000125a:	5083      	str	r3, [r0, r2]
1000125c:	2385      	movs	r3, #133	; 0x85
1000125e:	6882      	ldr	r2, [r0, #8]
10001260:	011b      	lsls	r3, r3, #4
10001262:	50c2      	str	r2, [r0, r3]
10001264:	2384      	movs	r3, #132	; 0x84
10001266:	011b      	lsls	r3, r3, #4
10001268:	58c4      	ldr	r4, [r0, r3]
1000126a:	2280      	movs	r2, #128	; 0x80
1000126c:	23d0      	movs	r3, #208	; 0xd0
1000126e:	2601      	movs	r6, #1
10001270:	061b      	lsls	r3, r3, #24
10001272:	0492      	lsls	r2, r2, #18
10001274:	619a      	str	r2, [r3, #24]
10001276:	2018      	movs	r0, #24
10001278:	7921      	ldrb	r1, [r4, #4]
1000127a:	f002 f97b 	bl	10003574 <gpio_set_function>
1000127e:	2106      	movs	r1, #6
10001280:	0032      	movs	r2, r6
10001282:	5661      	ldrsb	r1, [r4, r1]
10001284:	6820      	ldr	r0, [r4, #0]
10001286:	408a      	lsls	r2, r1
10001288:	6803      	ldr	r3, [r0, #0]
1000128a:	4393      	bics	r3, r2
1000128c:	6003      	str	r3, [r0, #0]
1000128e:	2305      	movs	r3, #5
10001290:	56e3      	ldrsb	r3, [r4, r3]
10001292:	469c      	mov	ip, r3
10001294:	004b      	lsls	r3, r1, #1
10001296:	185b      	adds	r3, r3, r1
10001298:	00db      	lsls	r3, r3, #3
1000129a:	18c7      	adds	r7, r0, r3
1000129c:	37cc      	adds	r7, #204	; 0xcc
1000129e:	469a      	mov	sl, r3
100012a0:	683b      	ldr	r3, [r7, #0]
100012a2:	4698      	mov	r8, r3
100012a4:	4663      	mov	r3, ip
100012a6:	1c5a      	adds	r2, r3, #1
100012a8:	0313      	lsls	r3, r2, #12
100012aa:	469b      	mov	fp, r3
100012ac:	4b4f      	ldr	r3, [pc, #316]	; (100013ec <cyw43_write_reg_u16+0x1c4>)
100012ae:	4699      	mov	r9, r3
100012b0:	4643      	mov	r3, r8
100012b2:	464a      	mov	r2, r9
100012b4:	4013      	ands	r3, r2
100012b6:	465a      	mov	r2, fp
100012b8:	431a      	orrs	r2, r3
100012ba:	4663      	mov	r3, ip
100012bc:	01db      	lsls	r3, r3, #7
100012be:	431a      	orrs	r2, r3
100012c0:	4653      	mov	r3, sl
100012c2:	603a      	str	r2, [r7, #0]
100012c4:	2280      	movs	r2, #128	; 0x80
100012c6:	33d0      	adds	r3, #208	; 0xd0
100012c8:	18c3      	adds	r3, r0, r3
100012ca:	0152      	lsls	r2, r2, #5
100012cc:	4313      	orrs	r3, r2
100012ce:	2280      	movs	r2, #128	; 0x80
100012d0:	0612      	lsls	r2, r2, #24
100012d2:	601a      	str	r2, [r3, #0]
100012d4:	601a      	str	r2, [r3, #0]
100012d6:	2380      	movs	r3, #128	; 0x80
100012d8:	045b      	lsls	r3, r3, #17
100012da:	001a      	movs	r2, r3
100012dc:	f005 fefa 	bl	100070d4 <pio_sm_set_pindirs_with_mask>
100012e0:	2106      	movs	r1, #6
100012e2:	0037      	movs	r7, r6
100012e4:	5661      	ldrsb	r1, [r4, r1]
100012e6:	6823      	ldr	r3, [r4, #0]
100012e8:	1d0a      	adds	r2, r1, #4
100012ea:	4097      	lsls	r7, r2
100012ec:	003a      	movs	r2, r7
100012ee:	6818      	ldr	r0, [r3, #0]
100012f0:	0037      	movs	r7, r6
100012f2:	4302      	orrs	r2, r0
100012f4:	601a      	str	r2, [r3, #0]
100012f6:	000a      	movs	r2, r1
100012f8:	3208      	adds	r2, #8
100012fa:	4097      	lsls	r7, r2
100012fc:	003a      	movs	r2, r7
100012fe:	6818      	ldr	r0, [r3, #0]
10001300:	2707      	movs	r7, #7
10001302:	4302      	orrs	r2, r0
10001304:	601a      	str	r2, [r3, #0]
10001306:	223f      	movs	r2, #63	; 0x3f
10001308:	0088      	lsls	r0, r1, #2
1000130a:	1818      	adds	r0, r3, r0
1000130c:	6102      	str	r2, [r0, #16]
1000130e:	004a      	lsls	r2, r1, #1
10001310:	1852      	adds	r2, r2, r1
10001312:	00d2      	lsls	r2, r2, #3
10001314:	4936      	ldr	r1, [pc, #216]	; (100013f0 <cyw43_write_reg_u16+0x1c8>)
10001316:	189a      	adds	r2, r3, r2
10001318:	32d8      	adds	r2, #216	; 0xd8
1000131a:	6011      	str	r1, [r2, #0]
1000131c:	2100      	movs	r1, #0
1000131e:	6101      	str	r1, [r0, #16]
10001320:	4934      	ldr	r1, [pc, #208]	; (100013f4 <cyw43_write_reg_u16+0x1cc>)
10001322:	6011      	str	r1, [r2, #0]
10001324:	211f      	movs	r1, #31
10001326:	7960      	ldrb	r0, [r4, #5]
10001328:	4001      	ands	r1, r0
1000132a:	6011      	str	r1, [r2, #0]
1000132c:	57e7      	ldrsb	r7, [r4, r7]
1000132e:	21a0      	movs	r1, #160	; 0xa0
10001330:	40be      	lsls	r6, r7
10001332:	4a31      	ldr	r2, [pc, #196]	; (100013f8 <cyw43_write_reg_u16+0x1d0>)
10001334:	05c9      	lsls	r1, r1, #23
10001336:	508e      	str	r6, [r1, r2]
10001338:	22a0      	movs	r2, #160	; 0xa0
1000133a:	01b9      	lsls	r1, r7, #6
1000133c:	05d2      	lsls	r2, r2, #23
1000133e:	188e      	adds	r6, r1, r2
10001340:	4a2e      	ldr	r2, [pc, #184]	; (100013fc <cyw43_write_reg_u16+0x1d4>)
10001342:	2080      	movs	r0, #128	; 0x80
10001344:	4694      	mov	ip, r2
10001346:	0440      	lsls	r0, r0, #17
10001348:	4461      	add	r1, ip
1000134a:	680a      	ldr	r2, [r1, #0]
1000134c:	4202      	tst	r2, r0
1000134e:	d1fc      	bne.n	1000134a <cyw43_write_reg_u16+0x122>
10001350:	4a2b      	ldr	r2, [pc, #172]	; (10001400 <cyw43_write_reg_u16+0x1d8>)
10001352:	02ff      	lsls	r7, r7, #11
10001354:	4017      	ands	r7, r2
10001356:	4a2b      	ldr	r2, [pc, #172]	; (10001404 <cyw43_write_reg_u16+0x1dc>)
10001358:	6035      	str	r5, [r6, #0]
1000135a:	189a      	adds	r2, r3, r2
1000135c:	1e51      	subs	r1, r2, #1
1000135e:	418a      	sbcs	r2, r1
10001360:	0019      	movs	r1, r3
10001362:	3110      	adds	r1, #16
10001364:	6071      	str	r1, [r6, #4]
10001366:	2102      	movs	r1, #2
10001368:	0492      	lsls	r2, r2, #18
1000136a:	4317      	orrs	r7, r2
1000136c:	4a26      	ldr	r2, [pc, #152]	; (10001408 <cyw43_write_reg_u16+0x1e0>)
1000136e:	60b1      	str	r1, [r6, #8]
10001370:	433a      	orrs	r2, r7
10001372:	60f2      	str	r2, [r6, #12]
10001374:	6098      	str	r0, [r3, #8]
10001376:	681a      	ldr	r2, [r3, #0]
10001378:	3901      	subs	r1, #1
1000137a:	430a      	orrs	r2, r1
1000137c:	2180      	movs	r1, #128	; 0x80
1000137e:	601a      	str	r2, [r3, #0]
10001380:	0449      	lsls	r1, r1, #17
10001382:	689a      	ldr	r2, [r3, #8]
10001384:	420a      	tst	r2, r1
10001386:	d0fc      	beq.n	10001382 <cyw43_write_reg_u16+0x15a>
10001388:	2106      	movs	r1, #6
1000138a:	2201      	movs	r2, #1
1000138c:	5661      	ldrsb	r1, [r4, r1]
1000138e:	6820      	ldr	r0, [r4, #0]
10001390:	408a      	lsls	r2, r1
10001392:	6803      	ldr	r3, [r0, #0]
10001394:	4393      	bics	r3, r2
10001396:	6003      	str	r3, [r0, #0]
10001398:	2300      	movs	r3, #0
1000139a:	2218      	movs	r2, #24
1000139c:	9300      	str	r3, [sp, #0]
1000139e:	3301      	adds	r3, #1
100013a0:	f005 fedc 	bl	1000715c <pio_sm_set_consecutive_pindirs>
100013a4:	2106      	movs	r1, #6
100013a6:	5661      	ldrsb	r1, [r4, r1]
100013a8:	6823      	ldr	r3, [r4, #0]
100013aa:	004a      	lsls	r2, r1, #1
100013ac:	1852      	adds	r2, r2, r1
100013ae:	00d2      	lsls	r2, r2, #3
100013b0:	189b      	adds	r3, r3, r2
100013b2:	4a16      	ldr	r2, [pc, #88]	; (1000140c <cyw43_write_reg_u16+0x1e4>)
100013b4:	33d8      	adds	r3, #216	; 0xd8
100013b6:	601a      	str	r2, [r3, #0]
100013b8:	23d0      	movs	r3, #208	; 0xd0
100013ba:	2280      	movs	r2, #128	; 0x80
100013bc:	061b      	lsls	r3, r3, #24
100013be:	0492      	lsls	r2, r2, #18
100013c0:	615a      	str	r2, [r3, #20]
100013c2:	f7ff f99f 	bl	10000704 <ns_delay.constprop.0>
100013c6:	2000      	movs	r0, #0
100013c8:	b005      	add	sp, #20
100013ca:	bcf0      	pop	{r4, r5, r6, r7}
100013cc:	46bb      	mov	fp, r7
100013ce:	46b2      	mov	sl, r6
100013d0:	46a9      	mov	r9, r5
100013d2:	46a0      	mov	r8, r4
100013d4:	bdf0      	pop	{r4, r5, r6, r7, pc}
100013d6:	46c0      	nop			; (mov r8, r8)
100013d8:	0ffff800 	.word	0x0ffff800
100013dc:	c0000002 	.word	0xc0000002
100013e0:	0000084c 	.word	0x0000084c
100013e4:	00000844 	.word	0x00000844
100013e8:	00000848 	.word	0x00000848
100013ec:	fffe007f 	.word	0xfffe007f
100013f0:	00006020 	.word	0x00006020
100013f4:	00006040 	.word	0x00006040
100013f8:	00000444 	.word	0x00000444
100013fc:	5000000c 	.word	0x5000000c
10001400:	ff007fff 	.word	0xff007fff
10001404:	afe00000 	.word	0xafe00000
10001408:	00400019 	.word	0x00400019
1000140c:	0000a003 	.word	0x0000a003

10001410 <cyw43_write_reg_u8>:
10001410:	b5f0      	push	{r4, r5, r6, r7, lr}
10001412:	4645      	mov	r5, r8
10001414:	46de      	mov	lr, fp
10001416:	4657      	mov	r7, sl
10001418:	464e      	mov	r6, r9
1000141a:	b5e0      	push	{r5, r6, r7, lr}
1000141c:	4c68      	ldr	r4, [pc, #416]	; (100015c0 <cyw43_write_reg_u8+0x1b0>)
1000141e:	02d2      	lsls	r2, r2, #11
10001420:	4022      	ands	r2, r4
10001422:	070c      	lsls	r4, r1, #28
10001424:	4322      	orrs	r2, r4
10001426:	4c67      	ldr	r4, [pc, #412]	; (100015c4 <cyw43_write_reg_u8+0x1b4>)
10001428:	b085      	sub	sp, #20
1000142a:	4322      	orrs	r2, r4
1000142c:	ad02      	add	r5, sp, #8
1000142e:	9202      	str	r2, [sp, #8]
10001430:	606b      	str	r3, [r5, #4]
10001432:	2901      	cmp	r1, #1
10001434:	d10a      	bne.n	1000144c <cyw43_write_reg_u8+0x3c>
10001436:	2408      	movs	r4, #8
10001438:	4963      	ldr	r1, [pc, #396]	; (100015c8 <cyw43_write_reg_u8+0x1b8>)
1000143a:	5044      	str	r4, [r0, r1]
1000143c:	4963      	ldr	r1, [pc, #396]	; (100015cc <cyw43_write_reg_u8+0x1bc>)
1000143e:	5042      	str	r2, [r0, r1]
10001440:	4a63      	ldr	r2, [pc, #396]	; (100015d0 <cyw43_write_reg_u8+0x1c0>)
10001442:	5083      	str	r3, [r0, r2]
10001444:	2385      	movs	r3, #133	; 0x85
10001446:	6882      	ldr	r2, [r0, #8]
10001448:	011b      	lsls	r3, r3, #4
1000144a:	50c2      	str	r2, [r0, r3]
1000144c:	2384      	movs	r3, #132	; 0x84
1000144e:	011b      	lsls	r3, r3, #4
10001450:	58c4      	ldr	r4, [r0, r3]
10001452:	2280      	movs	r2, #128	; 0x80
10001454:	23d0      	movs	r3, #208	; 0xd0
10001456:	2601      	movs	r6, #1
10001458:	061b      	lsls	r3, r3, #24
1000145a:	0492      	lsls	r2, r2, #18
1000145c:	619a      	str	r2, [r3, #24]
1000145e:	2018      	movs	r0, #24
10001460:	7921      	ldrb	r1, [r4, #4]
10001462:	f002 f887 	bl	10003574 <gpio_set_function>
10001466:	2106      	movs	r1, #6
10001468:	0032      	movs	r2, r6
1000146a:	5661      	ldrsb	r1, [r4, r1]
1000146c:	6820      	ldr	r0, [r4, #0]
1000146e:	408a      	lsls	r2, r1
10001470:	6803      	ldr	r3, [r0, #0]
10001472:	4393      	bics	r3, r2
10001474:	6003      	str	r3, [r0, #0]
10001476:	2305      	movs	r3, #5
10001478:	56e3      	ldrsb	r3, [r4, r3]
1000147a:	469c      	mov	ip, r3
1000147c:	004b      	lsls	r3, r1, #1
1000147e:	185b      	adds	r3, r3, r1
10001480:	00db      	lsls	r3, r3, #3
10001482:	18c7      	adds	r7, r0, r3
10001484:	37cc      	adds	r7, #204	; 0xcc
10001486:	469a      	mov	sl, r3
10001488:	683b      	ldr	r3, [r7, #0]
1000148a:	4698      	mov	r8, r3
1000148c:	4663      	mov	r3, ip
1000148e:	1c5a      	adds	r2, r3, #1
10001490:	0313      	lsls	r3, r2, #12
10001492:	469b      	mov	fp, r3
10001494:	4b4f      	ldr	r3, [pc, #316]	; (100015d4 <cyw43_write_reg_u8+0x1c4>)
10001496:	4699      	mov	r9, r3
10001498:	4643      	mov	r3, r8
1000149a:	464a      	mov	r2, r9
1000149c:	4013      	ands	r3, r2
1000149e:	465a      	mov	r2, fp
100014a0:	431a      	orrs	r2, r3
100014a2:	4663      	mov	r3, ip
100014a4:	01db      	lsls	r3, r3, #7
100014a6:	431a      	orrs	r2, r3
100014a8:	4653      	mov	r3, sl
100014aa:	603a      	str	r2, [r7, #0]
100014ac:	2280      	movs	r2, #128	; 0x80
100014ae:	33d0      	adds	r3, #208	; 0xd0
100014b0:	18c3      	adds	r3, r0, r3
100014b2:	0152      	lsls	r2, r2, #5
100014b4:	4313      	orrs	r3, r2
100014b6:	2280      	movs	r2, #128	; 0x80
100014b8:	0612      	lsls	r2, r2, #24
100014ba:	601a      	str	r2, [r3, #0]
100014bc:	601a      	str	r2, [r3, #0]
100014be:	2380      	movs	r3, #128	; 0x80
100014c0:	045b      	lsls	r3, r3, #17
100014c2:	001a      	movs	r2, r3
100014c4:	f005 fe06 	bl	100070d4 <pio_sm_set_pindirs_with_mask>
100014c8:	2106      	movs	r1, #6
100014ca:	0037      	movs	r7, r6
100014cc:	5661      	ldrsb	r1, [r4, r1]
100014ce:	6823      	ldr	r3, [r4, #0]
100014d0:	1d0a      	adds	r2, r1, #4
100014d2:	4097      	lsls	r7, r2
100014d4:	003a      	movs	r2, r7
100014d6:	6818      	ldr	r0, [r3, #0]
100014d8:	0037      	movs	r7, r6
100014da:	4302      	orrs	r2, r0
100014dc:	601a      	str	r2, [r3, #0]
100014de:	000a      	movs	r2, r1
100014e0:	3208      	adds	r2, #8
100014e2:	4097      	lsls	r7, r2
100014e4:	003a      	movs	r2, r7
100014e6:	6818      	ldr	r0, [r3, #0]
100014e8:	2707      	movs	r7, #7
100014ea:	4302      	orrs	r2, r0
100014ec:	601a      	str	r2, [r3, #0]
100014ee:	223f      	movs	r2, #63	; 0x3f
100014f0:	0088      	lsls	r0, r1, #2
100014f2:	1818      	adds	r0, r3, r0
100014f4:	6102      	str	r2, [r0, #16]
100014f6:	004a      	lsls	r2, r1, #1
100014f8:	1852      	adds	r2, r2, r1
100014fa:	00d2      	lsls	r2, r2, #3
100014fc:	4936      	ldr	r1, [pc, #216]	; (100015d8 <cyw43_write_reg_u8+0x1c8>)
100014fe:	189a      	adds	r2, r3, r2
10001500:	32d8      	adds	r2, #216	; 0xd8
10001502:	6011      	str	r1, [r2, #0]
10001504:	2100      	movs	r1, #0
10001506:	6101      	str	r1, [r0, #16]
10001508:	4934      	ldr	r1, [pc, #208]	; (100015dc <cyw43_write_reg_u8+0x1cc>)
1000150a:	6011      	str	r1, [r2, #0]
1000150c:	211f      	movs	r1, #31
1000150e:	7960      	ldrb	r0, [r4, #5]
10001510:	4001      	ands	r1, r0
10001512:	6011      	str	r1, [r2, #0]
10001514:	57e7      	ldrsb	r7, [r4, r7]
10001516:	21a0      	movs	r1, #160	; 0xa0
10001518:	40be      	lsls	r6, r7
1000151a:	4a31      	ldr	r2, [pc, #196]	; (100015e0 <cyw43_write_reg_u8+0x1d0>)
1000151c:	05c9      	lsls	r1, r1, #23
1000151e:	508e      	str	r6, [r1, r2]
10001520:	22a0      	movs	r2, #160	; 0xa0
10001522:	01b9      	lsls	r1, r7, #6
10001524:	05d2      	lsls	r2, r2, #23
10001526:	188e      	adds	r6, r1, r2
10001528:	4a2e      	ldr	r2, [pc, #184]	; (100015e4 <cyw43_write_reg_u8+0x1d4>)
1000152a:	2080      	movs	r0, #128	; 0x80
1000152c:	4694      	mov	ip, r2
1000152e:	0440      	lsls	r0, r0, #17
10001530:	4461      	add	r1, ip
10001532:	680a      	ldr	r2, [r1, #0]
10001534:	4202      	tst	r2, r0
10001536:	d1fc      	bne.n	10001532 <cyw43_write_reg_u8+0x122>
10001538:	4a2b      	ldr	r2, [pc, #172]	; (100015e8 <cyw43_write_reg_u8+0x1d8>)
1000153a:	02ff      	lsls	r7, r7, #11
1000153c:	4017      	ands	r7, r2
1000153e:	4a2b      	ldr	r2, [pc, #172]	; (100015ec <cyw43_write_reg_u8+0x1dc>)
10001540:	6035      	str	r5, [r6, #0]
10001542:	189a      	adds	r2, r3, r2
10001544:	1e51      	subs	r1, r2, #1
10001546:	418a      	sbcs	r2, r1
10001548:	0019      	movs	r1, r3
1000154a:	3110      	adds	r1, #16
1000154c:	6071      	str	r1, [r6, #4]
1000154e:	2102      	movs	r1, #2
10001550:	0492      	lsls	r2, r2, #18
10001552:	4317      	orrs	r7, r2
10001554:	4a26      	ldr	r2, [pc, #152]	; (100015f0 <cyw43_write_reg_u8+0x1e0>)
10001556:	60b1      	str	r1, [r6, #8]
10001558:	433a      	orrs	r2, r7
1000155a:	60f2      	str	r2, [r6, #12]
1000155c:	6098      	str	r0, [r3, #8]
1000155e:	681a      	ldr	r2, [r3, #0]
10001560:	3901      	subs	r1, #1
10001562:	430a      	orrs	r2, r1
10001564:	2180      	movs	r1, #128	; 0x80
10001566:	601a      	str	r2, [r3, #0]
10001568:	0449      	lsls	r1, r1, #17
1000156a:	689a      	ldr	r2, [r3, #8]
1000156c:	420a      	tst	r2, r1
1000156e:	d0fc      	beq.n	1000156a <cyw43_write_reg_u8+0x15a>
10001570:	2106      	movs	r1, #6
10001572:	2201      	movs	r2, #1
10001574:	5661      	ldrsb	r1, [r4, r1]
10001576:	6820      	ldr	r0, [r4, #0]
10001578:	408a      	lsls	r2, r1
1000157a:	6803      	ldr	r3, [r0, #0]
1000157c:	4393      	bics	r3, r2
1000157e:	6003      	str	r3, [r0, #0]
10001580:	2300      	movs	r3, #0
10001582:	2218      	movs	r2, #24
10001584:	9300      	str	r3, [sp, #0]
10001586:	3301      	adds	r3, #1
10001588:	f005 fde8 	bl	1000715c <pio_sm_set_consecutive_pindirs>
1000158c:	2106      	movs	r1, #6
1000158e:	5661      	ldrsb	r1, [r4, r1]
10001590:	6823      	ldr	r3, [r4, #0]
10001592:	004a      	lsls	r2, r1, #1
10001594:	1852      	adds	r2, r2, r1
10001596:	00d2      	lsls	r2, r2, #3
10001598:	189b      	adds	r3, r3, r2
1000159a:	4a16      	ldr	r2, [pc, #88]	; (100015f4 <cyw43_write_reg_u8+0x1e4>)
1000159c:	33d8      	adds	r3, #216	; 0xd8
1000159e:	601a      	str	r2, [r3, #0]
100015a0:	23d0      	movs	r3, #208	; 0xd0
100015a2:	2280      	movs	r2, #128	; 0x80
100015a4:	061b      	lsls	r3, r3, #24
100015a6:	0492      	lsls	r2, r2, #18
100015a8:	615a      	str	r2, [r3, #20]
100015aa:	f7ff f8ab 	bl	10000704 <ns_delay.constprop.0>
100015ae:	2000      	movs	r0, #0
100015b0:	b005      	add	sp, #20
100015b2:	bcf0      	pop	{r4, r5, r6, r7}
100015b4:	46bb      	mov	fp, r7
100015b6:	46b2      	mov	sl, r6
100015b8:	46a9      	mov	r9, r5
100015ba:	46a0      	mov	r8, r4
100015bc:	bdf0      	pop	{r4, r5, r6, r7, pc}
100015be:	46c0      	nop			; (mov r8, r8)
100015c0:	0ffff800 	.word	0x0ffff800
100015c4:	c0000001 	.word	0xc0000001
100015c8:	0000084c 	.word	0x0000084c
100015cc:	00000844 	.word	0x00000844
100015d0:	00000848 	.word	0x00000848
100015d4:	fffe007f 	.word	0xfffe007f
100015d8:	00006020 	.word	0x00006020
100015dc:	00006040 	.word	0x00006040
100015e0:	00000444 	.word	0x00000444
100015e4:	5000000c 	.word	0x5000000c
100015e8:	ff007fff 	.word	0xff007fff
100015ec:	afe00000 	.word	0xafe00000
100015f0:	00400019 	.word	0x00400019
100015f4:	0000a003 	.word	0x0000a003

100015f8 <cyw43_read_bytes>:
100015f8:	b5f0      	push	{r4, r5, r6, r7, lr}
100015fa:	0005      	movs	r5, r0
100015fc:	1e48      	subs	r0, r1, #1
100015fe:	001e      	movs	r6, r3
10001600:	4243      	negs	r3, r0
10001602:	4158      	adcs	r0, r3
10001604:	4f19      	ldr	r7, [pc, #100]	; (1000166c <cyw43_read_bytes+0x74>)
10001606:	0080      	lsls	r0, r0, #2
10001608:	02d2      	lsls	r2, r2, #11
1000160a:	403a      	ands	r2, r7
1000160c:	1837      	adds	r7, r6, r0
1000160e:	0709      	lsls	r1, r1, #28
10001610:	433a      	orrs	r2, r7
10001612:	430a      	orrs	r2, r1
10001614:	2180      	movs	r1, #128	; 0x80
10001616:	4244      	negs	r4, r0
10001618:	4144      	adcs	r4, r0
1000161a:	05c9      	lsls	r1, r1, #23
1000161c:	430a      	orrs	r2, r1
1000161e:	2103      	movs	r1, #3
10001620:	1d23      	adds	r3, r4, #4
10001622:	009b      	lsls	r3, r3, #2
10001624:	18eb      	adds	r3, r5, r3
10001626:	605a      	str	r2, [r3, #4]
10001628:	1cf2      	adds	r2, r6, #3
1000162a:	438a      	bics	r2, r1
1000162c:	3405      	adds	r4, #5
1000162e:	3204      	adds	r2, #4
10001630:	1812      	adds	r2, r2, r0
10001632:	b083      	sub	sp, #12
10001634:	00a3      	lsls	r3, r4, #2
10001636:	9200      	str	r2, [sp, #0]
10001638:	2100      	movs	r1, #0
1000163a:	2204      	movs	r2, #4
1000163c:	0028      	movs	r0, r5
1000163e:	18eb      	adds	r3, r5, r3
10001640:	f7ff f94e 	bl	100008e0 <cyw43_spi_transfer>
10001644:	1e04      	subs	r4, r0, #0
10001646:	d10b      	bne.n	10001660 <cyw43_read_bytes+0x68>
10001648:	0029      	movs	r1, r5
1000164a:	9b08      	ldr	r3, [sp, #32]
1000164c:	311c      	adds	r1, #28
1000164e:	4299      	cmp	r1, r3
10001650:	d003      	beq.n	1000165a <cyw43_read_bytes+0x62>
10001652:	0032      	movs	r2, r6
10001654:	0018      	movs	r0, r3
10001656:	f005 f9dd 	bl	10006a14 <__wrap___aeabi_memcpy>
1000165a:	0020      	movs	r0, r4
1000165c:	b003      	add	sp, #12
1000165e:	bdf0      	pop	{r4, r5, r6, r7, pc}
10001660:	0021      	movs	r1, r4
10001662:	4803      	ldr	r0, [pc, #12]	; (10001670 <cyw43_read_bytes+0x78>)
10001664:	f005 fbde 	bl	10006e24 <__wrap_printf>
10001668:	e7f7      	b.n	1000165a <cyw43_read_bytes+0x62>
1000166a:	46c0      	nop			; (mov r8, r8)
1000166c:	0ffff800 	.word	0x0ffff800
10001670:	10009970 	.word	0x10009970

10001674 <cyw43_write_bytes>:
10001674:	b5f0      	push	{r4, r5, r6, r7, lr}
10001676:	464e      	mov	r6, r9
10001678:	4645      	mov	r5, r8
1000167a:	46de      	mov	lr, fp
1000167c:	4657      	mov	r7, sl
1000167e:	4691      	mov	r9, r2
10001680:	2203      	movs	r2, #3
10001682:	b5e0      	push	{r5, r6, r7, lr}
10001684:	4698      	mov	r8, r3
10001686:	3303      	adds	r3, #3
10001688:	b089      	sub	sp, #36	; 0x24
1000168a:	4393      	bics	r3, r2
1000168c:	0005      	movs	r5, r0
1000168e:	000e      	movs	r6, r1
10001690:	9303      	str	r3, [sp, #12]
10001692:	2902      	cmp	r1, #2
10001694:	d024      	beq.n	100016e0 <cyw43_write_bytes+0x6c>
10001696:	0028      	movs	r0, r5
10001698:	9b12      	ldr	r3, [sp, #72]	; 0x48
1000169a:	301c      	adds	r0, #28
1000169c:	4298      	cmp	r0, r3
1000169e:	d03f      	beq.n	10001720 <cyw43_write_bytes+0xac>
100016a0:	0019      	movs	r1, r3
100016a2:	4643      	mov	r3, r8
100016a4:	0736      	lsls	r6, r6, #28
100016a6:	431e      	orrs	r6, r3
100016a8:	464b      	mov	r3, r9
100016aa:	02df      	lsls	r7, r3, #11
100016ac:	4b23      	ldr	r3, [pc, #140]	; (1000173c <cyw43_write_bytes+0xc8>)
100016ae:	4642      	mov	r2, r8
100016b0:	401f      	ands	r7, r3
100016b2:	23c0      	movs	r3, #192	; 0xc0
100016b4:	433e      	orrs	r6, r7
100016b6:	061b      	lsls	r3, r3, #24
100016b8:	4333      	orrs	r3, r6
100016ba:	61ab      	str	r3, [r5, #24]
100016bc:	f005 f9aa 	bl	10006a14 <__wrap___aeabi_memcpy>
100016c0:	0029      	movs	r1, r5
100016c2:	2300      	movs	r3, #0
100016c4:	9a03      	ldr	r2, [sp, #12]
100016c6:	0028      	movs	r0, r5
100016c8:	3204      	adds	r2, #4
100016ca:	3118      	adds	r1, #24
100016cc:	9300      	str	r3, [sp, #0]
100016ce:	f7ff f907 	bl	100008e0 <cyw43_spi_transfer>
100016d2:	b009      	add	sp, #36	; 0x24
100016d4:	bcf0      	pop	{r4, r5, r6, r7}
100016d6:	46bb      	mov	fp, r7
100016d8:	46b2      	mov	sl, r6
100016da:	46a9      	mov	r9, r5
100016dc:	46a0      	mov	r8, r4
100016de:	bdf0      	pop	{r4, r5, r6, r7, pc}
100016e0:	4b17      	ldr	r3, [pc, #92]	; (10001740 <cyw43_write_bytes+0xcc>)
100016e2:	2720      	movs	r7, #32
100016e4:	469b      	mov	fp, r3
100016e6:	2308      	movs	r3, #8
100016e8:	4c16      	ldr	r4, [pc, #88]	; (10001744 <cyw43_write_bytes+0xd0>)
100016ea:	469a      	mov	sl, r3
100016ec:	e001      	b.n	100016f2 <cyw43_write_bytes+0x7e>
100016ee:	3c01      	subs	r4, #1
100016f0:	d310      	bcc.n	10001714 <cyw43_write_bytes+0xa0>
100016f2:	465b      	mov	r3, fp
100016f4:	9305      	str	r3, [sp, #20]
100016f6:	4653      	mov	r3, sl
100016f8:	2204      	movs	r2, #4
100016fa:	9300      	str	r3, [sp, #0]
100016fc:	2100      	movs	r1, #0
100016fe:	0028      	movs	r0, r5
10001700:	ab05      	add	r3, sp, #20
10001702:	f7ff f8ed 	bl	100008e0 <cyw43_spi_transfer>
10001706:	2800      	cmp	r0, #0
10001708:	d100      	bne.n	1000170c <cyw43_write_bytes+0x98>
1000170a:	9806      	ldr	r0, [sp, #24]
1000170c:	4207      	tst	r7, r0
1000170e:	d0ee      	beq.n	100016ee <cyw43_write_bytes+0x7a>
10001710:	2c00      	cmp	r4, #0
10001712:	d1c0      	bne.n	10001696 <cyw43_write_bytes+0x22>
10001714:	480c      	ldr	r0, [pc, #48]	; (10001748 <cyw43_write_bytes+0xd4>)
10001716:	f005 fae5 	bl	10006ce4 <__wrap_puts>
1000171a:	2006      	movs	r0, #6
1000171c:	4240      	negs	r0, r0
1000171e:	e7d8      	b.n	100016d2 <cyw43_write_bytes+0x5e>
10001720:	464b      	mov	r3, r9
10001722:	02df      	lsls	r7, r3, #11
10001724:	4b05      	ldr	r3, [pc, #20]	; (1000173c <cyw43_write_bytes+0xc8>)
10001726:	0736      	lsls	r6, r6, #28
10001728:	401f      	ands	r7, r3
1000172a:	4643      	mov	r3, r8
1000172c:	431e      	orrs	r6, r3
1000172e:	23c0      	movs	r3, #192	; 0xc0
10001730:	4337      	orrs	r7, r6
10001732:	061b      	lsls	r3, r3, #24
10001734:	433b      	orrs	r3, r7
10001736:	61ab      	str	r3, [r5, #24]
10001738:	e7c2      	b.n	100016c0 <cyw43_write_bytes+0x4c>
1000173a:	46c0      	nop			; (mov r8, r8)
1000173c:	0ffff800 	.word	0x0ffff800
10001740:	40004004 	.word	0x40004004
10001744:	000003e7 	.word	0x000003e7
10001748:	10009b8c 	.word	0x10009b8c

1000174c <cyw43_set_backplane_window>:
1000174c:	6883      	ldr	r3, [r0, #8]
1000174e:	b570      	push	{r4, r5, r6, lr}
10001750:	0bcc      	lsrs	r4, r1, #15
10001752:	0005      	movs	r5, r0
10001754:	03e4      	lsls	r4, r4, #15
10001756:	42a3      	cmp	r3, r4
10001758:	d00b      	beq.n	10001772 <cyw43_set_backplane_window+0x26>
1000175a:	4063      	eors	r3, r4
1000175c:	0e1a      	lsrs	r2, r3, #24
1000175e:	d119      	bne.n	10001794 <cyw43_set_backplane_window+0x48>
10001760:	22ff      	movs	r2, #255	; 0xff
10001762:	0412      	lsls	r2, r2, #16
10001764:	4213      	tst	r3, r2
10001766:	d10c      	bne.n	10001782 <cyw43_set_backplane_window+0x36>
10001768:	22ff      	movs	r2, #255	; 0xff
1000176a:	0212      	lsls	r2, r2, #8
1000176c:	4213      	tst	r3, r2
1000176e:	d101      	bne.n	10001774 <cyw43_set_backplane_window+0x28>
10001770:	60ac      	str	r4, [r5, #8]
10001772:	bd70      	pop	{r4, r5, r6, pc}
10001774:	2101      	movs	r1, #1
10001776:	0028      	movs	r0, r5
10001778:	4a0a      	ldr	r2, [pc, #40]	; (100017a4 <cyw43_set_backplane_window+0x58>)
1000177a:	0a23      	lsrs	r3, r4, #8
1000177c:	f7ff fe48 	bl	10001410 <cyw43_write_reg_u8>
10001780:	e7f6      	b.n	10001770 <cyw43_set_backplane_window+0x24>
10001782:	0c23      	lsrs	r3, r4, #16
10001784:	2101      	movs	r1, #1
10001786:	0028      	movs	r0, r5
10001788:	4a07      	ldr	r2, [pc, #28]	; (100017a8 <cyw43_set_backplane_window+0x5c>)
1000178a:	f7ff fe41 	bl	10001410 <cyw43_write_reg_u8>
1000178e:	68ab      	ldr	r3, [r5, #8]
10001790:	4063      	eors	r3, r4
10001792:	e7e9      	b.n	10001768 <cyw43_set_backplane_window+0x1c>
10001794:	0e23      	lsrs	r3, r4, #24
10001796:	2101      	movs	r1, #1
10001798:	4a04      	ldr	r2, [pc, #16]	; (100017ac <cyw43_set_backplane_window+0x60>)
1000179a:	f7ff fe39 	bl	10001410 <cyw43_write_reg_u8>
1000179e:	68ab      	ldr	r3, [r5, #8]
100017a0:	4063      	eors	r3, r4
100017a2:	e7dd      	b.n	10001760 <cyw43_set_backplane_window+0x14>
100017a4:	0001000a 	.word	0x0001000a
100017a8:	0001000b 	.word	0x0001000b
100017ac:	0001000c 	.word	0x0001000c

100017b0 <cyw43_ll_parse_async_event>:
100017b0:	b5f0      	push	{r4, r5, r6, r7, lr}
100017b2:	46c6      	mov	lr, r8
100017b4:	3003      	adds	r0, #3
100017b6:	0883      	lsrs	r3, r0, #2
100017b8:	469c      	mov	ip, r3
100017ba:	b500      	push	{lr}
100017bc:	1e8e      	subs	r6, r1, #2
100017be:	2b00      	cmp	r3, #0
100017c0:	d01e      	beq.n	10001800 <cyw43_ll_parse_async_event+0x50>
100017c2:	000b      	movs	r3, r1
100017c4:	2207      	movs	r2, #7
100017c6:	4333      	orrs	r3, r6
100017c8:	421a      	tst	r2, r3
100017ca:	d154      	bne.n	10001876 <cyw43_ll_parse_async_event+0xc6>
100017cc:	4663      	mov	r3, ip
100017ce:	3b01      	subs	r3, #1
100017d0:	429a      	cmp	r2, r3
100017d2:	d250      	bcs.n	10001876 <cyw43_ll_parse_async_event+0xc6>
100017d4:	08c3      	lsrs	r3, r0, #3
100017d6:	4698      	mov	r8, r3
100017d8:	4642      	mov	r2, r8
100017da:	0030      	movs	r0, r6
100017dc:	000b      	movs	r3, r1
100017de:	00d2      	lsls	r2, r2, #3
100017e0:	188f      	adds	r7, r1, r2
100017e2:	cb30      	ldmia	r3!, {r4, r5}
100017e4:	c030      	stmia	r0!, {r4, r5}
100017e6:	42bb      	cmp	r3, r7
100017e8:	d1fb      	bne.n	100017e2 <cyw43_ll_parse_async_event+0x32>
100017ea:	4643      	mov	r3, r8
100017ec:	18b4      	adds	r4, r6, r2
100017ee:	005f      	lsls	r7, r3, #1
100017f0:	188b      	adds	r3, r1, r2
100017f2:	45bc      	cmp	ip, r7
100017f4:	d004      	beq.n	10001800 <cyw43_ll_parse_async_event+0x50>
100017f6:	881a      	ldrh	r2, [r3, #0]
100017f8:	885b      	ldrh	r3, [r3, #2]
100017fa:	041b      	lsls	r3, r3, #16
100017fc:	4313      	orrs	r3, r2
100017fe:	6023      	str	r3, [r4, #0]
10001800:	0008      	movs	r0, r1
10001802:	880b      	ldrh	r3, [r1, #0]
10001804:	1d8a      	adds	r2, r1, #6
10001806:	ba5b      	rev16	r3, r3
10001808:	8073      	strh	r3, [r6, #2]
1000180a:	1c8b      	adds	r3, r1, #2
1000180c:	681b      	ldr	r3, [r3, #0]
1000180e:	300a      	adds	r0, #10
10001810:	ba1b      	rev	r3, r3
10001812:	6073      	str	r3, [r6, #4]
10001814:	6812      	ldr	r2, [r2, #0]
10001816:	ba12      	rev	r2, r2
10001818:	60b2      	str	r2, [r6, #8]
1000181a:	6800      	ldr	r0, [r0, #0]
1000181c:	ba00      	rev	r0, r0
1000181e:	60f0      	str	r0, [r6, #12]
10001820:	2b45      	cmp	r3, #69	; 0x45
10001822:	d003      	beq.n	1000182c <cyw43_ll_parse_async_event+0x7c>
10001824:	0030      	movs	r0, r6
10001826:	bc80      	pop	{r7}
10001828:	46b8      	mov	r8, r7
1000182a:	bdf0      	pop	{r4, r5, r6, r7, pc}
1000182c:	2a08      	cmp	r2, #8
1000182e:	d1f9      	bne.n	10001824 <cyw43_ll_parse_async_event+0x74>
10001830:	000b      	movs	r3, r1
10001832:	000a      	movs	r2, r1
10001834:	000d      	movs	r5, r1
10001836:	32b2      	adds	r2, #178	; 0xb2
10001838:	33ae      	adds	r3, #174	; 0xae
1000183a:	6810      	ldr	r0, [r2, #0]
1000183c:	881b      	ldrh	r3, [r3, #0]
1000183e:	352e      	adds	r5, #46	; 0x2e
10001840:	692a      	ldr	r2, [r5, #16]
10001842:	181c      	adds	r4, r3, r0
10001844:	4294      	cmp	r4, r2
10001846:	d822      	bhi.n	1000188e <cyw43_ll_parse_async_event+0xde>
10001848:	313a      	adds	r1, #58	; 0x3a
1000184a:	18c9      	adds	r1, r1, r3
1000184c:	1808      	adds	r0, r1, r0
1000184e:	4281      	cmp	r1, r0
10001850:	d246      	bcs.n	100018e0 <cyw43_ll_parse_async_event+0x130>
10001852:	2700      	movs	r7, #0
10001854:	2400      	movs	r4, #0
10001856:	e004      	b.n	10001862 <cyw43_ll_parse_async_event+0xb2>
10001858:	2add      	cmp	r2, #221	; 0xdd
1000185a:	d01c      	beq.n	10001896 <cyw43_ll_parse_async_event+0xe6>
1000185c:	18c9      	adds	r1, r1, r3
1000185e:	4288      	cmp	r0, r1
10001860:	d92c      	bls.n	100018bc <cyw43_ll_parse_async_event+0x10c>
10001862:	784b      	ldrb	r3, [r1, #1]
10001864:	3302      	adds	r3, #2
10001866:	18ca      	adds	r2, r1, r3
10001868:	4290      	cmp	r0, r2
1000186a:	d3f7      	bcc.n	1000185c <cyw43_ll_parse_async_event+0xac>
1000186c:	780a      	ldrb	r2, [r1, #0]
1000186e:	2a30      	cmp	r2, #48	; 0x30
10001870:	d1f2      	bne.n	10001858 <cyw43_ll_parse_async_event+0xa8>
10001872:	000c      	movs	r4, r1
10001874:	e7f2      	b.n	1000185c <cyw43_ll_parse_async_event+0xac>
10001876:	4663      	mov	r3, ip
10001878:	0032      	movs	r2, r6
1000187a:	0098      	lsls	r0, r3, #2
1000187c:	1830      	adds	r0, r6, r0
1000187e:	8893      	ldrh	r3, [r2, #4]
10001880:	8854      	ldrh	r4, [r2, #2]
10001882:	041b      	lsls	r3, r3, #16
10001884:	4323      	orrs	r3, r4
10001886:	c208      	stmia	r2!, {r3}
10001888:	4282      	cmp	r2, r0
1000188a:	d1f8      	bne.n	1000187e <cyw43_ll_parse_async_event+0xce>
1000188c:	e7b8      	b.n	10001800 <cyw43_ll_parse_async_event+0x50>
1000188e:	2301      	movs	r3, #1
10001890:	425b      	negs	r3, r3
10001892:	60b3      	str	r3, [r6, #8]
10001894:	e7c6      	b.n	10001824 <cyw43_ll_parse_async_event+0x74>
10001896:	1c8a      	adds	r2, r1, #2
10001898:	4690      	mov	r8, r2
1000189a:	788a      	ldrb	r2, [r1, #2]
1000189c:	2a00      	cmp	r2, #0
1000189e:	d1dd      	bne.n	1000185c <cyw43_ll_parse_async_event+0xac>
100018a0:	4642      	mov	r2, r8
100018a2:	7852      	ldrb	r2, [r2, #1]
100018a4:	2a50      	cmp	r2, #80	; 0x50
100018a6:	d1d9      	bne.n	1000185c <cyw43_ll_parse_async_event+0xac>
100018a8:	4642      	mov	r2, r8
100018aa:	7892      	ldrb	r2, [r2, #2]
100018ac:	2af2      	cmp	r2, #242	; 0xf2
100018ae:	d1d5      	bne.n	1000185c <cyw43_ll_parse_async_event+0xac>
100018b0:	4642      	mov	r2, r8
100018b2:	78d2      	ldrb	r2, [r2, #3]
100018b4:	2a01      	cmp	r2, #1
100018b6:	d1d1      	bne.n	1000185c <cyw43_ll_parse_async_event+0xac>
100018b8:	000f      	movs	r7, r1
100018ba:	e7cf      	b.n	1000185c <cyw43_ll_parse_async_event+0xac>
100018bc:	1e63      	subs	r3, r4, #1
100018be:	419c      	sbcs	r4, r3
100018c0:	00a4      	lsls	r4, r4, #2
100018c2:	2f00      	cmp	r7, #0
100018c4:	d001      	beq.n	100018ca <cyw43_ll_parse_async_event+0x11a>
100018c6:	2202      	movs	r2, #2
100018c8:	4314      	orrs	r4, r2
100018ca:	8baa      	ldrh	r2, [r5, #28]
100018cc:	06d2      	lsls	r2, r2, #27
100018ce:	d501      	bpl.n	100018d4 <cyw43_ll_parse_async_event+0x124>
100018d0:	2201      	movs	r2, #1
100018d2:	4314      	orrs	r4, r2
100018d4:	2284      	movs	r2, #132	; 0x84
100018d6:	5cb1      	ldrb	r1, [r6, r2]
100018d8:	52b1      	strh	r1, [r6, r2]
100018da:	3204      	adds	r2, #4
100018dc:	54b4      	strb	r4, [r6, r2]
100018de:	e7a1      	b.n	10001824 <cyw43_ll_parse_async_event+0x74>
100018e0:	2400      	movs	r4, #0
100018e2:	e7f2      	b.n	100018ca <cyw43_ll_parse_async_event+0x11a>

100018e4 <cyw43_kso_set>:
100018e4:	b5f8      	push	{r3, r4, r5, r6, r7, lr}
100018e6:	46ce      	mov	lr, r9
100018e8:	4647      	mov	r7, r8
100018ea:	0005      	movs	r5, r0
100018ec:	4689      	mov	r9, r1
100018ee:	b580      	push	{r7, lr}
100018f0:	2900      	cmp	r1, #0
100018f2:	d032      	beq.n	1000195a <cyw43_kso_set+0x76>
100018f4:	2301      	movs	r3, #1
100018f6:	2101      	movs	r1, #1
100018f8:	4a20      	ldr	r2, [pc, #128]	; (1000197c <cyw43_kso_set+0x98>)
100018fa:	f7ff fd89 	bl	10001410 <cyw43_write_reg_u8>
100018fe:	2301      	movs	r3, #1
10001900:	2101      	movs	r1, #1
10001902:	0028      	movs	r0, r5
10001904:	4a1d      	ldr	r2, [pc, #116]	; (1000197c <cyw43_kso_set+0x98>)
10001906:	f7ff fd83 	bl	10001410 <cyw43_write_reg_u8>
1000190a:	2303      	movs	r3, #3
1000190c:	2703      	movs	r7, #3
1000190e:	4698      	mov	r8, r3
10001910:	2601      	movs	r6, #1
10001912:	2440      	movs	r4, #64	; 0x40
10001914:	e00b      	b.n	1000192e <cyw43_kso_set+0x4a>
10001916:	2001      	movs	r0, #1
10001918:	f7fe fda6 	bl	10000468 <cyw43_delay_ms>
1000191c:	3c01      	subs	r4, #1
1000191e:	0033      	movs	r3, r6
10001920:	2101      	movs	r1, #1
10001922:	0028      	movs	r0, r5
10001924:	4a15      	ldr	r2, [pc, #84]	; (1000197c <cyw43_kso_set+0x98>)
10001926:	f7ff fd73 	bl	10001410 <cyw43_write_reg_u8>
1000192a:	2c00      	cmp	r4, #0
1000192c:	d010      	beq.n	10001950 <cyw43_kso_set+0x6c>
1000192e:	2101      	movs	r1, #1
10001930:	0028      	movs	r0, r5
10001932:	4a12      	ldr	r2, [pc, #72]	; (1000197c <cyw43_kso_set+0x98>)
10001934:	f7ff fa6c 	bl	10000e10 <cyw43_read_reg_u8>
10001938:	2800      	cmp	r0, #0
1000193a:	dbec      	blt.n	10001916 <cyw43_kso_set+0x32>
1000193c:	003b      	movs	r3, r7
1000193e:	4003      	ands	r3, r0
10001940:	4543      	cmp	r3, r8
10001942:	d1e8      	bne.n	10001916 <cyw43_kso_set+0x32>
10001944:	28ff      	cmp	r0, #255	; 0xff
10001946:	d0e6      	beq.n	10001916 <cyw43_kso_set+0x32>
10001948:	bcc0      	pop	{r6, r7}
1000194a:	46b9      	mov	r9, r7
1000194c:	46b0      	mov	r8, r6
1000194e:	bdf8      	pop	{r3, r4, r5, r6, r7, pc}
10001950:	4649      	mov	r1, r9
10001952:	480b      	ldr	r0, [pc, #44]	; (10001980 <cyw43_kso_set+0x9c>)
10001954:	f005 fa66 	bl	10006e24 <__wrap_printf>
10001958:	e7f6      	b.n	10001948 <cyw43_kso_set+0x64>
1000195a:	2300      	movs	r3, #0
1000195c:	2101      	movs	r1, #1
1000195e:	4a07      	ldr	r2, [pc, #28]	; (1000197c <cyw43_kso_set+0x98>)
10001960:	f7ff fd56 	bl	10001410 <cyw43_write_reg_u8>
10001964:	2300      	movs	r3, #0
10001966:	2101      	movs	r1, #1
10001968:	0028      	movs	r0, r5
1000196a:	4a04      	ldr	r2, [pc, #16]	; (1000197c <cyw43_kso_set+0x98>)
1000196c:	f7ff fd50 	bl	10001410 <cyw43_write_reg_u8>
10001970:	2300      	movs	r3, #0
10001972:	2701      	movs	r7, #1
10001974:	4698      	mov	r8, r3
10001976:	2600      	movs	r6, #0
10001978:	e7cb      	b.n	10001912 <cyw43_kso_set+0x2e>
1000197a:	46c0      	nop			; (mov r8, r8)
1000197c:	0001001f 	.word	0x0001001f
10001980:	100099a0 	.word	0x100099a0

10001984 <cyw43_ll_sdpcm_poll_device>:
10001984:	b5f0      	push	{r4, r5, r6, r7, lr}
10001986:	46d6      	mov	lr, sl
10001988:	464f      	mov	r7, r9
1000198a:	4646      	mov	r6, r8
1000198c:	b5c0      	push	{r6, r7, lr}
1000198e:	7cc3      	ldrb	r3, [r0, #19]
10001990:	0005      	movs	r5, r0
10001992:	000f      	movs	r7, r1
10001994:	4692      	mov	sl, r2
10001996:	b082      	sub	sp, #8
10001998:	2b00      	cmp	r3, #0
1000199a:	d104      	bne.n	100019a6 <cyw43_ll_sdpcm_poll_device+0x22>
1000199c:	6800      	ldr	r0, [r0, #0]
1000199e:	f001 fc75 	bl	1000328c <cyw43_cb_read_host_interrupt_pin>
100019a2:	2800      	cmp	r0, #0
100019a4:	d065      	beq.n	10001a72 <cyw43_ll_sdpcm_poll_device+0xee>
100019a6:	0028      	movs	r0, r5
100019a8:	f001 fc76 	bl	10003298 <cyw43_cb_ensure_awake>
100019ac:	7cab      	ldrb	r3, [r5, #18]
100019ae:	2b00      	cmp	r3, #0
100019b0:	d105      	bne.n	100019be <cyw43_ll_sdpcm_poll_device+0x3a>
100019b2:	2101      	movs	r1, #1
100019b4:	0028      	movs	r0, r5
100019b6:	f7ff ff95 	bl	100018e4 <cyw43_kso_set>
100019ba:	2301      	movs	r3, #1
100019bc:	74ab      	strb	r3, [r5, #18]
100019be:	7ceb      	ldrb	r3, [r5, #19]
100019c0:	2b00      	cmp	r3, #0
100019c2:	d064      	beq.n	10001a8e <cyw43_ll_sdpcm_poll_device+0x10a>
100019c4:	24fa      	movs	r4, #250	; 0xfa
100019c6:	00a4      	lsls	r4, r4, #2
100019c8:	e002      	b.n	100019d0 <cyw43_ll_sdpcm_poll_device+0x4c>
100019ca:	3c01      	subs	r4, #1
100019cc:	2c00      	cmp	r4, #0
100019ce:	d050      	beq.n	10001a72 <cyw43_ll_sdpcm_poll_device+0xee>
100019d0:	2208      	movs	r2, #8
100019d2:	2100      	movs	r1, #0
100019d4:	0028      	movs	r0, r5
100019d6:	f7ff f9af 	bl	10000d38 <cyw43_read_reg_u32>
100019da:	1c43      	adds	r3, r0, #1
100019dc:	d0f5      	beq.n	100019ca <cyw43_ll_sdpcm_poll_device+0x46>
100019de:	05c3      	lsls	r3, r0, #23
100019e0:	d545      	bpl.n	10001a6e <cyw43_ll_sdpcm_poll_device+0xea>
100019e2:	22c0      	movs	r2, #192	; 0xc0
100019e4:	0303      	lsls	r3, r0, #12
100019e6:	0d5b      	lsrs	r3, r3, #21
100019e8:	1e59      	subs	r1, r3, #1
100019ea:	00d2      	lsls	r2, r2, #3
100019ec:	4291      	cmp	r1, r2
100019ee:	d300      	bcc.n	100019f2 <cyw43_ll_sdpcm_poll_device+0x6e>
100019f0:	e0b7      	b.n	10001b62 <cyw43_ll_sdpcm_poll_device+0x1de>
100019f2:	0780      	lsls	r0, r0, #30
100019f4:	d500      	bpl.n	100019f8 <cyw43_ll_sdpcm_poll_device+0x74>
100019f6:	e0b4      	b.n	10001b62 <cyw43_ll_sdpcm_poll_device+0x1de>
100019f8:	002c      	movs	r4, r5
100019fa:	341c      	adds	r4, #28
100019fc:	2200      	movs	r2, #0
100019fe:	2102      	movs	r1, #2
10001a00:	0028      	movs	r0, r5
10001a02:	9400      	str	r4, [sp, #0]
10001a04:	f7ff fdf8 	bl	100015f8 <cyw43_read_bytes>
10001a08:	2800      	cmp	r0, #0
10001a0a:	d128      	bne.n	10001a5e <cyw43_ll_sdpcm_poll_device+0xda>
10001a0c:	8ba9      	ldrh	r1, [r5, #28]
10001a0e:	8bea      	ldrh	r2, [r5, #30]
10001a10:	2900      	cmp	r1, #0
10001a12:	d02a      	beq.n	10001a6a <cyw43_ll_sdpcm_poll_device+0xe6>
10001a14:	2301      	movs	r3, #1
10001a16:	74eb      	strb	r3, [r5, #19]
10001a18:	4b66      	ldr	r3, [pc, #408]	; (10001bb4 <cyw43_ll_sdpcm_poll_device+0x230>)
10001a1a:	469c      	mov	ip, r3
10001a1c:	000b      	movs	r3, r1
10001a1e:	4053      	eors	r3, r2
10001a20:	4563      	cmp	r3, ip
10001a22:	d000      	beq.n	10001a26 <cyw43_ll_sdpcm_poll_device+0xa2>
10001a24:	e0a4      	b.n	10001b70 <cyw43_ll_sdpcm_poll_device+0x1ec>
10001a26:	43d2      	mvns	r2, r2
10001a28:	b292      	uxth	r2, r2
10001a2a:	4291      	cmp	r1, r2
10001a2c:	d000      	beq.n	10001a30 <cyw43_ll_sdpcm_poll_device+0xac>
10001a2e:	e0a5      	b.n	10001b7c <cyw43_ll_sdpcm_poll_device+0x1f8>
10001a30:	290b      	cmp	r1, #11
10001a32:	d800      	bhi.n	10001a36 <cyw43_ll_sdpcm_poll_device+0xb2>
10001a34:	e0a8      	b.n	10001b88 <cyw43_ll_sdpcm_poll_device+0x204>
10001a36:	2324      	movs	r3, #36	; 0x24
10001a38:	5ceb      	ldrb	r3, [r5, r3]
10001a3a:	73ab      	strb	r3, [r5, #14]
10001a3c:	2321      	movs	r3, #33	; 0x21
10001a3e:	5cea      	ldrb	r2, [r5, r3]
10001a40:	3b12      	subs	r3, #18
10001a42:	4013      	ands	r3, r2
10001a44:	2b02      	cmp	r3, #2
10001a46:	d917      	bls.n	10001a78 <cyw43_ll_sdpcm_poll_device+0xf4>
10001a48:	290c      	cmp	r1, #12
10001a4a:	d100      	bne.n	10001a4e <cyw43_ll_sdpcm_poll_device+0xca>
10001a4c:	e0a8      	b.n	10001ba0 <cyw43_ll_sdpcm_poll_device+0x21c>
10001a4e:	2b01      	cmp	r3, #1
10001a50:	d05b      	beq.n	10001b0a <cyw43_ll_sdpcm_poll_device+0x186>
10001a52:	2b02      	cmp	r3, #2
10001a54:	d036      	beq.n	10001ac4 <cyw43_ll_sdpcm_poll_device+0x140>
10001a56:	2b00      	cmp	r3, #0
10001a58:	d047      	beq.n	10001aea <cyw43_ll_sdpcm_poll_device+0x166>
10001a5a:	200b      	movs	r0, #11
10001a5c:	4240      	negs	r0, r0
10001a5e:	b002      	add	sp, #8
10001a60:	bce0      	pop	{r5, r6, r7}
10001a62:	46ba      	mov	sl, r7
10001a64:	46b1      	mov	r9, r6
10001a66:	46a8      	mov	r8, r5
10001a68:	bdf0      	pop	{r4, r5, r6, r7, pc}
10001a6a:	2a00      	cmp	r2, #0
10001a6c:	d1d2      	bne.n	10001a14 <cyw43_ll_sdpcm_poll_device+0x90>
10001a6e:	2300      	movs	r3, #0
10001a70:	74eb      	strb	r3, [r5, #19]
10001a72:	2001      	movs	r0, #1
10001a74:	4240      	negs	r0, r0
10001a76:	e7f2      	b.n	10001a5e <cyw43_ll_sdpcm_poll_device+0xda>
10001a78:	2225      	movs	r2, #37	; 0x25
10001a7a:	5caa      	ldrb	r2, [r5, r2]
10001a7c:	4694      	mov	ip, r2
10001a7e:	4666      	mov	r6, ip
10001a80:	7b6a      	ldrb	r2, [r5, #13]
10001a82:	1ab2      	subs	r2, r6, r2
10001a84:	b2d2      	uxtb	r2, r2
10001a86:	2a14      	cmp	r2, #20
10001a88:	d8de      	bhi.n	10001a48 <cyw43_ll_sdpcm_poll_device+0xc4>
10001a8a:	736e      	strb	r6, [r5, #13]
10001a8c:	e7dc      	b.n	10001a48 <cyw43_ll_sdpcm_poll_device+0xc4>
10001a8e:	2204      	movs	r2, #4
10001a90:	2100      	movs	r1, #0
10001a92:	0028      	movs	r0, r5
10001a94:	f7ff f986 	bl	10000da4 <cyw43_read_reg_u16>
10001a98:	b283      	uxth	r3, r0
10001a9a:	4698      	mov	r8, r3
10001a9c:	4b46      	ldr	r3, [pc, #280]	; (10001bb8 <cyw43_ll_sdpcm_poll_device+0x234>)
10001a9e:	0400      	lsls	r0, r0, #16
10001aa0:	4699      	mov	r9, r3
10001aa2:	881b      	ldrh	r3, [r3, #0]
10001aa4:	0c04      	lsrs	r4, r0, #16
10001aa6:	4543      	cmp	r3, r8
10001aa8:	d002      	beq.n	10001ab0 <cyw43_ll_sdpcm_poll_device+0x12c>
10001aaa:	2386      	movs	r3, #134	; 0x86
10001aac:	4223      	tst	r3, r4
10001aae:	d14d      	bne.n	10001b4c <cyw43_ll_sdpcm_poll_device+0x1c8>
10001ab0:	4643      	mov	r3, r8
10001ab2:	2b00      	cmp	r3, #0
10001ab4:	d14f      	bne.n	10001b56 <cyw43_ll_sdpcm_poll_device+0x1d2>
10001ab6:	464b      	mov	r3, r9
10001ab8:	4642      	mov	r2, r8
10001aba:	801a      	strh	r2, [r3, #0]
10001abc:	06a4      	lsls	r4, r4, #26
10001abe:	d500      	bpl.n	10001ac2 <cyw43_ll_sdpcm_poll_device+0x13e>
10001ac0:	e780      	b.n	100019c4 <cyw43_ll_sdpcm_poll_device+0x40>
10001ac2:	e7d6      	b.n	10001a72 <cyw43_ll_sdpcm_poll_device+0xee>
10001ac4:	2910      	cmp	r1, #16
10001ac6:	d968      	bls.n	10001b9a <cyw43_ll_sdpcm_poll_device+0x216>
10001ac8:	2323      	movs	r3, #35	; 0x23
10001aca:	5cea      	ldrb	r2, [r5, r3]
10001acc:	2002      	movs	r0, #2
10001ace:	18a2      	adds	r2, r4, r2
10001ad0:	78d3      	ldrb	r3, [r2, #3]
10001ad2:	009b      	lsls	r3, r3, #2
10001ad4:	3304      	adds	r3, #4
10001ad6:	18d3      	adds	r3, r2, r3
10001ad8:	7892      	ldrb	r2, [r2, #2]
10001ada:	1b1c      	subs	r4, r3, r4
10001adc:	07d2      	lsls	r2, r2, #31
10001ade:	1b0c      	subs	r4, r1, r4
10001ae0:	4314      	orrs	r4, r2
10001ae2:	4652      	mov	r2, sl
10001ae4:	603c      	str	r4, [r7, #0]
10001ae6:	6013      	str	r3, [r2, #0]
10001ae8:	e7b9      	b.n	10001a5e <cyw43_ll_sdpcm_poll_device+0xda>
10001aea:	291b      	cmp	r1, #27
10001aec:	d95e      	bls.n	10001bac <cyw43_ll_sdpcm_poll_device+0x228>
10001aee:	3323      	adds	r3, #35	; 0x23
10001af0:	5ceb      	ldrb	r3, [r5, r3]
10001af2:	8a2d      	ldrh	r5, [r5, #16]
10001af4:	18e3      	adds	r3, r4, r3
10001af6:	895a      	ldrh	r2, [r3, #10]
10001af8:	4295      	cmp	r5, r2
10001afa:	d14b      	bne.n	10001b94 <cyw43_ll_sdpcm_poll_device+0x210>
10001afc:	4652      	mov	r2, sl
10001afe:	3310      	adds	r3, #16
10001b00:	1b1c      	subs	r4, r3, r4
10001b02:	1b0c      	subs	r4, r1, r4
10001b04:	603c      	str	r4, [r7, #0]
10001b06:	6013      	str	r3, [r2, #0]
10001b08:	e7a9      	b.n	10001a5e <cyw43_ll_sdpcm_poll_device+0xda>
10001b0a:	2910      	cmp	r1, #16
10001b0c:	d94b      	bls.n	10001ba6 <cyw43_ll_sdpcm_poll_device+0x222>
10001b0e:	2323      	movs	r3, #35	; 0x23
10001b10:	5ceb      	ldrb	r3, [r5, r3]
10001b12:	18e3      	adds	r3, r4, r3
10001b14:	78da      	ldrb	r2, [r3, #3]
10001b16:	0092      	lsls	r2, r2, #2
10001b18:	3204      	adds	r2, #4
10001b1a:	189b      	adds	r3, r3, r2
10001b1c:	7b1a      	ldrb	r2, [r3, #12]
10001b1e:	1b1c      	subs	r4, r3, r4
10001b20:	1b09      	subs	r1, r1, r4
10001b22:	2a88      	cmp	r2, #136	; 0x88
10001b24:	d133      	bne.n	10001b8e <cyw43_ll_sdpcm_poll_device+0x20a>
10001b26:	7b5a      	ldrb	r2, [r3, #13]
10001b28:	2a6c      	cmp	r2, #108	; 0x6c
10001b2a:	d130      	bne.n	10001b8e <cyw43_ll_sdpcm_poll_device+0x20a>
10001b2c:	7cda      	ldrb	r2, [r3, #19]
10001b2e:	2a00      	cmp	r2, #0
10001b30:	d127      	bne.n	10001b82 <cyw43_ll_sdpcm_poll_device+0x1fe>
10001b32:	7d1a      	ldrb	r2, [r3, #20]
10001b34:	2a10      	cmp	r2, #16
10001b36:	d124      	bne.n	10001b82 <cyw43_ll_sdpcm_poll_device+0x1fe>
10001b38:	7d5a      	ldrb	r2, [r3, #21]
10001b3a:	2a18      	cmp	r2, #24
10001b3c:	d121      	bne.n	10001b82 <cyw43_ll_sdpcm_poll_device+0x1fe>
10001b3e:	4652      	mov	r2, sl
10001b40:	3918      	subs	r1, #24
10001b42:	3318      	adds	r3, #24
10001b44:	6039      	str	r1, [r7, #0]
10001b46:	2001      	movs	r0, #1
10001b48:	6013      	str	r3, [r2, #0]
10001b4a:	e788      	b.n	10001a5e <cyw43_ll_sdpcm_poll_device+0xda>
10001b4c:	0021      	movs	r1, r4
10001b4e:	481b      	ldr	r0, [pc, #108]	; (10001bbc <cyw43_ll_sdpcm_poll_device+0x238>)
10001b50:	f005 f968 	bl	10006e24 <__wrap_printf>
10001b54:	e7ac      	b.n	10001ab0 <cyw43_ll_sdpcm_poll_device+0x12c>
10001b56:	2204      	movs	r2, #4
10001b58:	2100      	movs	r1, #0
10001b5a:	0028      	movs	r0, r5
10001b5c:	f7ff fb64 	bl	10001228 <cyw43_write_reg_u16>
10001b60:	e7a9      	b.n	10001ab6 <cyw43_ll_sdpcm_poll_device+0x132>
10001b62:	2301      	movs	r3, #1
10001b64:	2101      	movs	r1, #1
10001b66:	0028      	movs	r0, r5
10001b68:	4a15      	ldr	r2, [pc, #84]	; (10001bc0 <cyw43_ll_sdpcm_poll_device+0x23c>)
10001b6a:	f7ff fc51 	bl	10001410 <cyw43_write_reg_u8>
10001b6e:	e77e      	b.n	10001a6e <cyw43_ll_sdpcm_poll_device+0xea>
10001b70:	4814      	ldr	r0, [pc, #80]	; (10001bc4 <cyw43_ll_sdpcm_poll_device+0x240>)
10001b72:	f005 f957 	bl	10006e24 <__wrap_printf>
10001b76:	2001      	movs	r0, #1
10001b78:	4240      	negs	r0, r0
10001b7a:	e770      	b.n	10001a5e <cyw43_ll_sdpcm_poll_device+0xda>
10001b7c:	2002      	movs	r0, #2
10001b7e:	4240      	negs	r0, r0
10001b80:	e76d      	b.n	10001a5e <cyw43_ll_sdpcm_poll_device+0xda>
10001b82:	200a      	movs	r0, #10
10001b84:	4240      	negs	r0, r0
10001b86:	e76a      	b.n	10001a5e <cyw43_ll_sdpcm_poll_device+0xda>
10001b88:	2003      	movs	r0, #3
10001b8a:	4240      	negs	r0, r0
10001b8c:	e767      	b.n	10001a5e <cyw43_ll_sdpcm_poll_device+0xda>
10001b8e:	2009      	movs	r0, #9
10001b90:	4240      	negs	r0, r0
10001b92:	e764      	b.n	10001a5e <cyw43_ll_sdpcm_poll_device+0xda>
10001b94:	2006      	movs	r0, #6
10001b96:	4240      	negs	r0, r0
10001b98:	e761      	b.n	10001a5e <cyw43_ll_sdpcm_poll_device+0xda>
10001b9a:	2007      	movs	r0, #7
10001b9c:	4240      	negs	r0, r0
10001b9e:	e75e      	b.n	10001a5e <cyw43_ll_sdpcm_poll_device+0xda>
10001ba0:	2004      	movs	r0, #4
10001ba2:	4240      	negs	r0, r0
10001ba4:	e75b      	b.n	10001a5e <cyw43_ll_sdpcm_poll_device+0xda>
10001ba6:	2008      	movs	r0, #8
10001ba8:	4240      	negs	r0, r0
10001baa:	e758      	b.n	10001a5e <cyw43_ll_sdpcm_poll_device+0xda>
10001bac:	2005      	movs	r0, #5
10001bae:	4240      	negs	r0, r0
10001bb0:	e755      	b.n	10001a5e <cyw43_ll_sdpcm_poll_device+0xda>
10001bb2:	46c0      	nop			; (mov r8, r8)
10001bb4:	0000ffff 	.word	0x0000ffff
10001bb8:	2000adfc 	.word	0x2000adfc
10001bbc:	100099c4 	.word	0x100099c4
10001bc0:	0001000d 	.word	0x0001000d
10001bc4:	100099f0 	.word	0x100099f0

10001bc8 <cyw43_sdpcm_send_common>:
10001bc8:	b5f0      	push	{r4, r5, r6, r7, lr}
10001bca:	46de      	mov	lr, fp
10001bcc:	4657      	mov	r7, sl
10001bce:	464e      	mov	r6, r9
10001bd0:	4645      	mov	r5, r8
10001bd2:	0004      	movs	r4, r0
10001bd4:	b5e0      	push	{r5, r6, r7, lr}
10001bd6:	b085      	sub	sp, #20
10001bd8:	469a      	mov	sl, r3
10001bda:	4689      	mov	r9, r1
10001bdc:	4693      	mov	fp, r2
10001bde:	f001 fb5b 	bl	10003298 <cyw43_cb_ensure_awake>
10001be2:	7ca3      	ldrb	r3, [r4, #18]
10001be4:	2b00      	cmp	r3, #0
10001be6:	d105      	bne.n	10001bf4 <cyw43_sdpcm_send_common+0x2c>
10001be8:	2101      	movs	r1, #1
10001bea:	0020      	movs	r0, r4
10001bec:	f7ff fe7a 	bl	100018e4 <cyw43_kso_set>
10001bf0:	2301      	movs	r3, #1
10001bf2:	74a3      	strb	r3, [r4, #18]
10001bf4:	7ba3      	ldrb	r3, [r4, #14]
10001bf6:	2b00      	cmp	r3, #0
10001bf8:	d024      	beq.n	10001c44 <cyw43_sdpcm_send_common+0x7c>
10001bfa:	4e2b      	ldr	r6, [pc, #172]	; (10001ca8 <cyw43_sdpcm_send_common+0xe0>)
10001bfc:	4f2b      	ldr	r7, [pc, #172]	; (10001cac <cyw43_sdpcm_send_common+0xe4>)
10001bfe:	6ab3      	ldr	r3, [r6, #40]	; 0x28
10001c00:	4698      	mov	r8, r3
10001c02:	e00e      	b.n	10001c22 <cyw43_sdpcm_send_common+0x5a>
10001c04:	7ba1      	ldrb	r1, [r4, #14]
10001c06:	2900      	cmp	r1, #0
10001c08:	d103      	bne.n	10001c12 <cyw43_sdpcm_send_common+0x4a>
10001c0a:	7b22      	ldrb	r2, [r4, #12]
10001c0c:	7b63      	ldrb	r3, [r4, #13]
10001c0e:	4293      	cmp	r3, r2
10001c10:	d11c      	bne.n	10001c4c <cyw43_sdpcm_send_common+0x84>
10001c12:	4643      	mov	r3, r8
10001c14:	1aed      	subs	r5, r5, r3
10001c16:	42bd      	cmp	r5, r7
10001c18:	d83e      	bhi.n	10001c98 <cyw43_sdpcm_send_common+0xd0>
10001c1a:	20fa      	movs	r0, #250	; 0xfa
10001c1c:	0080      	lsls	r0, r0, #2
10001c1e:	f7fe fba9 	bl	10000374 <cyw43_await_background_or_timeout_us>
10001c22:	0020      	movs	r0, r4
10001c24:	aa03      	add	r2, sp, #12
10001c26:	a902      	add	r1, sp, #8
10001c28:	6ab5      	ldr	r5, [r6, #40]	; 0x28
10001c2a:	f7ff feab 	bl	10001984 <cyw43_ll_sdpcm_poll_device>
10001c2e:	2801      	cmp	r0, #1
10001c30:	d1e8      	bne.n	10001c04 <cyw43_sdpcm_send_common+0x3c>
10001c32:	9903      	ldr	r1, [sp, #12]
10001c34:	9802      	ldr	r0, [sp, #8]
10001c36:	f7ff fdbb 	bl	100017b0 <cyw43_ll_parse_async_event>
10001c3a:	0001      	movs	r1, r0
10001c3c:	0020      	movs	r0, r4
10001c3e:	f001 fb31 	bl	100032a4 <cyw43_cb_process_async_event>
10001c42:	e7df      	b.n	10001c04 <cyw43_sdpcm_send_common+0x3c>
10001c44:	7b22      	ldrb	r2, [r4, #12]
10001c46:	7b63      	ldrb	r3, [r4, #13]
10001c48:	4293      	cmp	r3, r2
10001c4a:	d0d6      	beq.n	10001bfa <cyw43_sdpcm_send_common+0x32>
10001c4c:	465b      	mov	r3, fp
10001c4e:	4650      	mov	r0, sl
10001c50:	330c      	adds	r3, #12
10001c52:	b299      	uxth	r1, r3
10001c54:	8001      	strh	r1, [r0, #0]
10001c56:	43c9      	mvns	r1, r1
10001c58:	7102      	strb	r2, [r0, #4]
10001c5a:	8041      	strh	r1, [r0, #2]
10001c5c:	4651      	mov	r1, sl
10001c5e:	4648      	mov	r0, r9
10001c60:	7148      	strb	r0, [r1, #5]
10001c62:	2000      	movs	r0, #0
10001c64:	7188      	strb	r0, [r1, #6]
10001c66:	4649      	mov	r1, r9
10001c68:	3902      	subs	r1, #2
10001c6a:	424d      	negs	r5, r1
10001c6c:	4169      	adcs	r1, r5
10001c6e:	4655      	mov	r5, sl
10001c70:	0049      	lsls	r1, r1, #1
10001c72:	310c      	adds	r1, #12
10001c74:	3201      	adds	r2, #1
10001c76:	71e9      	strb	r1, [r5, #7]
10001c78:	8128      	strh	r0, [r5, #8]
10001c7a:	8168      	strh	r0, [r5, #10]
10001c7c:	2102      	movs	r1, #2
10001c7e:	7322      	strb	r2, [r4, #12]
10001c80:	0020      	movs	r0, r4
10001c82:	2200      	movs	r2, #0
10001c84:	9500      	str	r5, [sp, #0]
10001c86:	f7ff fcf5 	bl	10001674 <cyw43_write_bytes>
10001c8a:	b005      	add	sp, #20
10001c8c:	bcf0      	pop	{r4, r5, r6, r7}
10001c8e:	46bb      	mov	fp, r7
10001c90:	46b2      	mov	sl, r6
10001c92:	46a9      	mov	r9, r5
10001c94:	46a0      	mov	r8, r4
10001c96:	bdf0      	pop	{r4, r5, r6, r7, pc}
10001c98:	7b63      	ldrb	r3, [r4, #13]
10001c9a:	7b22      	ldrb	r2, [r4, #12]
10001c9c:	4804      	ldr	r0, [pc, #16]	; (10001cb0 <cyw43_sdpcm_send_common+0xe8>)
10001c9e:	f005 f8c1 	bl	10006e24 <__wrap_printf>
10001ca2:	2001      	movs	r0, #1
10001ca4:	4240      	negs	r0, r0
10001ca6:	e7f0      	b.n	10001c8a <cyw43_sdpcm_send_common+0xc2>
10001ca8:	40054000 	.word	0x40054000
10001cac:	000f4240 	.word	0x000f4240
10001cb0:	10009a1c 	.word	0x10009a1c

10001cb4 <cyw43_do_ioctl>:
10001cb4:	b5f0      	push	{r4, r5, r6, r7, lr}
10001cb6:	4645      	mov	r5, r8
10001cb8:	4657      	mov	r7, sl
10001cba:	464e      	mov	r6, r9
10001cbc:	46de      	mov	lr, fp
10001cbe:	4692      	mov	sl, r2
10001cc0:	001a      	movs	r2, r3
10001cc2:	4698      	mov	r8, r3
10001cc4:	2380      	movs	r3, #128	; 0x80
10001cc6:	b5e0      	push	{r5, r6, r7, lr}
10001cc8:	321c      	adds	r2, #28
10001cca:	0005      	movs	r5, r0
10001ccc:	4689      	mov	r9, r1
10001cce:	b083      	sub	sp, #12
10001cd0:	011b      	lsls	r3, r3, #4
10001cd2:	429a      	cmp	r2, r3
10001cd4:	d81e      	bhi.n	10001d14 <cyw43_do_ioctl+0x60>
10001cd6:	4652      	mov	r2, sl
10001cd8:	6282      	str	r2, [r0, #40]	; 0x28
10001cda:	4642      	mov	r2, r8
10001cdc:	0412      	lsls	r2, r2, #16
10001cde:	8a03      	ldrh	r3, [r0, #16]
10001ce0:	0c12      	lsrs	r2, r2, #16
10001ce2:	62c2      	str	r2, [r0, #44]	; 0x2c
10001ce4:	9a0d      	ldr	r2, [sp, #52]	; 0x34
10001ce6:	3301      	adds	r3, #1
10001ce8:	b29b      	uxth	r3, r3
10001cea:	0312      	lsls	r2, r2, #12
10001cec:	8203      	strh	r3, [r0, #16]
10001cee:	430a      	orrs	r2, r1
10001cf0:	041b      	lsls	r3, r3, #16
10001cf2:	4313      	orrs	r3, r2
10001cf4:	6303      	str	r3, [r0, #48]	; 0x30
10001cf6:	2300      	movs	r3, #0
10001cf8:	4642      	mov	r2, r8
10001cfa:	6343      	str	r3, [r0, #52]	; 0x34
10001cfc:	990c      	ldr	r1, [sp, #48]	; 0x30
10001cfe:	3038      	adds	r0, #56	; 0x38
10001d00:	f004 fe88 	bl	10006a14 <__wrap___aeabi_memcpy>
10001d04:	002b      	movs	r3, r5
10001d06:	4642      	mov	r2, r8
10001d08:	2100      	movs	r1, #0
10001d0a:	0028      	movs	r0, r5
10001d0c:	331c      	adds	r3, #28
10001d0e:	3210      	adds	r2, #16
10001d10:	f7ff ff5a 	bl	10001bc8 <cyw43_sdpcm_send_common>
10001d14:	4e27      	ldr	r6, [pc, #156]	; (10001db4 <cyw43_do_ioctl+0x100>)
10001d16:	4a28      	ldr	r2, [pc, #160]	; (10001db8 <cyw43_do_ioctl+0x104>)
10001d18:	6ab7      	ldr	r7, [r6, #40]	; 0x28
10001d1a:	6ab3      	ldr	r3, [r6, #40]	; 0x28
10001d1c:	1bdb      	subs	r3, r3, r7
10001d1e:	4293      	cmp	r3, r2
10001d20:	d82e      	bhi.n	10001d80 <cyw43_do_ioctl+0xcc>
10001d22:	4b26      	ldr	r3, [pc, #152]	; (10001dbc <cyw43_do_ioctl+0x108>)
10001d24:	469b      	mov	fp, r3
10001d26:	e010      	b.n	10001d4a <cyw43_do_ioctl+0x96>
10001d28:	2802      	cmp	r0, #2
10001d2a:	d020      	beq.n	10001d6e <cyw43_do_ioctl+0xba>
10001d2c:	2800      	cmp	r0, #0
10001d2e:	db03      	blt.n	10001d38 <cyw43_do_ioctl+0x84>
10001d30:	0001      	movs	r1, r0
10001d32:	4658      	mov	r0, fp
10001d34:	f005 f876 	bl	10006e24 <__wrap_printf>
10001d38:	20fa      	movs	r0, #250	; 0xfa
10001d3a:	0080      	lsls	r0, r0, #2
10001d3c:	f7fe fb1a 	bl	10000374 <cyw43_await_background_or_timeout_us>
10001d40:	6ab3      	ldr	r3, [r6, #40]	; 0x28
10001d42:	4a1d      	ldr	r2, [pc, #116]	; (10001db8 <cyw43_do_ioctl+0x104>)
10001d44:	1bdb      	subs	r3, r3, r7
10001d46:	4293      	cmp	r3, r2
10001d48:	d81a      	bhi.n	10001d80 <cyw43_do_ioctl+0xcc>
10001d4a:	4669      	mov	r1, sp
10001d4c:	0028      	movs	r0, r5
10001d4e:	aa01      	add	r2, sp, #4
10001d50:	f7ff fe18 	bl	10001984 <cyw43_ll_sdpcm_poll_device>
10001d54:	1e04      	subs	r4, r0, #0
10001d56:	d023      	beq.n	10001da0 <cyw43_do_ioctl+0xec>
10001d58:	2801      	cmp	r0, #1
10001d5a:	d1e5      	bne.n	10001d28 <cyw43_do_ioctl+0x74>
10001d5c:	9901      	ldr	r1, [sp, #4]
10001d5e:	9800      	ldr	r0, [sp, #0]
10001d60:	f7ff fd26 	bl	100017b0 <cyw43_ll_parse_async_event>
10001d64:	0001      	movs	r1, r0
10001d66:	0028      	movs	r0, r5
10001d68:	f001 fa9c 	bl	100032a4 <cyw43_cb_process_async_event>
10001d6c:	e7e4      	b.n	10001d38 <cyw43_do_ioctl+0x84>
10001d6e:	9900      	ldr	r1, [sp, #0]
10001d70:	9b01      	ldr	r3, [sp, #4]
10001d72:	004a      	lsls	r2, r1, #1
10001d74:	6828      	ldr	r0, [r5, #0]
10001d76:	0852      	lsrs	r2, r2, #1
10001d78:	0fc9      	lsrs	r1, r1, #31
10001d7a:	f001 f9db 	bl	10003134 <cyw43_cb_process_ethernet>
10001d7e:	e7db      	b.n	10001d38 <cyw43_do_ioctl+0x84>
10001d80:	4643      	mov	r3, r8
10001d82:	4652      	mov	r2, sl
10001d84:	4649      	mov	r1, r9
10001d86:	2401      	movs	r4, #1
10001d88:	480d      	ldr	r0, [pc, #52]	; (10001dc0 <cyw43_do_ioctl+0x10c>)
10001d8a:	f005 f84b 	bl	10006e24 <__wrap_printf>
10001d8e:	4264      	negs	r4, r4
10001d90:	0020      	movs	r0, r4
10001d92:	b003      	add	sp, #12
10001d94:	bcf0      	pop	{r4, r5, r6, r7}
10001d96:	46bb      	mov	fp, r7
10001d98:	46b2      	mov	sl, r6
10001d9a:	46a9      	mov	r9, r5
10001d9c:	46a0      	mov	r8, r4
10001d9e:	bdf0      	pop	{r4, r5, r6, r7, pc}
10001da0:	9a00      	ldr	r2, [sp, #0]
10001da2:	4542      	cmp	r2, r8
10001da4:	d900      	bls.n	10001da8 <cyw43_do_ioctl+0xf4>
10001da6:	4642      	mov	r2, r8
10001da8:	9901      	ldr	r1, [sp, #4]
10001daa:	980c      	ldr	r0, [sp, #48]	; 0x30
10001dac:	f007 fcd8 	bl	10009760 <memmove>
10001db0:	e7ee      	b.n	10001d90 <cyw43_do_ioctl+0xdc>
10001db2:	46c0      	nop			; (mov r8, r8)
10001db4:	40054000 	.word	0x40054000
10001db8:	000f423f 	.word	0x000f423f
10001dbc:	10009a40 	.word	0x10009a40
10001dc0:	10009a6c 	.word	0x10009a6c

10001dc4 <cyw43_do_ioctl.constprop.0>:
10001dc4:	b5f0      	push	{r4, r5, r6, r7, lr}
10001dc6:	4645      	mov	r5, r8
10001dc8:	4657      	mov	r7, sl
10001dca:	464e      	mov	r6, r9
10001dcc:	46de      	mov	lr, fp
10001dce:	4692      	mov	sl, r2
10001dd0:	001a      	movs	r2, r3
10001dd2:	4698      	mov	r8, r3
10001dd4:	2380      	movs	r3, #128	; 0x80
10001dd6:	b5e0      	push	{r5, r6, r7, lr}
10001dd8:	321c      	adds	r2, #28
10001dda:	0005      	movs	r5, r0
10001ddc:	4689      	mov	r9, r1
10001dde:	b083      	sub	sp, #12
10001de0:	011b      	lsls	r3, r3, #4
10001de2:	429a      	cmp	r2, r3
10001de4:	d81b      	bhi.n	10001e1e <cyw43_do_ioctl.constprop.0+0x5a>
10001de6:	4652      	mov	r2, sl
10001de8:	8a03      	ldrh	r3, [r0, #16]
10001dea:	6282      	str	r2, [r0, #40]	; 0x28
10001dec:	3301      	adds	r3, #1
10001dee:	b29b      	uxth	r3, r3
10001df0:	8203      	strh	r3, [r0, #16]
10001df2:	4642      	mov	r2, r8
10001df4:	041b      	lsls	r3, r3, #16
10001df6:	430b      	orrs	r3, r1
10001df8:	6303      	str	r3, [r0, #48]	; 0x30
10001dfa:	2300      	movs	r3, #0
10001dfc:	0412      	lsls	r2, r2, #16
10001dfe:	0c12      	lsrs	r2, r2, #16
10001e00:	62c2      	str	r2, [r0, #44]	; 0x2c
10001e02:	6343      	str	r3, [r0, #52]	; 0x34
10001e04:	4642      	mov	r2, r8
10001e06:	990c      	ldr	r1, [sp, #48]	; 0x30
10001e08:	3038      	adds	r0, #56	; 0x38
10001e0a:	f004 fe03 	bl	10006a14 <__wrap___aeabi_memcpy>
10001e0e:	002b      	movs	r3, r5
10001e10:	4642      	mov	r2, r8
10001e12:	2100      	movs	r1, #0
10001e14:	0028      	movs	r0, r5
10001e16:	331c      	adds	r3, #28
10001e18:	3210      	adds	r2, #16
10001e1a:	f7ff fed5 	bl	10001bc8 <cyw43_sdpcm_send_common>
10001e1e:	4e27      	ldr	r6, [pc, #156]	; (10001ebc <cyw43_do_ioctl.constprop.0+0xf8>)
10001e20:	4a27      	ldr	r2, [pc, #156]	; (10001ec0 <cyw43_do_ioctl.constprop.0+0xfc>)
10001e22:	6ab7      	ldr	r7, [r6, #40]	; 0x28
10001e24:	6ab3      	ldr	r3, [r6, #40]	; 0x28
10001e26:	1bdb      	subs	r3, r3, r7
10001e28:	4293      	cmp	r3, r2
10001e2a:	d82e      	bhi.n	10001e8a <cyw43_do_ioctl.constprop.0+0xc6>
10001e2c:	4b25      	ldr	r3, [pc, #148]	; (10001ec4 <cyw43_do_ioctl.constprop.0+0x100>)
10001e2e:	469b      	mov	fp, r3
10001e30:	e010      	b.n	10001e54 <cyw43_do_ioctl.constprop.0+0x90>
10001e32:	2802      	cmp	r0, #2
10001e34:	d020      	beq.n	10001e78 <cyw43_do_ioctl.constprop.0+0xb4>
10001e36:	2800      	cmp	r0, #0
10001e38:	db03      	blt.n	10001e42 <cyw43_do_ioctl.constprop.0+0x7e>
10001e3a:	0001      	movs	r1, r0
10001e3c:	4658      	mov	r0, fp
10001e3e:	f004 fff1 	bl	10006e24 <__wrap_printf>
10001e42:	20fa      	movs	r0, #250	; 0xfa
10001e44:	0080      	lsls	r0, r0, #2
10001e46:	f7fe fa95 	bl	10000374 <cyw43_await_background_or_timeout_us>
10001e4a:	6ab3      	ldr	r3, [r6, #40]	; 0x28
10001e4c:	4a1c      	ldr	r2, [pc, #112]	; (10001ec0 <cyw43_do_ioctl.constprop.0+0xfc>)
10001e4e:	1bdb      	subs	r3, r3, r7
10001e50:	4293      	cmp	r3, r2
10001e52:	d81a      	bhi.n	10001e8a <cyw43_do_ioctl.constprop.0+0xc6>
10001e54:	4669      	mov	r1, sp
10001e56:	0028      	movs	r0, r5
10001e58:	aa01      	add	r2, sp, #4
10001e5a:	f7ff fd93 	bl	10001984 <cyw43_ll_sdpcm_poll_device>
10001e5e:	1e04      	subs	r4, r0, #0
10001e60:	d023      	beq.n	10001eaa <cyw43_do_ioctl.constprop.0+0xe6>
10001e62:	2801      	cmp	r0, #1
10001e64:	d1e5      	bne.n	10001e32 <cyw43_do_ioctl.constprop.0+0x6e>
10001e66:	9901      	ldr	r1, [sp, #4]
10001e68:	9800      	ldr	r0, [sp, #0]
10001e6a:	f7ff fca1 	bl	100017b0 <cyw43_ll_parse_async_event>
10001e6e:	0001      	movs	r1, r0
10001e70:	0028      	movs	r0, r5
10001e72:	f001 fa17 	bl	100032a4 <cyw43_cb_process_async_event>
10001e76:	e7e4      	b.n	10001e42 <cyw43_do_ioctl.constprop.0+0x7e>
10001e78:	9900      	ldr	r1, [sp, #0]
10001e7a:	9b01      	ldr	r3, [sp, #4]
10001e7c:	004a      	lsls	r2, r1, #1
10001e7e:	6828      	ldr	r0, [r5, #0]
10001e80:	0852      	lsrs	r2, r2, #1
10001e82:	0fc9      	lsrs	r1, r1, #31
10001e84:	f001 f956 	bl	10003134 <cyw43_cb_process_ethernet>
10001e88:	e7db      	b.n	10001e42 <cyw43_do_ioctl.constprop.0+0x7e>
10001e8a:	4643      	mov	r3, r8
10001e8c:	4652      	mov	r2, sl
10001e8e:	4649      	mov	r1, r9
10001e90:	2401      	movs	r4, #1
10001e92:	480d      	ldr	r0, [pc, #52]	; (10001ec8 <cyw43_do_ioctl.constprop.0+0x104>)
10001e94:	f004 ffc6 	bl	10006e24 <__wrap_printf>
10001e98:	4264      	negs	r4, r4
10001e9a:	0020      	movs	r0, r4
10001e9c:	b003      	add	sp, #12
10001e9e:	bcf0      	pop	{r4, r5, r6, r7}
10001ea0:	46bb      	mov	fp, r7
10001ea2:	46b2      	mov	sl, r6
10001ea4:	46a9      	mov	r9, r5
10001ea6:	46a0      	mov	r8, r4
10001ea8:	bdf0      	pop	{r4, r5, r6, r7, pc}
10001eaa:	9a00      	ldr	r2, [sp, #0]
10001eac:	4542      	cmp	r2, r8
10001eae:	d900      	bls.n	10001eb2 <cyw43_do_ioctl.constprop.0+0xee>
10001eb0:	4642      	mov	r2, r8
10001eb2:	9901      	ldr	r1, [sp, #4]
10001eb4:	980c      	ldr	r0, [sp, #48]	; 0x30
10001eb6:	f007 fc53 	bl	10009760 <memmove>
10001eba:	e7ee      	b.n	10001e9a <cyw43_do_ioctl.constprop.0+0xd6>
10001ebc:	40054000 	.word	0x40054000
10001ec0:	000f423f 	.word	0x000f423f
10001ec4:	10009a40 	.word	0x10009a40
10001ec8:	10009a6c 	.word	0x10009a6c

10001ecc <reset_device_core.constprop.0>:
10001ecc:	b5f8      	push	{r3, r4, r5, r6, r7, lr}
10001ece:	46ce      	mov	lr, r9
10001ed0:	4647      	mov	r7, r8
10001ed2:	0004      	movs	r4, r0
10001ed4:	000d      	movs	r5, r1
10001ed6:	b580      	push	{r7, lr}
10001ed8:	2901      	cmp	r1, #1
10001eda:	d100      	bne.n	10001ede <reset_device_core.constprop.0+0x12>
10001edc:	e1d6      	b.n	1000228c <reset_device_core.constprop.0+0x3c0>
10001ede:	4bd0      	ldr	r3, [pc, #832]	; (10002220 <reset_device_core.constprop.0+0x354>)
10001ee0:	2790      	movs	r7, #144	; 0x90
10001ee2:	4698      	mov	r8, r3
10001ee4:	01ff      	lsls	r7, r7, #7
10001ee6:	26c0      	movs	r6, #192	; 0xc0
10001ee8:	4641      	mov	r1, r8
10001eea:	0020      	movs	r0, r4
10001eec:	f7ff fc2e 	bl	1000174c <cyw43_set_backplane_window>
10001ef0:	003a      	movs	r2, r7
10001ef2:	2101      	movs	r1, #1
10001ef4:	0020      	movs	r0, r4
10001ef6:	f7fe ff8b 	bl	10000e10 <cyw43_read_reg_u8>
10001efa:	68a3      	ldr	r3, [r4, #8]
10001efc:	0576      	lsls	r6, r6, #21
10001efe:	42b3      	cmp	r3, r6
10001f00:	d010      	beq.n	10001f24 <reset_device_core.constprop.0+0x58>
10001f02:	4073      	eors	r3, r6
10001f04:	0e1a      	lsrs	r2, r3, #24
10001f06:	d000      	beq.n	10001f0a <reset_device_core.constprop.0+0x3e>
10001f08:	e0db      	b.n	100020c2 <reset_device_core.constprop.0+0x1f6>
10001f0a:	22ff      	movs	r2, #255	; 0xff
10001f0c:	0412      	lsls	r2, r2, #16
10001f0e:	4213      	tst	r3, r2
10001f10:	d000      	beq.n	10001f14 <reset_device_core.constprop.0+0x48>
10001f12:	e0e3      	b.n	100020dc <reset_device_core.constprop.0+0x210>
10001f14:	22ff      	movs	r2, #255	; 0xff
10001f16:	0212      	lsls	r2, r2, #8
10001f18:	4213      	tst	r3, r2
10001f1a:	d000      	beq.n	10001f1e <reset_device_core.constprop.0+0x52>
10001f1c:	e0ee      	b.n	100020fc <reset_device_core.constprop.0+0x230>
10001f1e:	23c0      	movs	r3, #192	; 0xc0
10001f20:	055b      	lsls	r3, r3, #21
10001f22:	60a3      	str	r3, [r4, #8]
10001f24:	4641      	mov	r1, r8
10001f26:	0020      	movs	r0, r4
10001f28:	f7ff fc10 	bl	1000174c <cyw43_set_backplane_window>
10001f2c:	003a      	movs	r2, r7
10001f2e:	2101      	movs	r1, #1
10001f30:	0020      	movs	r0, r4
10001f32:	f7fe ff6d 	bl	10000e10 <cyw43_read_reg_u8>
10001f36:	22c0      	movs	r2, #192	; 0xc0
10001f38:	68a3      	ldr	r3, [r4, #8]
10001f3a:	0552      	lsls	r2, r2, #21
10001f3c:	0006      	movs	r6, r0
10001f3e:	4691      	mov	r9, r2
10001f40:	4293      	cmp	r3, r2
10001f42:	d010      	beq.n	10001f66 <reset_device_core.constprop.0+0x9a>
10001f44:	4053      	eors	r3, r2
10001f46:	0e1a      	lsrs	r2, r3, #24
10001f48:	d000      	beq.n	10001f4c <reset_device_core.constprop.0+0x80>
10001f4a:	e194      	b.n	10002276 <reset_device_core.constprop.0+0x3aa>
10001f4c:	22ff      	movs	r2, #255	; 0xff
10001f4e:	0412      	lsls	r2, r2, #16
10001f50:	4213      	tst	r3, r2
10001f52:	d000      	beq.n	10001f56 <reset_device_core.constprop.0+0x8a>
10001f54:	e183      	b.n	1000225e <reset_device_core.constprop.0+0x392>
10001f56:	22ff      	movs	r2, #255	; 0xff
10001f58:	0212      	lsls	r2, r2, #8
10001f5a:	4213      	tst	r3, r2
10001f5c:	d000      	beq.n	10001f60 <reset_device_core.constprop.0+0x94>
10001f5e:	e176      	b.n	1000224e <reset_device_core.constprop.0+0x382>
10001f60:	23c0      	movs	r3, #192	; 0xc0
10001f62:	055b      	lsls	r3, r3, #21
10001f64:	60a3      	str	r3, [r4, #8]
10001f66:	07f6      	lsls	r6, r6, #31
10001f68:	d400      	bmi.n	10001f6c <reset_device_core.constprop.0+0xa0>
10001f6a:	e197      	b.n	1000229c <reset_device_core.constprop.0+0x3d0>
10001f6c:	2d01      	cmp	r5, #1
10001f6e:	d100      	bne.n	10001f72 <reset_device_core.constprop.0+0xa6>
10001f70:	e191      	b.n	10002296 <reset_device_core.constprop.0+0x3ca>
10001f72:	4dac      	ldr	r5, [pc, #688]	; (10002224 <reset_device_core.constprop.0+0x358>)
10001f74:	4eac      	ldr	r6, [pc, #688]	; (10002228 <reset_device_core.constprop.0+0x35c>)
10001f76:	0031      	movs	r1, r6
10001f78:	0020      	movs	r0, r4
10001f7a:	f7ff fbe7 	bl	1000174c <cyw43_set_backplane_window>
10001f7e:	2303      	movs	r3, #3
10001f80:	002a      	movs	r2, r5
10001f82:	2101      	movs	r1, #1
10001f84:	0020      	movs	r0, r4
10001f86:	f7ff fa43 	bl	10001410 <cyw43_write_reg_u8>
10001f8a:	22c0      	movs	r2, #192	; 0xc0
10001f8c:	68a3      	ldr	r3, [r4, #8]
10001f8e:	0552      	lsls	r2, r2, #21
10001f90:	4691      	mov	r9, r2
10001f92:	4293      	cmp	r3, r2
10001f94:	d010      	beq.n	10001fb8 <reset_device_core.constprop.0+0xec>
10001f96:	4053      	eors	r3, r2
10001f98:	0e1a      	lsrs	r2, r3, #24
10001f9a:	d000      	beq.n	10001f9e <reset_device_core.constprop.0+0xd2>
10001f9c:	e14c      	b.n	10002238 <reset_device_core.constprop.0+0x36c>
10001f9e:	22ff      	movs	r2, #255	; 0xff
10001fa0:	0412      	lsls	r2, r2, #16
10001fa2:	4213      	tst	r3, r2
10001fa4:	d000      	beq.n	10001fa8 <reset_device_core.constprop.0+0xdc>
10001fa6:	e12f      	b.n	10002208 <reset_device_core.constprop.0+0x33c>
10001fa8:	22ff      	movs	r2, #255	; 0xff
10001faa:	0212      	lsls	r2, r2, #8
10001fac:	4213      	tst	r3, r2
10001fae:	d000      	beq.n	10001fb2 <reset_device_core.constprop.0+0xe6>
10001fb0:	e122      	b.n	100021f8 <reset_device_core.constprop.0+0x32c>
10001fb2:	23c0      	movs	r3, #192	; 0xc0
10001fb4:	055b      	lsls	r3, r3, #21
10001fb6:	60a3      	str	r3, [r4, #8]
10001fb8:	0031      	movs	r1, r6
10001fba:	0020      	movs	r0, r4
10001fbc:	f7ff fbc6 	bl	1000174c <cyw43_set_backplane_window>
10001fc0:	002a      	movs	r2, r5
10001fc2:	2101      	movs	r1, #1
10001fc4:	0020      	movs	r0, r4
10001fc6:	f7fe ff23 	bl	10000e10 <cyw43_read_reg_u8>
10001fca:	22c0      	movs	r2, #192	; 0xc0
10001fcc:	68a3      	ldr	r3, [r4, #8]
10001fce:	0552      	lsls	r2, r2, #21
10001fd0:	4691      	mov	r9, r2
10001fd2:	4293      	cmp	r3, r2
10001fd4:	d010      	beq.n	10001ff8 <reset_device_core.constprop.0+0x12c>
10001fd6:	4053      	eors	r3, r2
10001fd8:	0e1a      	lsrs	r2, r3, #24
10001fda:	d000      	beq.n	10001fde <reset_device_core.constprop.0+0x112>
10001fdc:	e101      	b.n	100021e2 <reset_device_core.constprop.0+0x316>
10001fde:	22ff      	movs	r2, #255	; 0xff
10001fe0:	0412      	lsls	r2, r2, #16
10001fe2:	4213      	tst	r3, r2
10001fe4:	d000      	beq.n	10001fe8 <reset_device_core.constprop.0+0x11c>
10001fe6:	e0f0      	b.n	100021ca <reset_device_core.constprop.0+0x2fe>
10001fe8:	22ff      	movs	r2, #255	; 0xff
10001fea:	0212      	lsls	r2, r2, #8
10001fec:	4213      	tst	r3, r2
10001fee:	d000      	beq.n	10001ff2 <reset_device_core.constprop.0+0x126>
10001ff0:	e0e3      	b.n	100021ba <reset_device_core.constprop.0+0x2ee>
10001ff2:	23c0      	movs	r3, #192	; 0xc0
10001ff4:	055b      	lsls	r3, r3, #21
10001ff6:	60a3      	str	r3, [r4, #8]
10001ff8:	4641      	mov	r1, r8
10001ffa:	0020      	movs	r0, r4
10001ffc:	f7ff fba6 	bl	1000174c <cyw43_set_backplane_window>
10002000:	003a      	movs	r2, r7
10002002:	27c0      	movs	r7, #192	; 0xc0
10002004:	2300      	movs	r3, #0
10002006:	2101      	movs	r1, #1
10002008:	0020      	movs	r0, r4
1000200a:	f7ff fa01 	bl	10001410 <cyw43_write_reg_u8>
1000200e:	68a3      	ldr	r3, [r4, #8]
10002010:	057f      	lsls	r7, r7, #21
10002012:	42bb      	cmp	r3, r7
10002014:	d010      	beq.n	10002038 <reset_device_core.constprop.0+0x16c>
10002016:	407b      	eors	r3, r7
10002018:	0e1a      	lsrs	r2, r3, #24
1000201a:	d000      	beq.n	1000201e <reset_device_core.constprop.0+0x152>
1000201c:	e0c4      	b.n	100021a8 <reset_device_core.constprop.0+0x2dc>
1000201e:	22ff      	movs	r2, #255	; 0xff
10002020:	0412      	lsls	r2, r2, #16
10002022:	4213      	tst	r3, r2
10002024:	d000      	beq.n	10002028 <reset_device_core.constprop.0+0x15c>
10002026:	e0b3      	b.n	10002190 <reset_device_core.constprop.0+0x2c4>
10002028:	22ff      	movs	r2, #255	; 0xff
1000202a:	0212      	lsls	r2, r2, #8
1000202c:	4213      	tst	r3, r2
1000202e:	d000      	beq.n	10002032 <reset_device_core.constprop.0+0x166>
10002030:	e0a6      	b.n	10002180 <reset_device_core.constprop.0+0x2b4>
10002032:	23c0      	movs	r3, #192	; 0xc0
10002034:	055b      	lsls	r3, r3, #21
10002036:	60a3      	str	r3, [r4, #8]
10002038:	27c0      	movs	r7, #192	; 0xc0
1000203a:	2001      	movs	r0, #1
1000203c:	f7fe fa14 	bl	10000468 <cyw43_delay_ms>
10002040:	0031      	movs	r1, r6
10002042:	0020      	movs	r0, r4
10002044:	f7ff fb82 	bl	1000174c <cyw43_set_backplane_window>
10002048:	2301      	movs	r3, #1
1000204a:	002a      	movs	r2, r5
1000204c:	2101      	movs	r1, #1
1000204e:	0020      	movs	r0, r4
10002050:	f7ff f9de 	bl	10001410 <cyw43_write_reg_u8>
10002054:	68a3      	ldr	r3, [r4, #8]
10002056:	057f      	lsls	r7, r7, #21
10002058:	42bb      	cmp	r3, r7
1000205a:	d00f      	beq.n	1000207c <reset_device_core.constprop.0+0x1b0>
1000205c:	407b      	eors	r3, r7
1000205e:	0e1a      	lsrs	r2, r3, #24
10002060:	d000      	beq.n	10002064 <reset_device_core.constprop.0+0x198>
10002062:	e084      	b.n	1000216e <reset_device_core.constprop.0+0x2a2>
10002064:	22ff      	movs	r2, #255	; 0xff
10002066:	0412      	lsls	r2, r2, #16
10002068:	4213      	tst	r3, r2
1000206a:	d000      	beq.n	1000206e <reset_device_core.constprop.0+0x1a2>
1000206c:	e073      	b.n	10002156 <reset_device_core.constprop.0+0x28a>
1000206e:	22ff      	movs	r2, #255	; 0xff
10002070:	0212      	lsls	r2, r2, #8
10002072:	4213      	tst	r3, r2
10002074:	d167      	bne.n	10002146 <reset_device_core.constprop.0+0x27a>
10002076:	23c0      	movs	r3, #192	; 0xc0
10002078:	055b      	lsls	r3, r3, #21
1000207a:	60a3      	str	r3, [r4, #8]
1000207c:	0031      	movs	r1, r6
1000207e:	0020      	movs	r0, r4
10002080:	f7ff fb64 	bl	1000174c <cyw43_set_backplane_window>
10002084:	002a      	movs	r2, r5
10002086:	25c0      	movs	r5, #192	; 0xc0
10002088:	2101      	movs	r1, #1
1000208a:	0020      	movs	r0, r4
1000208c:	f7fe fec0 	bl	10000e10 <cyw43_read_reg_u8>
10002090:	68a3      	ldr	r3, [r4, #8]
10002092:	056d      	lsls	r5, r5, #21
10002094:	42ab      	cmp	r3, r5
10002096:	d00d      	beq.n	100020b4 <reset_device_core.constprop.0+0x1e8>
10002098:	406b      	eors	r3, r5
1000209a:	0e1a      	lsrs	r2, r3, #24
1000209c:	d14a      	bne.n	10002134 <reset_device_core.constprop.0+0x268>
1000209e:	22ff      	movs	r2, #255	; 0xff
100020a0:	0412      	lsls	r2, r2, #16
100020a2:	4213      	tst	r3, r2
100020a4:	d13a      	bne.n	1000211c <reset_device_core.constprop.0+0x250>
100020a6:	22ff      	movs	r2, #255	; 0xff
100020a8:	0212      	lsls	r2, r2, #8
100020aa:	4213      	tst	r3, r2
100020ac:	d12e      	bne.n	1000210c <reset_device_core.constprop.0+0x240>
100020ae:	23c0      	movs	r3, #192	; 0xc0
100020b0:	055b      	lsls	r3, r3, #21
100020b2:	60a3      	str	r3, [r4, #8]
100020b4:	2001      	movs	r0, #1
100020b6:	f7fe f9d7 	bl	10000468 <cyw43_delay_ms>
100020ba:	bcc0      	pop	{r6, r7}
100020bc:	46b9      	mov	r9, r7
100020be:	46b0      	mov	r8, r6
100020c0:	bdf8      	pop	{r3, r4, r5, r6, r7, pc}
100020c2:	2318      	movs	r3, #24
100020c4:	4a59      	ldr	r2, [pc, #356]	; (1000222c <reset_device_core.constprop.0+0x360>)
100020c6:	2101      	movs	r1, #1
100020c8:	0020      	movs	r0, r4
100020ca:	f7ff f9a1 	bl	10001410 <cyw43_write_reg_u8>
100020ce:	22ff      	movs	r2, #255	; 0xff
100020d0:	68a3      	ldr	r3, [r4, #8]
100020d2:	0412      	lsls	r2, r2, #16
100020d4:	4073      	eors	r3, r6
100020d6:	4213      	tst	r3, r2
100020d8:	d100      	bne.n	100020dc <reset_device_core.constprop.0+0x210>
100020da:	e71b      	b.n	10001f14 <reset_device_core.constprop.0+0x48>
100020dc:	23c0      	movs	r3, #192	; 0xc0
100020de:	4a54      	ldr	r2, [pc, #336]	; (10002230 <reset_device_core.constprop.0+0x364>)
100020e0:	015b      	lsls	r3, r3, #5
100020e2:	2101      	movs	r1, #1
100020e4:	0020      	movs	r0, r4
100020e6:	f7ff f993 	bl	10001410 <cyw43_write_reg_u8>
100020ea:	23c0      	movs	r3, #192	; 0xc0
100020ec:	68a2      	ldr	r2, [r4, #8]
100020ee:	055b      	lsls	r3, r3, #21
100020f0:	4053      	eors	r3, r2
100020f2:	22ff      	movs	r2, #255	; 0xff
100020f4:	0212      	lsls	r2, r2, #8
100020f6:	4213      	tst	r3, r2
100020f8:	d100      	bne.n	100020fc <reset_device_core.constprop.0+0x230>
100020fa:	e710      	b.n	10001f1e <reset_device_core.constprop.0+0x52>
100020fc:	23c0      	movs	r3, #192	; 0xc0
100020fe:	2101      	movs	r1, #1
10002100:	0020      	movs	r0, r4
10002102:	4a4c      	ldr	r2, [pc, #304]	; (10002234 <reset_device_core.constprop.0+0x368>)
10002104:	035b      	lsls	r3, r3, #13
10002106:	f7ff f983 	bl	10001410 <cyw43_write_reg_u8>
1000210a:	e708      	b.n	10001f1e <reset_device_core.constprop.0+0x52>
1000210c:	23c0      	movs	r3, #192	; 0xc0
1000210e:	2101      	movs	r1, #1
10002110:	0020      	movs	r0, r4
10002112:	4a48      	ldr	r2, [pc, #288]	; (10002234 <reset_device_core.constprop.0+0x368>)
10002114:	035b      	lsls	r3, r3, #13
10002116:	f7ff f97b 	bl	10001410 <cyw43_write_reg_u8>
1000211a:	e7c8      	b.n	100020ae <reset_device_core.constprop.0+0x1e2>
1000211c:	23c0      	movs	r3, #192	; 0xc0
1000211e:	4a44      	ldr	r2, [pc, #272]	; (10002230 <reset_device_core.constprop.0+0x364>)
10002120:	015b      	lsls	r3, r3, #5
10002122:	2101      	movs	r1, #1
10002124:	0020      	movs	r0, r4
10002126:	f7ff f973 	bl	10001410 <cyw43_write_reg_u8>
1000212a:	23c0      	movs	r3, #192	; 0xc0
1000212c:	68a2      	ldr	r2, [r4, #8]
1000212e:	055b      	lsls	r3, r3, #21
10002130:	4053      	eors	r3, r2
10002132:	e7b8      	b.n	100020a6 <reset_device_core.constprop.0+0x1da>
10002134:	2318      	movs	r3, #24
10002136:	2101      	movs	r1, #1
10002138:	0020      	movs	r0, r4
1000213a:	4a3c      	ldr	r2, [pc, #240]	; (1000222c <reset_device_core.constprop.0+0x360>)
1000213c:	f7ff f968 	bl	10001410 <cyw43_write_reg_u8>
10002140:	68a3      	ldr	r3, [r4, #8]
10002142:	406b      	eors	r3, r5
10002144:	e7ab      	b.n	1000209e <reset_device_core.constprop.0+0x1d2>
10002146:	23c0      	movs	r3, #192	; 0xc0
10002148:	2101      	movs	r1, #1
1000214a:	0020      	movs	r0, r4
1000214c:	4a39      	ldr	r2, [pc, #228]	; (10002234 <reset_device_core.constprop.0+0x368>)
1000214e:	035b      	lsls	r3, r3, #13
10002150:	f7ff f95e 	bl	10001410 <cyw43_write_reg_u8>
10002154:	e78f      	b.n	10002076 <reset_device_core.constprop.0+0x1aa>
10002156:	23c0      	movs	r3, #192	; 0xc0
10002158:	4a35      	ldr	r2, [pc, #212]	; (10002230 <reset_device_core.constprop.0+0x364>)
1000215a:	015b      	lsls	r3, r3, #5
1000215c:	2101      	movs	r1, #1
1000215e:	0020      	movs	r0, r4
10002160:	f7ff f956 	bl	10001410 <cyw43_write_reg_u8>
10002164:	23c0      	movs	r3, #192	; 0xc0
10002166:	68a2      	ldr	r2, [r4, #8]
10002168:	055b      	lsls	r3, r3, #21
1000216a:	4053      	eors	r3, r2
1000216c:	e77f      	b.n	1000206e <reset_device_core.constprop.0+0x1a2>
1000216e:	2318      	movs	r3, #24
10002170:	2101      	movs	r1, #1
10002172:	0020      	movs	r0, r4
10002174:	4a2d      	ldr	r2, [pc, #180]	; (1000222c <reset_device_core.constprop.0+0x360>)
10002176:	f7ff f94b 	bl	10001410 <cyw43_write_reg_u8>
1000217a:	68a3      	ldr	r3, [r4, #8]
1000217c:	407b      	eors	r3, r7
1000217e:	e771      	b.n	10002064 <reset_device_core.constprop.0+0x198>
10002180:	23c0      	movs	r3, #192	; 0xc0
10002182:	2101      	movs	r1, #1
10002184:	0020      	movs	r0, r4
10002186:	4a2b      	ldr	r2, [pc, #172]	; (10002234 <reset_device_core.constprop.0+0x368>)
10002188:	035b      	lsls	r3, r3, #13
1000218a:	f7ff f941 	bl	10001410 <cyw43_write_reg_u8>
1000218e:	e750      	b.n	10002032 <reset_device_core.constprop.0+0x166>
10002190:	23c0      	movs	r3, #192	; 0xc0
10002192:	4a27      	ldr	r2, [pc, #156]	; (10002230 <reset_device_core.constprop.0+0x364>)
10002194:	015b      	lsls	r3, r3, #5
10002196:	2101      	movs	r1, #1
10002198:	0020      	movs	r0, r4
1000219a:	f7ff f939 	bl	10001410 <cyw43_write_reg_u8>
1000219e:	23c0      	movs	r3, #192	; 0xc0
100021a0:	68a2      	ldr	r2, [r4, #8]
100021a2:	055b      	lsls	r3, r3, #21
100021a4:	4053      	eors	r3, r2
100021a6:	e73f      	b.n	10002028 <reset_device_core.constprop.0+0x15c>
100021a8:	2318      	movs	r3, #24
100021aa:	2101      	movs	r1, #1
100021ac:	0020      	movs	r0, r4
100021ae:	4a1f      	ldr	r2, [pc, #124]	; (1000222c <reset_device_core.constprop.0+0x360>)
100021b0:	f7ff f92e 	bl	10001410 <cyw43_write_reg_u8>
100021b4:	68a3      	ldr	r3, [r4, #8]
100021b6:	407b      	eors	r3, r7
100021b8:	e731      	b.n	1000201e <reset_device_core.constprop.0+0x152>
100021ba:	23c0      	movs	r3, #192	; 0xc0
100021bc:	2101      	movs	r1, #1
100021be:	0020      	movs	r0, r4
100021c0:	4a1c      	ldr	r2, [pc, #112]	; (10002234 <reset_device_core.constprop.0+0x368>)
100021c2:	035b      	lsls	r3, r3, #13
100021c4:	f7ff f924 	bl	10001410 <cyw43_write_reg_u8>
100021c8:	e713      	b.n	10001ff2 <reset_device_core.constprop.0+0x126>
100021ca:	23c0      	movs	r3, #192	; 0xc0
100021cc:	4a18      	ldr	r2, [pc, #96]	; (10002230 <reset_device_core.constprop.0+0x364>)
100021ce:	015b      	lsls	r3, r3, #5
100021d0:	2101      	movs	r1, #1
100021d2:	0020      	movs	r0, r4
100021d4:	f7ff f91c 	bl	10001410 <cyw43_write_reg_u8>
100021d8:	23c0      	movs	r3, #192	; 0xc0
100021da:	68a2      	ldr	r2, [r4, #8]
100021dc:	055b      	lsls	r3, r3, #21
100021de:	4053      	eors	r3, r2
100021e0:	e702      	b.n	10001fe8 <reset_device_core.constprop.0+0x11c>
100021e2:	2318      	movs	r3, #24
100021e4:	4a11      	ldr	r2, [pc, #68]	; (1000222c <reset_device_core.constprop.0+0x360>)
100021e6:	2101      	movs	r1, #1
100021e8:	0020      	movs	r0, r4
100021ea:	f7ff f911 	bl	10001410 <cyw43_write_reg_u8>
100021ee:	464a      	mov	r2, r9
100021f0:	68a3      	ldr	r3, [r4, #8]
100021f2:	405a      	eors	r2, r3
100021f4:	0013      	movs	r3, r2
100021f6:	e6f2      	b.n	10001fde <reset_device_core.constprop.0+0x112>
100021f8:	23c0      	movs	r3, #192	; 0xc0
100021fa:	2101      	movs	r1, #1
100021fc:	0020      	movs	r0, r4
100021fe:	4a0d      	ldr	r2, [pc, #52]	; (10002234 <reset_device_core.constprop.0+0x368>)
10002200:	035b      	lsls	r3, r3, #13
10002202:	f7ff f905 	bl	10001410 <cyw43_write_reg_u8>
10002206:	e6d4      	b.n	10001fb2 <reset_device_core.constprop.0+0xe6>
10002208:	23c0      	movs	r3, #192	; 0xc0
1000220a:	4a09      	ldr	r2, [pc, #36]	; (10002230 <reset_device_core.constprop.0+0x364>)
1000220c:	015b      	lsls	r3, r3, #5
1000220e:	2101      	movs	r1, #1
10002210:	0020      	movs	r0, r4
10002212:	f7ff f8fd 	bl	10001410 <cyw43_write_reg_u8>
10002216:	23c0      	movs	r3, #192	; 0xc0
10002218:	68a2      	ldr	r2, [r4, #8]
1000221a:	055b      	lsls	r3, r3, #21
1000221c:	4053      	eors	r3, r2
1000221e:	e6c3      	b.n	10001fa8 <reset_device_core.constprop.0+0xdc>
10002220:	18104800 	.word	0x18104800
10002224:	00004408 	.word	0x00004408
10002228:	18104408 	.word	0x18104408
1000222c:	0001000c 	.word	0x0001000c
10002230:	0001000b 	.word	0x0001000b
10002234:	0001000a 	.word	0x0001000a
10002238:	2318      	movs	r3, #24
1000223a:	4a1a      	ldr	r2, [pc, #104]	; (100022a4 <reset_device_core.constprop.0+0x3d8>)
1000223c:	2101      	movs	r1, #1
1000223e:	0020      	movs	r0, r4
10002240:	f7ff f8e6 	bl	10001410 <cyw43_write_reg_u8>
10002244:	464a      	mov	r2, r9
10002246:	68a3      	ldr	r3, [r4, #8]
10002248:	405a      	eors	r2, r3
1000224a:	0013      	movs	r3, r2
1000224c:	e6a7      	b.n	10001f9e <reset_device_core.constprop.0+0xd2>
1000224e:	23c0      	movs	r3, #192	; 0xc0
10002250:	2101      	movs	r1, #1
10002252:	0020      	movs	r0, r4
10002254:	4a14      	ldr	r2, [pc, #80]	; (100022a8 <reset_device_core.constprop.0+0x3dc>)
10002256:	035b      	lsls	r3, r3, #13
10002258:	f7ff f8da 	bl	10001410 <cyw43_write_reg_u8>
1000225c:	e680      	b.n	10001f60 <reset_device_core.constprop.0+0x94>
1000225e:	23c0      	movs	r3, #192	; 0xc0
10002260:	4a12      	ldr	r2, [pc, #72]	; (100022ac <reset_device_core.constprop.0+0x3e0>)
10002262:	015b      	lsls	r3, r3, #5
10002264:	2101      	movs	r1, #1
10002266:	0020      	movs	r0, r4
10002268:	f7ff f8d2 	bl	10001410 <cyw43_write_reg_u8>
1000226c:	23c0      	movs	r3, #192	; 0xc0
1000226e:	68a2      	ldr	r2, [r4, #8]
10002270:	055b      	lsls	r3, r3, #21
10002272:	4053      	eors	r3, r2
10002274:	e66f      	b.n	10001f56 <reset_device_core.constprop.0+0x8a>
10002276:	2318      	movs	r3, #24
10002278:	4a0a      	ldr	r2, [pc, #40]	; (100022a4 <reset_device_core.constprop.0+0x3d8>)
1000227a:	2101      	movs	r1, #1
1000227c:	0020      	movs	r0, r4
1000227e:	f7ff f8c7 	bl	10001410 <cyw43_write_reg_u8>
10002282:	464a      	mov	r2, r9
10002284:	68a3      	ldr	r3, [r4, #8]
10002286:	405a      	eors	r2, r3
10002288:	0013      	movs	r3, r2
1000228a:	e65f      	b.n	10001f4c <reset_device_core.constprop.0+0x80>
1000228c:	27e0      	movs	r7, #224	; 0xe0
1000228e:	4b08      	ldr	r3, [pc, #32]	; (100022b0 <reset_device_core.constprop.0+0x3e4>)
10002290:	01bf      	lsls	r7, r7, #6
10002292:	4698      	mov	r8, r3
10002294:	e627      	b.n	10001ee6 <reset_device_core.constprop.0+0x1a>
10002296:	4d07      	ldr	r5, [pc, #28]	; (100022b4 <reset_device_core.constprop.0+0x3e8>)
10002298:	4e07      	ldr	r6, [pc, #28]	; (100022b8 <reset_device_core.constprop.0+0x3ec>)
1000229a:	e66c      	b.n	10001f76 <reset_device_core.constprop.0+0xaa>
1000229c:	4807      	ldr	r0, [pc, #28]	; (100022bc <reset_device_core.constprop.0+0x3f0>)
1000229e:	f004 fd21 	bl	10006ce4 <__wrap_puts>
100022a2:	e663      	b.n	10001f6c <reset_device_core.constprop.0+0xa0>
100022a4:	0001000c 	.word	0x0001000c
100022a8:	0001000a 	.word	0x0001000a
100022ac:	0001000b 	.word	0x0001000b
100022b0:	18103800 	.word	0x18103800
100022b4:	00003408 	.word	0x00003408
100022b8:	18103408 	.word	0x18103408
100022bc:	10009a98 	.word	0x10009a98

100022c0 <cyw43_ll_process_packets>:
100022c0:	b530      	push	{r4, r5, lr}
100022c2:	0004      	movs	r4, r0
100022c4:	4d17      	ldr	r5, [pc, #92]	; (10002324 <cyw43_ll_process_packets+0x64>)
100022c6:	b083      	sub	sp, #12
100022c8:	4669      	mov	r1, sp
100022ca:	0020      	movs	r0, r4
100022cc:	aa01      	add	r2, sp, #4
100022ce:	f7ff fb59 	bl	10001984 <cyw43_ll_sdpcm_poll_device>
100022d2:	0001      	movs	r1, r0
100022d4:	1c43      	adds	r3, r0, #1
100022d6:	d010      	beq.n	100022fa <cyw43_ll_process_packets+0x3a>
100022d8:	1d03      	adds	r3, r0, #4
100022da:	d0f5      	beq.n	100022c8 <cyw43_ll_process_packets+0x8>
100022dc:	2801      	cmp	r0, #1
100022de:	d017      	beq.n	10002310 <cyw43_ll_process_packets+0x50>
100022e0:	2802      	cmp	r0, #2
100022e2:	d00c      	beq.n	100022fe <cyw43_ll_process_packets+0x3e>
100022e4:	0028      	movs	r0, r5
100022e6:	f004 fd9d 	bl	10006e24 <__wrap_printf>
100022ea:	4669      	mov	r1, sp
100022ec:	0020      	movs	r0, r4
100022ee:	aa01      	add	r2, sp, #4
100022f0:	f7ff fb48 	bl	10001984 <cyw43_ll_sdpcm_poll_device>
100022f4:	0001      	movs	r1, r0
100022f6:	1c43      	adds	r3, r0, #1
100022f8:	d1ee      	bne.n	100022d8 <cyw43_ll_process_packets+0x18>
100022fa:	b003      	add	sp, #12
100022fc:	bd30      	pop	{r4, r5, pc}
100022fe:	9900      	ldr	r1, [sp, #0]
10002300:	9b01      	ldr	r3, [sp, #4]
10002302:	004a      	lsls	r2, r1, #1
10002304:	6820      	ldr	r0, [r4, #0]
10002306:	0852      	lsrs	r2, r2, #1
10002308:	0fc9      	lsrs	r1, r1, #31
1000230a:	f000 ff13 	bl	10003134 <cyw43_cb_process_ethernet>
1000230e:	e7db      	b.n	100022c8 <cyw43_ll_process_packets+0x8>
10002310:	9901      	ldr	r1, [sp, #4]
10002312:	9800      	ldr	r0, [sp, #0]
10002314:	f7ff fa4c 	bl	100017b0 <cyw43_ll_parse_async_event>
10002318:	0001      	movs	r1, r0
1000231a:	0020      	movs	r0, r4
1000231c:	f000 ffc2 	bl	100032a4 <cyw43_cb_process_async_event>
10002320:	e7d2      	b.n	100022c8 <cyw43_ll_process_packets+0x8>
10002322:	46c0      	nop			; (mov r8, r8)
10002324:	10009ab4 	.word	0x10009ab4

10002328 <cyw43_ll_ioctl>:
10002328:	b530      	push	{r4, r5, lr}
1000232a:	0015      	movs	r5, r2
1000232c:	004c      	lsls	r4, r1, #1
1000232e:	084a      	lsrs	r2, r1, #1
10002330:	2102      	movs	r1, #2
10002332:	b083      	sub	sp, #12
10002334:	4021      	ands	r1, r4
10002336:	9c06      	ldr	r4, [sp, #24]
10002338:	9300      	str	r3, [sp, #0]
1000233a:	9401      	str	r4, [sp, #4]
1000233c:	002b      	movs	r3, r5
1000233e:	f7ff fcb9 	bl	10001cb4 <cyw43_do_ioctl>
10002342:	b003      	add	sp, #12
10002344:	bd30      	pop	{r4, r5, pc}
10002346:	46c0      	nop			; (mov r8, r8)

10002348 <cyw43_ll_bus_sleep>:
10002348:	b510      	push	{r4, lr}
1000234a:	0004      	movs	r4, r0
1000234c:	2900      	cmp	r1, #0
1000234e:	d009      	beq.n	10002364 <cyw43_ll_bus_sleep+0x1c>
10002350:	7c83      	ldrb	r3, [r0, #18]
10002352:	2b00      	cmp	r3, #0
10002354:	d100      	bne.n	10002358 <cyw43_ll_bus_sleep+0x10>
10002356:	bd10      	pop	{r4, pc}
10002358:	2300      	movs	r3, #0
1000235a:	2100      	movs	r1, #0
1000235c:	7483      	strb	r3, [r0, #18]
1000235e:	f7ff fac1 	bl	100018e4 <cyw43_kso_set>
10002362:	e7f8      	b.n	10002356 <cyw43_ll_bus_sleep+0xe>
10002364:	f000 ff98 	bl	10003298 <cyw43_cb_ensure_awake>
10002368:	7ca3      	ldrb	r3, [r4, #18]
1000236a:	2b00      	cmp	r3, #0
1000236c:	d1f3      	bne.n	10002356 <cyw43_ll_bus_sleep+0xe>
1000236e:	2101      	movs	r1, #1
10002370:	0020      	movs	r0, r4
10002372:	f7ff fab7 	bl	100018e4 <cyw43_kso_set>
10002376:	2301      	movs	r3, #1
10002378:	74a3      	strb	r3, [r4, #18]
1000237a:	e7ec      	b.n	10002356 <cyw43_ll_bus_sleep+0xe>

1000237c <cyw43_ll_bus_init>:
1000237c:	b5f0      	push	{r4, r5, r6, r7, lr}
1000237e:	46de      	mov	lr, fp
10002380:	4657      	mov	r7, sl
10002382:	464e      	mov	r6, r9
10002384:	4645      	mov	r5, r8
10002386:	b5e0      	push	{r5, r6, r7, lr}
10002388:	4bd3      	ldr	r3, [pc, #844]	; (100026d8 <cyw43_ll_bus_init+0x35c>)
1000238a:	b089      	sub	sp, #36	; 0x24
1000238c:	6a9b      	ldr	r3, [r3, #40]	; 0x28
1000238e:	0004      	movs	r4, r0
10002390:	6043      	str	r3, [r0, #4]
10002392:	9103      	str	r1, [sp, #12]
10002394:	f7fe f9c6 	bl	10000724 <cyw43_spi_init>
10002398:	2800      	cmp	r0, #0
1000239a:	d112      	bne.n	100023c2 <cyw43_ll_bus_init+0x46>
1000239c:	f7fe fc7c 	bl	10000c98 <cyw43_spi_gpio_setup>
100023a0:	250a      	movs	r5, #10
100023a2:	f7fe fc97 	bl	10000cd4 <cyw43_spi_reset>
100023a6:	4ecd      	ldr	r6, [pc, #820]	; (100026dc <cyw43_ll_bus_init+0x360>)
100023a8:	2214      	movs	r2, #20
100023aa:	2100      	movs	r1, #0
100023ac:	0020      	movs	r0, r4
100023ae:	f7fe fca5 	bl	10000cfc <read_reg_u32_swap>
100023b2:	42b0      	cmp	r0, r6
100023b4:	d012      	beq.n	100023dc <cyw43_ll_bus_init+0x60>
100023b6:	2001      	movs	r0, #1
100023b8:	3d01      	subs	r5, #1
100023ba:	f7fe f855 	bl	10000468 <cyw43_delay_ms>
100023be:	2d00      	cmp	r5, #0
100023c0:	d1f2      	bne.n	100023a8 <cyw43_ll_bus_init+0x2c>
100023c2:	2606      	movs	r6, #6
100023c4:	48c6      	ldr	r0, [pc, #792]	; (100026e0 <cyw43_ll_bus_init+0x364>)
100023c6:	f004 fc8d 	bl	10006ce4 <__wrap_puts>
100023ca:	4276      	negs	r6, r6
100023cc:	0030      	movs	r0, r6
100023ce:	b009      	add	sp, #36	; 0x24
100023d0:	bcf0      	pop	{r4, r5, r6, r7}
100023d2:	46bb      	mov	fp, r7
100023d4:	46b2      	mov	sl, r6
100023d6:	46a9      	mov	r9, r5
100023d8:	46a0      	mov	r8, r4
100023da:	bdf0      	pop	{r4, r5, r6, r7, pc}
100023dc:	2200      	movs	r2, #0
100023de:	2100      	movs	r1, #0
100023e0:	0020      	movs	r0, r4
100023e2:	4bc0      	ldr	r3, [pc, #768]	; (100026e4 <cyw43_ll_bus_init+0x368>)
100023e4:	f7fe fd4a 	bl	10000e7c <write_reg_u32_swap>
100023e8:	2800      	cmp	r0, #0
100023ea:	d1ea      	bne.n	100023c2 <cyw43_ll_bus_init+0x46>
100023ec:	2200      	movs	r2, #0
100023ee:	2100      	movs	r1, #0
100023f0:	0020      	movs	r0, r4
100023f2:	f7fe fca1 	bl	10000d38 <cyw43_read_reg_u32>
100023f6:	2304      	movs	r3, #4
100023f8:	221d      	movs	r2, #29
100023fa:	2100      	movs	r1, #0
100023fc:	0020      	movs	r0, r4
100023fe:	f7ff f807 	bl	10001410 <cyw43_write_reg_u8>
10002402:	2800      	cmp	r0, #0
10002404:	d1dd      	bne.n	100023c2 <cyw43_ll_bus_init+0x46>
10002406:	2399      	movs	r3, #153	; 0x99
10002408:	2204      	movs	r2, #4
1000240a:	2100      	movs	r1, #0
1000240c:	0020      	movs	r0, r4
1000240e:	f7fe ffff 	bl	10001410 <cyw43_write_reg_u8>
10002412:	2800      	cmp	r0, #0
10002414:	d1d5      	bne.n	100023c2 <cyw43_ll_bus_init+0x46>
10002416:	23be      	movs	r3, #190	; 0xbe
10002418:	2206      	movs	r2, #6
1000241a:	2100      	movs	r1, #0
1000241c:	0020      	movs	r0, r4
1000241e:	f7fe ff03 	bl	10001228 <cyw43_write_reg_u16>
10002422:	1e06      	subs	r6, r0, #0
10002424:	d1cd      	bne.n	100023c2 <cyw43_ll_bus_init+0x46>
10002426:	2308      	movs	r3, #8
10002428:	2101      	movs	r1, #1
1000242a:	0020      	movs	r0, r4
1000242c:	4aae      	ldr	r2, [pc, #696]	; (100026e8 <cyw43_ll_bus_init+0x36c>)
1000242e:	f7fe ffef 	bl	10001410 <cyw43_write_reg_u8>
10002432:	250a      	movs	r5, #10
10002434:	2740      	movs	r7, #64	; 0x40
10002436:	2101      	movs	r1, #1
10002438:	0020      	movs	r0, r4
1000243a:	4aab      	ldr	r2, [pc, #684]	; (100026e8 <cyw43_ll_bus_init+0x36c>)
1000243c:	f7fe fce8 	bl	10000e10 <cyw43_read_reg_u8>
10002440:	4207      	tst	r7, r0
10002442:	d10b      	bne.n	1000245c <cyw43_ll_bus_init+0xe0>
10002444:	2001      	movs	r0, #1
10002446:	3d01      	subs	r5, #1
10002448:	f7fe f80e 	bl	10000468 <cyw43_delay_ms>
1000244c:	2d00      	cmp	r5, #0
1000244e:	d1f2      	bne.n	10002436 <cyw43_ll_bus_init+0xba>
10002450:	2606      	movs	r6, #6
10002452:	48a6      	ldr	r0, [pc, #664]	; (100026ec <cyw43_ll_bus_init+0x370>)
10002454:	f004 fc46 	bl	10006ce4 <__wrap_puts>
10002458:	4276      	negs	r6, r6
1000245a:	e7b7      	b.n	100023cc <cyw43_ll_bus_init+0x50>
1000245c:	2300      	movs	r3, #0
1000245e:	4aa2      	ldr	r2, [pc, #648]	; (100026e8 <cyw43_ll_bus_init+0x36c>)
10002460:	2101      	movs	r1, #1
10002462:	0020      	movs	r0, r4
10002464:	f7fe ffd4 	bl	10001410 <cyw43_write_reg_u8>
10002468:	0020      	movs	r0, r4
1000246a:	49a1      	ldr	r1, [pc, #644]	; (100026f0 <cyw43_ll_bus_init+0x374>)
1000246c:	f7ff f96e 	bl	1000174c <cyw43_set_backplane_window>
10002470:	22e0      	movs	r2, #224	; 0xe0
10002472:	25c0      	movs	r5, #192	; 0xc0
10002474:	2101      	movs	r1, #1
10002476:	0020      	movs	r0, r4
10002478:	0192      	lsls	r2, r2, #6
1000247a:	f7fe fcc9 	bl	10000e10 <cyw43_read_reg_u8>
1000247e:	68a3      	ldr	r3, [r4, #8]
10002480:	056d      	lsls	r5, r5, #21
10002482:	42ab      	cmp	r3, r5
10002484:	d013      	beq.n	100024ae <cyw43_ll_bus_init+0x132>
10002486:	406b      	eors	r3, r5
10002488:	0e1a      	lsrs	r2, r3, #24
1000248a:	d001      	beq.n	10002490 <cyw43_ll_bus_init+0x114>
1000248c:	f000 fcf1 	bl	10002e72 <cyw43_ll_bus_init+0xaf6>
10002490:	22ff      	movs	r2, #255	; 0xff
10002492:	0412      	lsls	r2, r2, #16
10002494:	4213      	tst	r3, r2
10002496:	d001      	beq.n	1000249c <cyw43_ll_bus_init+0x120>
10002498:	f000 fcde 	bl	10002e58 <cyw43_ll_bus_init+0xadc>
1000249c:	22ff      	movs	r2, #255	; 0xff
1000249e:	0212      	lsls	r2, r2, #8
100024a0:	4213      	tst	r3, r2
100024a2:	d001      	beq.n	100024a8 <cyw43_ll_bus_init+0x12c>
100024a4:	f000 fccf 	bl	10002e46 <cyw43_ll_bus_init+0xaca>
100024a8:	23c0      	movs	r3, #192	; 0xc0
100024aa:	055b      	lsls	r3, r3, #21
100024ac:	60a3      	str	r3, [r4, #8]
100024ae:	0020      	movs	r0, r4
100024b0:	498f      	ldr	r1, [pc, #572]	; (100026f0 <cyw43_ll_bus_init+0x374>)
100024b2:	f7ff f94b 	bl	1000174c <cyw43_set_backplane_window>
100024b6:	22e0      	movs	r2, #224	; 0xe0
100024b8:	2101      	movs	r1, #1
100024ba:	0020      	movs	r0, r4
100024bc:	0192      	lsls	r2, r2, #6
100024be:	f7fe fca7 	bl	10000e10 <cyw43_read_reg_u8>
100024c2:	27c0      	movs	r7, #192	; 0xc0
100024c4:	68a3      	ldr	r3, [r4, #8]
100024c6:	0005      	movs	r5, r0
100024c8:	057f      	lsls	r7, r7, #21
100024ca:	42bb      	cmp	r3, r7
100024cc:	d013      	beq.n	100024f6 <cyw43_ll_bus_init+0x17a>
100024ce:	407b      	eors	r3, r7
100024d0:	0e1a      	lsrs	r2, r3, #24
100024d2:	d001      	beq.n	100024d8 <cyw43_ll_bus_init+0x15c>
100024d4:	f000 fcad 	bl	10002e32 <cyw43_ll_bus_init+0xab6>
100024d8:	22ff      	movs	r2, #255	; 0xff
100024da:	0412      	lsls	r2, r2, #16
100024dc:	4213      	tst	r3, r2
100024de:	d001      	beq.n	100024e4 <cyw43_ll_bus_init+0x168>
100024e0:	f000 fc9a 	bl	10002e18 <cyw43_ll_bus_init+0xa9c>
100024e4:	22ff      	movs	r2, #255	; 0xff
100024e6:	0212      	lsls	r2, r2, #8
100024e8:	4213      	tst	r3, r2
100024ea:	d001      	beq.n	100024f0 <cyw43_ll_bus_init+0x174>
100024ec:	f000 fc8b 	bl	10002e06 <cyw43_ll_bus_init+0xa8a>
100024f0:	23c0      	movs	r3, #192	; 0xc0
100024f2:	055b      	lsls	r3, r3, #21
100024f4:	60a3      	str	r3, [r4, #8]
100024f6:	07ed      	lsls	r5, r5, #31
100024f8:	d401      	bmi.n	100024fe <cyw43_ll_bus_init+0x182>
100024fa:	f000 fd5f 	bl	10002fbc <cyw43_ll_bus_init+0xc40>
100024fe:	0020      	movs	r0, r4
10002500:	497c      	ldr	r1, [pc, #496]	; (100026f4 <cyw43_ll_bus_init+0x378>)
10002502:	f7ff f923 	bl	1000174c <cyw43_set_backplane_window>
10002506:	2290      	movs	r2, #144	; 0x90
10002508:	25c0      	movs	r5, #192	; 0xc0
1000250a:	2101      	movs	r1, #1
1000250c:	0020      	movs	r0, r4
1000250e:	01d2      	lsls	r2, r2, #7
10002510:	f7fe fc7e 	bl	10000e10 <cyw43_read_reg_u8>
10002514:	68a3      	ldr	r3, [r4, #8]
10002516:	056d      	lsls	r5, r5, #21
10002518:	42ab      	cmp	r3, r5
1000251a:	d013      	beq.n	10002544 <cyw43_ll_bus_init+0x1c8>
1000251c:	406b      	eors	r3, r5
1000251e:	0e1a      	lsrs	r2, r3, #24
10002520:	d001      	beq.n	10002526 <cyw43_ll_bus_init+0x1aa>
10002522:	f000 fc66 	bl	10002df2 <cyw43_ll_bus_init+0xa76>
10002526:	22ff      	movs	r2, #255	; 0xff
10002528:	0412      	lsls	r2, r2, #16
1000252a:	4213      	tst	r3, r2
1000252c:	d001      	beq.n	10002532 <cyw43_ll_bus_init+0x1b6>
1000252e:	f000 fc53 	bl	10002dd8 <cyw43_ll_bus_init+0xa5c>
10002532:	22ff      	movs	r2, #255	; 0xff
10002534:	0212      	lsls	r2, r2, #8
10002536:	4213      	tst	r3, r2
10002538:	d001      	beq.n	1000253e <cyw43_ll_bus_init+0x1c2>
1000253a:	f000 fc44 	bl	10002dc6 <cyw43_ll_bus_init+0xa4a>
1000253e:	23c0      	movs	r3, #192	; 0xc0
10002540:	055b      	lsls	r3, r3, #21
10002542:	60a3      	str	r3, [r4, #8]
10002544:	0020      	movs	r0, r4
10002546:	496b      	ldr	r1, [pc, #428]	; (100026f4 <cyw43_ll_bus_init+0x378>)
10002548:	f7ff f900 	bl	1000174c <cyw43_set_backplane_window>
1000254c:	2290      	movs	r2, #144	; 0x90
1000254e:	2101      	movs	r1, #1
10002550:	0020      	movs	r0, r4
10002552:	01d2      	lsls	r2, r2, #7
10002554:	f7fe fc5c 	bl	10000e10 <cyw43_read_reg_u8>
10002558:	27c0      	movs	r7, #192	; 0xc0
1000255a:	68a3      	ldr	r3, [r4, #8]
1000255c:	0005      	movs	r5, r0
1000255e:	057f      	lsls	r7, r7, #21
10002560:	42bb      	cmp	r3, r7
10002562:	d013      	beq.n	1000258c <cyw43_ll_bus_init+0x210>
10002564:	407b      	eors	r3, r7
10002566:	0e1a      	lsrs	r2, r3, #24
10002568:	d001      	beq.n	1000256e <cyw43_ll_bus_init+0x1f2>
1000256a:	f000 fc22 	bl	10002db2 <cyw43_ll_bus_init+0xa36>
1000256e:	22ff      	movs	r2, #255	; 0xff
10002570:	0412      	lsls	r2, r2, #16
10002572:	4213      	tst	r3, r2
10002574:	d001      	beq.n	1000257a <cyw43_ll_bus_init+0x1fe>
10002576:	f000 fc0f 	bl	10002d98 <cyw43_ll_bus_init+0xa1c>
1000257a:	22ff      	movs	r2, #255	; 0xff
1000257c:	0212      	lsls	r2, r2, #8
1000257e:	4213      	tst	r3, r2
10002580:	d001      	beq.n	10002586 <cyw43_ll_bus_init+0x20a>
10002582:	f000 fc00 	bl	10002d86 <cyw43_ll_bus_init+0xa0a>
10002586:	23c0      	movs	r3, #192	; 0xc0
10002588:	055b      	lsls	r3, r3, #21
1000258a:	60a3      	str	r3, [r4, #8]
1000258c:	07ed      	lsls	r5, r5, #31
1000258e:	d401      	bmi.n	10002594 <cyw43_ll_bus_init+0x218>
10002590:	f000 fd19 	bl	10002fc6 <cyw43_ll_bus_init+0xc4a>
10002594:	25c0      	movs	r5, #192	; 0xc0
10002596:	2102      	movs	r1, #2
10002598:	0020      	movs	r0, r4
1000259a:	f7ff fc97 	bl	10001ecc <reset_device_core.constprop.0>
1000259e:	68a3      	ldr	r3, [r4, #8]
100025a0:	056d      	lsls	r5, r5, #21
100025a2:	42ab      	cmp	r3, r5
100025a4:	d010      	beq.n	100025c8 <cyw43_ll_bus_init+0x24c>
100025a6:	406b      	eors	r3, r5
100025a8:	0e1a      	lsrs	r2, r3, #24
100025aa:	d000      	beq.n	100025ae <cyw43_ll_bus_init+0x232>
100025ac:	e3e2      	b.n	10002d74 <cyw43_ll_bus_init+0x9f8>
100025ae:	22ff      	movs	r2, #255	; 0xff
100025b0:	0412      	lsls	r2, r2, #16
100025b2:	4213      	tst	r3, r2
100025b4:	d000      	beq.n	100025b8 <cyw43_ll_bus_init+0x23c>
100025b6:	e3d1      	b.n	10002d5c <cyw43_ll_bus_init+0x9e0>
100025b8:	22ff      	movs	r2, #255	; 0xff
100025ba:	0212      	lsls	r2, r2, #8
100025bc:	4213      	tst	r3, r2
100025be:	d000      	beq.n	100025c2 <cyw43_ll_bus_init+0x246>
100025c0:	e3c4      	b.n	10002d4c <cyw43_ll_bus_init+0x9d0>
100025c2:	23c0      	movs	r3, #192	; 0xc0
100025c4:	055b      	lsls	r3, r3, #21
100025c6:	60a3      	str	r3, [r4, #8]
100025c8:	25c0      	movs	r5, #192	; 0xc0
100025ca:	2303      	movs	r3, #3
100025cc:	2101      	movs	r1, #1
100025ce:	0020      	movs	r0, r4
100025d0:	4a49      	ldr	r2, [pc, #292]	; (100026f8 <cyw43_ll_bus_init+0x37c>)
100025d2:	f7fe fd35 	bl	10001040 <cyw43_write_reg_u32>
100025d6:	68a3      	ldr	r3, [r4, #8]
100025d8:	056d      	lsls	r5, r5, #21
100025da:	42ab      	cmp	r3, r5
100025dc:	d010      	beq.n	10002600 <cyw43_ll_bus_init+0x284>
100025de:	406b      	eors	r3, r5
100025e0:	0e1a      	lsrs	r2, r3, #24
100025e2:	d000      	beq.n	100025e6 <cyw43_ll_bus_init+0x26a>
100025e4:	e3a9      	b.n	10002d3a <cyw43_ll_bus_init+0x9be>
100025e6:	22ff      	movs	r2, #255	; 0xff
100025e8:	0412      	lsls	r2, r2, #16
100025ea:	4213      	tst	r3, r2
100025ec:	d000      	beq.n	100025f0 <cyw43_ll_bus_init+0x274>
100025ee:	e398      	b.n	10002d22 <cyw43_ll_bus_init+0x9a6>
100025f0:	22ff      	movs	r2, #255	; 0xff
100025f2:	0212      	lsls	r2, r2, #8
100025f4:	4213      	tst	r3, r2
100025f6:	d000      	beq.n	100025fa <cyw43_ll_bus_init+0x27e>
100025f8:	e38b      	b.n	10002d12 <cyw43_ll_bus_init+0x996>
100025fa:	23c0      	movs	r3, #192	; 0xc0
100025fc:	055b      	lsls	r3, r3, #21
100025fe:	60a3      	str	r3, [r4, #8]
10002600:	25c0      	movs	r5, #192	; 0xc0
10002602:	2300      	movs	r3, #0
10002604:	2101      	movs	r1, #1
10002606:	0020      	movs	r0, r4
10002608:	4a3c      	ldr	r2, [pc, #240]	; (100026fc <cyw43_ll_bus_init+0x380>)
1000260a:	f7fe fd19 	bl	10001040 <cyw43_write_reg_u32>
1000260e:	68a3      	ldr	r3, [r4, #8]
10002610:	056d      	lsls	r5, r5, #21
10002612:	42ab      	cmp	r3, r5
10002614:	d010      	beq.n	10002638 <cyw43_ll_bus_init+0x2bc>
10002616:	406b      	eors	r3, r5
10002618:	0e1a      	lsrs	r2, r3, #24
1000261a:	d000      	beq.n	1000261e <cyw43_ll_bus_init+0x2a2>
1000261c:	e370      	b.n	10002d00 <cyw43_ll_bus_init+0x984>
1000261e:	22ff      	movs	r2, #255	; 0xff
10002620:	0412      	lsls	r2, r2, #16
10002622:	4213      	tst	r3, r2
10002624:	d000      	beq.n	10002628 <cyw43_ll_bus_init+0x2ac>
10002626:	e35f      	b.n	10002ce8 <cyw43_ll_bus_init+0x96c>
10002628:	22ff      	movs	r2, #255	; 0xff
1000262a:	0212      	lsls	r2, r2, #8
1000262c:	4213      	tst	r3, r2
1000262e:	d000      	beq.n	10002632 <cyw43_ll_bus_init+0x2b6>
10002630:	e352      	b.n	10002cd8 <cyw43_ll_bus_init+0x95c>
10002632:	23c0      	movs	r3, #192	; 0xc0
10002634:	055b      	lsls	r3, r3, #21
10002636:	60a3      	str	r3, [r4, #8]
10002638:	4b31      	ldr	r3, [pc, #196]	; (10002700 <cyw43_ll_bus_init+0x384>)
1000263a:	4a32      	ldr	r2, [pc, #200]	; (10002704 <cyw43_ll_bus_init+0x388>)
1000263c:	469a      	mov	sl, r3
1000263e:	4b32      	ldr	r3, [pc, #200]	; (10002708 <cyw43_ll_bus_init+0x38c>)
10002640:	4452      	add	r2, sl
10002642:	5cd1      	ldrb	r1, [r2, r3]
10002644:	4b31      	ldr	r3, [pc, #196]	; (1000270c <cyw43_ll_bus_init+0x390>)
10002646:	4453      	add	r3, sl
10002648:	785b      	ldrb	r3, [r3, #1]
1000264a:	021b      	lsls	r3, r3, #8
1000264c:	430b      	orrs	r3, r1
1000264e:	4698      	mov	r8, r3
10002650:	23fa      	movs	r3, #250	; 0xfa
10002652:	005b      	lsls	r3, r3, #1
10002654:	4598      	cmp	r8, r3
10002656:	da34      	bge.n	100026c2 <cyw43_ll_bus_init+0x346>
10002658:	4b2d      	ldr	r3, [pc, #180]	; (10002710 <cyw43_ll_bus_init+0x394>)
1000265a:	5cd3      	ldrb	r3, [r2, r3]
1000265c:	2b00      	cmp	r3, #0
1000265e:	d130      	bne.n	100026c2 <cyw43_ll_bus_init+0x346>
10002660:	4643      	mov	r3, r8
10002662:	2b50      	cmp	r3, #80	; 0x50
10002664:	dd2d      	ble.n	100026c2 <cyw43_ll_bus_init+0x346>
10002666:	4b2b      	ldr	r3, [pc, #172]	; (10002714 <cyw43_ll_bus_init+0x398>)
10002668:	4f2b      	ldr	r7, [pc, #172]	; (10002718 <cyw43_ll_bus_init+0x39c>)
1000266a:	2550      	movs	r5, #80	; 0x50
1000266c:	469b      	mov	fp, r3
1000266e:	4457      	add	r7, sl
10002670:	e002      	b.n	10002678 <cyw43_ll_bus_init+0x2fc>
10002672:	3501      	adds	r5, #1
10002674:	45a8      	cmp	r8, r5
10002676:	dd24      	ble.n	100026c2 <cyw43_ll_bus_init+0x346>
10002678:	2209      	movs	r2, #9
1000267a:	4659      	mov	r1, fp
1000267c:	1b78      	subs	r0, r7, r5
1000267e:	f007 f8c5 	bl	1000980c <strncmp>
10002682:	2800      	cmp	r0, #0
10002684:	d1f5      	bne.n	10002672 <cyw43_ll_bus_init+0x2f6>
10002686:	2340      	movs	r3, #64	; 0x40
10002688:	425b      	negs	r3, r3
1000268a:	4453      	add	r3, sl
1000268c:	4699      	mov	r9, r3
1000268e:	23db      	movs	r3, #219	; 0xdb
10002690:	029b      	lsls	r3, r3, #10
10002692:	2500      	movs	r5, #0
10002694:	4698      	mov	r8, r3
10002696:	0029      	movs	r1, r5
10002698:	0020      	movs	r0, r4
1000269a:	002f      	movs	r7, r5
1000269c:	f7ff f856 	bl	1000174c <cyw43_set_backplane_window>
100026a0:	464b      	mov	r3, r9
100026a2:	3740      	adds	r7, #64	; 0x40
100026a4:	19db      	adds	r3, r3, r7
100026a6:	046a      	lsls	r2, r5, #17
100026a8:	9300      	str	r3, [sp, #0]
100026aa:	2101      	movs	r1, #1
100026ac:	2340      	movs	r3, #64	; 0x40
100026ae:	0020      	movs	r0, r4
100026b0:	0c52      	lsrs	r2, r2, #17
100026b2:	f7fe ffdf 	bl	10001674 <cyw43_write_bytes>
100026b6:	2800      	cmp	r0, #0
100026b8:	d106      	bne.n	100026c8 <cyw43_ll_bus_init+0x34c>
100026ba:	4547      	cmp	r7, r8
100026bc:	d004      	beq.n	100026c8 <cyw43_ll_bus_init+0x34c>
100026be:	003d      	movs	r5, r7
100026c0:	e7e9      	b.n	10002696 <cyw43_ll_bus_init+0x31a>
100026c2:	4816      	ldr	r0, [pc, #88]	; (1000271c <cyw43_ll_bus_init+0x3a0>)
100026c4:	f004 fb0e 	bl	10006ce4 <__wrap_puts>
100026c8:	4b15      	ldr	r3, [pc, #84]	; (10002720 <cyw43_ll_bus_init+0x3a4>)
100026ca:	2700      	movs	r7, #0
100026cc:	4699      	mov	r9, r3
100026ce:	23c0      	movs	r3, #192	; 0xc0
100026d0:	009b      	lsls	r3, r3, #2
100026d2:	469b      	mov	fp, r3
100026d4:	4d13      	ldr	r5, [pc, #76]	; (10002724 <cyw43_ll_bus_init+0x3a8>)
100026d6:	e038      	b.n	1000274a <cyw43_ll_bus_init+0x3ce>
100026d8:	40054000 	.word	0x40054000
100026dc:	feedbead 	.word	0xfeedbead
100026e0:	10009ad8 	.word	0x10009ad8
100026e4:	000204b3 	.word	0x000204b3
100026e8:	0001000e 	.word	0x0001000e
100026ec:	10009b40 	.word	0x10009b40
100026f0:	18103800 	.word	0x18103800
100026f4:	18104800 	.word	0x18104800
100026f8:	0000c010 	.word	0x0000c010
100026fc:	0000c044 	.word	0x0000c044
10002700:	1000a624 	.word	0x1000a624
10002704:	0003689e 	.word	0x0003689e
10002708:	0000030e 	.word	0x0000030e
1000270c:	00036bac 	.word	0x00036bac
10002710:	0000030d 	.word	0x0000030d
10002714:	10009af8 	.word	0x10009af8
10002718:	00036bab 	.word	0x00036bab
1000271c:	10009b04 	.word	0x10009b04
10002720:	10009c54 	.word	0x10009c54
10002724:	0007fcfc 	.word	0x0007fcfc
10002728:	f7ff f810 	bl	1000174c <cyw43_set_backplane_window>
1000272c:	464b      	mov	r3, r9
1000272e:	046a      	lsls	r2, r5, #17
10002730:	9300      	str	r3, [sp, #0]
10002732:	2101      	movs	r1, #1
10002734:	2300      	movs	r3, #0
10002736:	0020      	movs	r0, r4
10002738:	0c52      	lsrs	r2, r2, #17
1000273a:	f7fe ff9b 	bl	10001674 <cyw43_write_bytes>
1000273e:	2800      	cmp	r0, #0
10002740:	d117      	bne.n	10002772 <cyw43_ll_bus_init+0x3f6>
10002742:	2340      	movs	r3, #64	; 0x40
10002744:	469c      	mov	ip, r3
10002746:	3540      	adds	r5, #64	; 0x40
10002748:	44e1      	add	r9, ip
1000274a:	3740      	adds	r7, #64	; 0x40
1000274c:	0029      	movs	r1, r5
1000274e:	0020      	movs	r0, r4
10002750:	455f      	cmp	r7, fp
10002752:	d8e9      	bhi.n	10002728 <cyw43_ll_bus_init+0x3ac>
10002754:	f7fe fffa 	bl	1000174c <cyw43_set_backplane_window>
10002758:	464b      	mov	r3, r9
1000275a:	046a      	lsls	r2, r5, #17
1000275c:	9300      	str	r3, [sp, #0]
1000275e:	2101      	movs	r1, #1
10002760:	2340      	movs	r3, #64	; 0x40
10002762:	0020      	movs	r0, r4
10002764:	0c52      	lsrs	r2, r2, #17
10002766:	f7fe ff85 	bl	10001674 <cyw43_write_bytes>
1000276a:	2800      	cmp	r0, #0
1000276c:	d101      	bne.n	10002772 <cyw43_ll_bus_init+0x3f6>
1000276e:	455f      	cmp	r7, fp
10002770:	d1e7      	bne.n	10002742 <cyw43_ll_bus_init+0x3c6>
10002772:	25f0      	movs	r5, #240	; 0xf0
10002774:	68a3      	ldr	r3, [r4, #8]
10002776:	02ed      	lsls	r5, r5, #11
10002778:	42ab      	cmp	r3, r5
1000277a:	d010      	beq.n	1000279e <cyw43_ll_bus_init+0x422>
1000277c:	406b      	eors	r3, r5
1000277e:	0e1a      	lsrs	r2, r3, #24
10002780:	d000      	beq.n	10002784 <cyw43_ll_bus_init+0x408>
10002782:	e2a0      	b.n	10002cc6 <cyw43_ll_bus_init+0x94a>
10002784:	22ff      	movs	r2, #255	; 0xff
10002786:	0412      	lsls	r2, r2, #16
10002788:	4213      	tst	r3, r2
1000278a:	d000      	beq.n	1000278e <cyw43_ll_bus_init+0x412>
1000278c:	e290      	b.n	10002cb0 <cyw43_ll_bus_init+0x934>
1000278e:	22ff      	movs	r2, #255	; 0xff
10002790:	0212      	lsls	r2, r2, #8
10002792:	4213      	tst	r3, r2
10002794:	d000      	beq.n	10002798 <cyw43_ll_bus_init+0x41c>
10002796:	e283      	b.n	10002ca0 <cyw43_ll_bus_init+0x924>
10002798:	23f0      	movs	r3, #240	; 0xf0
1000279a:	02db      	lsls	r3, r3, #11
1000279c:	60a3      	str	r3, [r4, #8]
1000279e:	25c0      	movs	r5, #192	; 0xc0
100027a0:	4bdd      	ldr	r3, [pc, #884]	; (10002b18 <cyw43_ll_bus_init+0x79c>)
100027a2:	2101      	movs	r1, #1
100027a4:	0020      	movs	r0, r4
100027a6:	4add      	ldr	r2, [pc, #884]	; (10002b1c <cyw43_ll_bus_init+0x7a0>)
100027a8:	f7fe fc4a 	bl	10001040 <cyw43_write_reg_u32>
100027ac:	68a3      	ldr	r3, [r4, #8]
100027ae:	056d      	lsls	r5, r5, #21
100027b0:	42ab      	cmp	r3, r5
100027b2:	d010      	beq.n	100027d6 <cyw43_ll_bus_init+0x45a>
100027b4:	406b      	eors	r3, r5
100027b6:	0e1a      	lsrs	r2, r3, #24
100027b8:	d000      	beq.n	100027bc <cyw43_ll_bus_init+0x440>
100027ba:	e268      	b.n	10002c8e <cyw43_ll_bus_init+0x912>
100027bc:	22ff      	movs	r2, #255	; 0xff
100027be:	0412      	lsls	r2, r2, #16
100027c0:	4213      	tst	r3, r2
100027c2:	d000      	beq.n	100027c6 <cyw43_ll_bus_init+0x44a>
100027c4:	e257      	b.n	10002c76 <cyw43_ll_bus_init+0x8fa>
100027c6:	22ff      	movs	r2, #255	; 0xff
100027c8:	0212      	lsls	r2, r2, #8
100027ca:	4213      	tst	r3, r2
100027cc:	d000      	beq.n	100027d0 <cyw43_ll_bus_init+0x454>
100027ce:	e24a      	b.n	10002c66 <cyw43_ll_bus_init+0x8ea>
100027d0:	23c0      	movs	r3, #192	; 0xc0
100027d2:	055b      	lsls	r3, r3, #21
100027d4:	60a3      	str	r3, [r4, #8]
100027d6:	2101      	movs	r1, #1
100027d8:	0020      	movs	r0, r4
100027da:	f7ff fb77 	bl	10001ecc <reset_device_core.constprop.0>
100027de:	0020      	movs	r0, r4
100027e0:	49cf      	ldr	r1, [pc, #828]	; (10002b20 <cyw43_ll_bus_init+0x7a4>)
100027e2:	f7fe ffb3 	bl	1000174c <cyw43_set_backplane_window>
100027e6:	4acf      	ldr	r2, [pc, #828]	; (10002b24 <cyw43_ll_bus_init+0x7a8>)
100027e8:	2101      	movs	r1, #1
100027ea:	0020      	movs	r0, r4
100027ec:	f7fe fb10 	bl	10000e10 <cyw43_read_reg_u8>
100027f0:	22c0      	movs	r2, #192	; 0xc0
100027f2:	68a3      	ldr	r3, [r4, #8]
100027f4:	0552      	lsls	r2, r2, #21
100027f6:	0005      	movs	r5, r0
100027f8:	4690      	mov	r8, r2
100027fa:	4293      	cmp	r3, r2
100027fc:	d010      	beq.n	10002820 <cyw43_ll_bus_init+0x4a4>
100027fe:	4053      	eors	r3, r2
10002800:	0e1a      	lsrs	r2, r3, #24
10002802:	d000      	beq.n	10002806 <cyw43_ll_bus_init+0x48a>
10002804:	e224      	b.n	10002c50 <cyw43_ll_bus_init+0x8d4>
10002806:	22ff      	movs	r2, #255	; 0xff
10002808:	0412      	lsls	r2, r2, #16
1000280a:	4213      	tst	r3, r2
1000280c:	d000      	beq.n	10002810 <cyw43_ll_bus_init+0x494>
1000280e:	e213      	b.n	10002c38 <cyw43_ll_bus_init+0x8bc>
10002810:	22ff      	movs	r2, #255	; 0xff
10002812:	0212      	lsls	r2, r2, #8
10002814:	4213      	tst	r3, r2
10002816:	d000      	beq.n	1000281a <cyw43_ll_bus_init+0x49e>
10002818:	e206      	b.n	10002c28 <cyw43_ll_bus_init+0x8ac>
1000281a:	23c0      	movs	r3, #192	; 0xc0
1000281c:	055b      	lsls	r3, r3, #21
1000281e:	60a3      	str	r3, [r4, #8]
10002820:	2303      	movs	r3, #3
10002822:	402b      	ands	r3, r5
10002824:	2b01      	cmp	r3, #1
10002826:	d002      	beq.n	1000282e <cyw43_ll_bus_init+0x4b2>
10002828:	48bf      	ldr	r0, [pc, #764]	; (10002b28 <cyw43_ll_bus_init+0x7ac>)
1000282a:	f004 fa5b 	bl	10006ce4 <__wrap_puts>
1000282e:	0020      	movs	r0, r4
10002830:	49be      	ldr	r1, [pc, #760]	; (10002b2c <cyw43_ll_bus_init+0x7b0>)
10002832:	f7fe ff8b 	bl	1000174c <cyw43_set_backplane_window>
10002836:	22e0      	movs	r2, #224	; 0xe0
10002838:	2101      	movs	r1, #1
1000283a:	0192      	lsls	r2, r2, #6
1000283c:	0020      	movs	r0, r4
1000283e:	f7fe fae7 	bl	10000e10 <cyw43_read_reg_u8>
10002842:	22c0      	movs	r2, #192	; 0xc0
10002844:	68a3      	ldr	r3, [r4, #8]
10002846:	0552      	lsls	r2, r2, #21
10002848:	0005      	movs	r5, r0
1000284a:	4690      	mov	r8, r2
1000284c:	4293      	cmp	r3, r2
1000284e:	d010      	beq.n	10002872 <cyw43_ll_bus_init+0x4f6>
10002850:	4053      	eors	r3, r2
10002852:	0e1a      	lsrs	r2, r3, #24
10002854:	d000      	beq.n	10002858 <cyw43_ll_bus_init+0x4dc>
10002856:	e1dc      	b.n	10002c12 <cyw43_ll_bus_init+0x896>
10002858:	22ff      	movs	r2, #255	; 0xff
1000285a:	0412      	lsls	r2, r2, #16
1000285c:	4213      	tst	r3, r2
1000285e:	d000      	beq.n	10002862 <cyw43_ll_bus_init+0x4e6>
10002860:	e1cb      	b.n	10002bfa <cyw43_ll_bus_init+0x87e>
10002862:	22ff      	movs	r2, #255	; 0xff
10002864:	0212      	lsls	r2, r2, #8
10002866:	4213      	tst	r3, r2
10002868:	d000      	beq.n	1000286c <cyw43_ll_bus_init+0x4f0>
1000286a:	e1be      	b.n	10002bea <cyw43_ll_bus_init+0x86e>
1000286c:	23c0      	movs	r3, #192	; 0xc0
1000286e:	055b      	lsls	r3, r3, #21
10002870:	60a3      	str	r3, [r4, #8]
10002872:	07ed      	lsls	r5, r5, #31
10002874:	d500      	bpl.n	10002878 <cyw43_ll_bus_init+0x4fc>
10002876:	e1b4      	b.n	10002be2 <cyw43_ll_bus_init+0x866>
10002878:	25fa      	movs	r5, #250	; 0xfa
1000287a:	2380      	movs	r3, #128	; 0x80
1000287c:	00ad      	lsls	r5, r5, #2
1000287e:	4698      	mov	r8, r3
10002880:	e006      	b.n	10002890 <cyw43_ll_bus_init+0x514>
10002882:	2001      	movs	r0, #1
10002884:	3d01      	subs	r5, #1
10002886:	f7fd fdef 	bl	10000468 <cyw43_delay_ms>
1000288a:	2d00      	cmp	r5, #0
1000288c:	d100      	bne.n	10002890 <cyw43_ll_bus_init+0x514>
1000288e:	e355      	b.n	10002f3c <cyw43_ll_bus_init+0xbc0>
10002890:	2101      	movs	r1, #1
10002892:	0020      	movs	r0, r4
10002894:	4aa6      	ldr	r2, [pc, #664]	; (10002b30 <cyw43_ll_bus_init+0x7b4>)
10002896:	f7fe fabb 	bl	10000e10 <cyw43_read_reg_u8>
1000289a:	4643      	mov	r3, r8
1000289c:	4203      	tst	r3, r0
1000289e:	d0f0      	beq.n	10002882 <cyw43_ll_bus_init+0x506>
100028a0:	25c0      	movs	r5, #192	; 0xc0
100028a2:	68a3      	ldr	r3, [r4, #8]
100028a4:	056d      	lsls	r5, r5, #21
100028a6:	42ab      	cmp	r3, r5
100028a8:	d010      	beq.n	100028cc <cyw43_ll_bus_init+0x550>
100028aa:	406b      	eors	r3, r5
100028ac:	0e1a      	lsrs	r2, r3, #24
100028ae:	d000      	beq.n	100028b2 <cyw43_ll_bus_init+0x536>
100028b0:	e32e      	b.n	10002f10 <cyw43_ll_bus_init+0xb94>
100028b2:	22ff      	movs	r2, #255	; 0xff
100028b4:	0412      	lsls	r2, r2, #16
100028b6:	4213      	tst	r3, r2
100028b8:	d000      	beq.n	100028bc <cyw43_ll_bus_init+0x540>
100028ba:	e31d      	b.n	10002ef8 <cyw43_ll_bus_init+0xb7c>
100028bc:	22ff      	movs	r2, #255	; 0xff
100028be:	0212      	lsls	r2, r2, #8
100028c0:	4213      	tst	r3, r2
100028c2:	d000      	beq.n	100028c6 <cyw43_ll_bus_init+0x54a>
100028c4:	e310      	b.n	10002ee8 <cyw43_ll_bus_init+0xb6c>
100028c6:	23c0      	movs	r3, #192	; 0xc0
100028c8:	055b      	lsls	r3, r3, #21
100028ca:	60a3      	str	r3, [r4, #8]
100028cc:	25c0      	movs	r5, #192	; 0xc0
100028ce:	23f0      	movs	r3, #240	; 0xf0
100028d0:	2101      	movs	r1, #1
100028d2:	0020      	movs	r0, r4
100028d4:	4a97      	ldr	r2, [pc, #604]	; (10002b34 <cyw43_ll_bus_init+0x7b8>)
100028d6:	f7fe fbb3 	bl	10001040 <cyw43_write_reg_u32>
100028da:	68a3      	ldr	r3, [r4, #8]
100028dc:	056d      	lsls	r5, r5, #21
100028de:	42ab      	cmp	r3, r5
100028e0:	d010      	beq.n	10002904 <cyw43_ll_bus_init+0x588>
100028e2:	406b      	eors	r3, r5
100028e4:	0e1a      	lsrs	r2, r3, #24
100028e6:	d000      	beq.n	100028ea <cyw43_ll_bus_init+0x56e>
100028e8:	e2f5      	b.n	10002ed6 <cyw43_ll_bus_init+0xb5a>
100028ea:	22ff      	movs	r2, #255	; 0xff
100028ec:	0412      	lsls	r2, r2, #16
100028ee:	4213      	tst	r3, r2
100028f0:	d000      	beq.n	100028f4 <cyw43_ll_bus_init+0x578>
100028f2:	e2e4      	b.n	10002ebe <cyw43_ll_bus_init+0xb42>
100028f4:	22ff      	movs	r2, #255	; 0xff
100028f6:	0212      	lsls	r2, r2, #8
100028f8:	4213      	tst	r3, r2
100028fa:	d000      	beq.n	100028fe <cyw43_ll_bus_init+0x582>
100028fc:	e2d7      	b.n	10002eae <cyw43_ll_bus_init+0xb32>
100028fe:	23c0      	movs	r3, #192	; 0xc0
10002900:	055b      	lsls	r3, r3, #21
10002902:	60a3      	str	r3, [r4, #8]
10002904:	2320      	movs	r3, #32
10002906:	2101      	movs	r1, #1
10002908:	0020      	movs	r0, r4
1000290a:	4a8b      	ldr	r2, [pc, #556]	; (10002b38 <cyw43_ll_bus_init+0x7bc>)
1000290c:	f7fe fd80 	bl	10001410 <cyw43_write_reg_u8>
10002910:	25fa      	movs	r5, #250	; 0xfa
10002912:	2320      	movs	r3, #32
10002914:	00ad      	lsls	r5, r5, #2
10002916:	4698      	mov	r8, r3
10002918:	e006      	b.n	10002928 <cyw43_ll_bus_init+0x5ac>
1000291a:	2001      	movs	r0, #1
1000291c:	3d01      	subs	r5, #1
1000291e:	f7fd fda3 	bl	10000468 <cyw43_delay_ms>
10002922:	2d00      	cmp	r5, #0
10002924:	d100      	bne.n	10002928 <cyw43_ll_bus_init+0x5ac>
10002926:	e310      	b.n	10002f4a <cyw43_ll_bus_init+0xbce>
10002928:	2208      	movs	r2, #8
1000292a:	2100      	movs	r1, #0
1000292c:	0020      	movs	r0, r4
1000292e:	f7fe fa03 	bl	10000d38 <cyw43_read_reg_u32>
10002932:	4643      	mov	r3, r8
10002934:	4203      	tst	r3, r0
10002936:	d0f0      	beq.n	1000291a <cyw43_ll_bus_init+0x59e>
10002938:	2101      	movs	r1, #1
1000293a:	4a80      	ldr	r2, [pc, #512]	; (10002b3c <cyw43_ll_bus_init+0x7c0>)
1000293c:	0020      	movs	r0, r4
1000293e:	f7fe fa67 	bl	10000e10 <cyw43_read_reg_u8>
10002942:	2202      	movs	r2, #2
10002944:	b2c3      	uxtb	r3, r0
10002946:	4313      	orrs	r3, r2
10002948:	2101      	movs	r1, #1
1000294a:	4a7c      	ldr	r2, [pc, #496]	; (10002b3c <cyw43_ll_bus_init+0x7c0>)
1000294c:	0020      	movs	r0, r4
1000294e:	f7fe fd5f 	bl	10001410 <cyw43_write_reg_u8>
10002952:	2308      	movs	r3, #8
10002954:	22f0      	movs	r2, #240	; 0xf0
10002956:	2100      	movs	r1, #0
10002958:	0020      	movs	r0, r4
1000295a:	f7fe fd59 	bl	10001410 <cyw43_write_reg_u8>
1000295e:	2302      	movs	r3, #2
10002960:	2101      	movs	r1, #1
10002962:	4a73      	ldr	r2, [pc, #460]	; (10002b30 <cyw43_ll_bus_init+0x7b4>)
10002964:	0020      	movs	r0, r4
10002966:	f7fe fd53 	bl	10001410 <cyw43_write_reg_u8>
1000296a:	2101      	movs	r1, #1
1000296c:	0020      	movs	r0, r4
1000296e:	4a74      	ldr	r2, [pc, #464]	; (10002b40 <cyw43_ll_bus_init+0x7c4>)
10002970:	f7fe fa4e 	bl	10000e10 <cyw43_read_reg_u8>
10002974:	07c3      	lsls	r3, r0, #31
10002976:	d400      	bmi.n	1000297a <cyw43_ll_bus_init+0x5fe>
10002978:	e290      	b.n	10002e9c <cyw43_ll_bus_init+0xb20>
1000297a:	230f      	movs	r3, #15
1000297c:	2101      	movs	r1, #1
1000297e:	4a71      	ldr	r2, [pc, #452]	; (10002b44 <cyw43_ll_bus_init+0x7c8>)
10002980:	0020      	movs	r0, r4
10002982:	f7fe fd45 	bl	10001410 <cyw43_write_reg_u8>
10002986:	2300      	movs	r3, #0
10002988:	2101      	movs	r1, #1
1000298a:	4a6e      	ldr	r2, [pc, #440]	; (10002b44 <cyw43_ll_bus_init+0x7c8>)
1000298c:	0020      	movs	r0, r4
1000298e:	f7fe fd3f 	bl	10001410 <cyw43_write_reg_u8>
10002992:	2101      	movs	r1, #1
10002994:	4a6b      	ldr	r2, [pc, #428]	; (10002b44 <cyw43_ll_bus_init+0x7c8>)
10002996:	0020      	movs	r0, r4
10002998:	f7fe fa3a 	bl	10000e10 <cyw43_read_reg_u8>
1000299c:	2204      	movs	r2, #4
1000299e:	2100      	movs	r1, #0
100029a0:	0020      	movs	r0, r4
100029a2:	f7fe f9ff 	bl	10000da4 <cyw43_read_reg_u16>
100029a6:	07c3      	lsls	r3, r0, #31
100029a8:	d500      	bpl.n	100029ac <cyw43_ll_bus_init+0x630>
100029aa:	e270      	b.n	10002e8e <cyw43_ll_bus_init+0xb12>
100029ac:	25c0      	movs	r5, #192	; 0xc0
100029ae:	68a3      	ldr	r3, [r4, #8]
100029b0:	056d      	lsls	r5, r5, #21
100029b2:	42ab      	cmp	r3, r5
100029b4:	d010      	beq.n	100029d8 <cyw43_ll_bus_init+0x65c>
100029b6:	406b      	eors	r3, r5
100029b8:	0e1a      	lsrs	r2, r3, #24
100029ba:	d000      	beq.n	100029be <cyw43_ll_bus_init+0x642>
100029bc:	e108      	b.n	10002bd0 <cyw43_ll_bus_init+0x854>
100029be:	22ff      	movs	r2, #255	; 0xff
100029c0:	0412      	lsls	r2, r2, #16
100029c2:	4213      	tst	r3, r2
100029c4:	d000      	beq.n	100029c8 <cyw43_ll_bus_init+0x64c>
100029c6:	e0f7      	b.n	10002bb8 <cyw43_ll_bus_init+0x83c>
100029c8:	22ff      	movs	r2, #255	; 0xff
100029ca:	0212      	lsls	r2, r2, #8
100029cc:	4213      	tst	r3, r2
100029ce:	d000      	beq.n	100029d2 <cyw43_ll_bus_init+0x656>
100029d0:	e0ea      	b.n	10002ba8 <cyw43_ll_bus_init+0x82c>
100029d2:	23c0      	movs	r3, #192	; 0xc0
100029d4:	055b      	lsls	r3, r3, #21
100029d6:	60a3      	str	r3, [r4, #8]
100029d8:	25c0      	movs	r5, #192	; 0xc0
100029da:	2101      	movs	r1, #1
100029dc:	0020      	movs	r0, r4
100029de:	4a5a      	ldr	r2, [pc, #360]	; (10002b48 <cyw43_ll_bus_init+0x7cc>)
100029e0:	f7fe f9aa 	bl	10000d38 <cyw43_read_reg_u32>
100029e4:	68a3      	ldr	r3, [r4, #8]
100029e6:	056d      	lsls	r5, r5, #21
100029e8:	42ab      	cmp	r3, r5
100029ea:	d010      	beq.n	10002a0e <cyw43_ll_bus_init+0x692>
100029ec:	406b      	eors	r3, r5
100029ee:	0e1a      	lsrs	r2, r3, #24
100029f0:	d000      	beq.n	100029f4 <cyw43_ll_bus_init+0x678>
100029f2:	e0d0      	b.n	10002b96 <cyw43_ll_bus_init+0x81a>
100029f4:	22ff      	movs	r2, #255	; 0xff
100029f6:	0412      	lsls	r2, r2, #16
100029f8:	4213      	tst	r3, r2
100029fa:	d000      	beq.n	100029fe <cyw43_ll_bus_init+0x682>
100029fc:	e0bf      	b.n	10002b7e <cyw43_ll_bus_init+0x802>
100029fe:	22ff      	movs	r2, #255	; 0xff
10002a00:	0212      	lsls	r2, r2, #8
10002a02:	4213      	tst	r3, r2
10002a04:	d000      	beq.n	10002a08 <cyw43_ll_bus_init+0x68c>
10002a06:	e0b2      	b.n	10002b6e <cyw43_ll_bus_init+0x7f2>
10002a08:	23c0      	movs	r3, #192	; 0xc0
10002a0a:	055b      	lsls	r3, r3, #21
10002a0c:	60a3      	str	r3, [r4, #8]
10002a0e:	0020      	movs	r0, r4
10002a10:	f000 fc42 	bl	10003298 <cyw43_cb_ensure_awake>
10002a14:	7ca3      	ldrb	r3, [r4, #18]
10002a16:	2b00      	cmp	r3, #0
10002a18:	d100      	bne.n	10002a1c <cyw43_ll_bus_init+0x6a0>
10002a1a:	e0a1      	b.n	10002b60 <cyw43_ll_bus_init+0x7e4>
10002a1c:	4b4b      	ldr	r3, [pc, #300]	; (10002b4c <cyw43_ll_bus_init+0x7d0>)
10002a1e:	0025      	movs	r5, r4
10002a20:	0019      	movs	r1, r3
10002a22:	3538      	adds	r5, #56	; 0x38
10002a24:	2208      	movs	r2, #8
10002a26:	3108      	adds	r1, #8
10002a28:	0028      	movs	r0, r5
10002a2a:	4699      	mov	r9, r3
10002a2c:	f003 fff2 	bl	10006a14 <__wrap___aeabi_memcpy>
10002a30:	4b47      	ldr	r3, [pc, #284]	; (10002b50 <cyw43_ll_bus_init+0x7d4>)
10002a32:	22f6      	movs	r2, #246	; 0xf6
10002a34:	21db      	movs	r1, #219	; 0xdb
10002a36:	6423      	str	r3, [r4, #64]	; 0x40
10002a38:	0020      	movs	r0, r4
10002a3a:	2300      	movs	r3, #0
10002a3c:	0092      	lsls	r2, r2, #2
10002a3e:	0289      	lsls	r1, r1, #10
10002a40:	6462      	str	r2, [r4, #68]	; 0x44
10002a42:	64a3      	str	r3, [r4, #72]	; 0x48
10002a44:	4451      	add	r1, sl
10002a46:	304c      	adds	r0, #76	; 0x4c
10002a48:	f003 ffe4 	bl	10006a14 <__wrap___aeabi_memcpy>
10002a4c:	23fc      	movs	r3, #252	; 0xfc
10002a4e:	2208      	movs	r2, #8
10002a50:	009b      	lsls	r3, r3, #2
10002a52:	2102      	movs	r1, #2
10002a54:	32ff      	adds	r2, #255	; 0xff
10002a56:	0020      	movs	r0, r4
10002a58:	9500      	str	r5, [sp, #0]
10002a5a:	f7ff f9b3 	bl	10001dc4 <cyw43_do_ioctl.constprop.0>
10002a5e:	4649      	mov	r1, r9
10002a60:	2213      	movs	r2, #19
10002a62:	3114      	adds	r1, #20
10002a64:	0028      	movs	r0, r5
10002a66:	f003 ffd5 	bl	10006a14 <__wrap___aeabi_memcpy>
10002a6a:	2283      	movs	r2, #131	; 0x83
10002a6c:	2313      	movs	r3, #19
10002a6e:	2100      	movs	r1, #0
10002a70:	0020      	movs	r0, r4
10002a72:	9500      	str	r5, [sp, #0]
10002a74:	0052      	lsls	r2, r2, #1
10002a76:	f7ff f9a5 	bl	10001dc4 <cyw43_do_ioctl.constprop.0>
10002a7a:	6ba3      	ldr	r3, [r4, #56]	; 0x38
10002a7c:	2b00      	cmp	r3, #0
10002a7e:	d000      	beq.n	10002a82 <cyw43_ll_bus_init+0x706>
10002a80:	e201      	b.n	10002e86 <cyw43_ll_bus_init+0xb0a>
10002a82:	220b      	movs	r2, #11
10002a84:	4933      	ldr	r1, [pc, #204]	; (10002b54 <cyw43_ll_bus_init+0x7d8>)
10002a86:	0028      	movs	r0, r5
10002a88:	f003 ffc4 	bl	10006a14 <__wrap___aeabi_memcpy>
10002a8c:	2300      	movs	r3, #0
10002a8e:	4698      	mov	r8, r3
10002a90:	4642      	mov	r2, r8
10002a92:	3343      	adds	r3, #67	; 0x43
10002a94:	54e2      	strb	r2, [r4, r3]
10002a96:	3301      	adds	r3, #1
10002a98:	54e2      	strb	r2, [r4, r3]
10002a9a:	3301      	adds	r3, #1
10002a9c:	54e2      	strb	r2, [r4, r3]
10002a9e:	3301      	adds	r3, #1
10002aa0:	54e2      	strb	r2, [r4, r3]
10002aa2:	9201      	str	r2, [sp, #4]
10002aa4:	4643      	mov	r3, r8
10002aa6:	2208      	movs	r2, #8
10002aa8:	330f      	adds	r3, #15
10002aaa:	2102      	movs	r1, #2
10002aac:	32ff      	adds	r2, #255	; 0xff
10002aae:	0020      	movs	r0, r4
10002ab0:	9500      	str	r5, [sp, #0]
10002ab2:	f7ff f8ff 	bl	10001cb4 <cyw43_do_ioctl>
10002ab6:	2206      	movs	r2, #6
10002ab8:	4927      	ldr	r1, [pc, #156]	; (10002b58 <cyw43_ll_bus_init+0x7dc>)
10002aba:	0028      	movs	r0, r5
10002abc:	f003 ffaa 	bl	10006a14 <__wrap___aeabi_memcpy>
10002ac0:	233e      	movs	r3, #62	; 0x3e
10002ac2:	2201      	movs	r2, #1
10002ac4:	54e2      	strb	r2, [r4, r3]
10002ac6:	4642      	mov	r2, r8
10002ac8:	3301      	adds	r3, #1
10002aca:	54e2      	strb	r2, [r4, r3]
10002acc:	3301      	adds	r3, #1
10002ace:	54e2      	strb	r2, [r4, r3]
10002ad0:	3301      	adds	r3, #1
10002ad2:	54e2      	strb	r2, [r4, r3]
10002ad4:	9201      	str	r2, [sp, #4]
10002ad6:	4643      	mov	r3, r8
10002ad8:	2208      	movs	r2, #8
10002ada:	330a      	adds	r3, #10
10002adc:	2102      	movs	r1, #2
10002ade:	0020      	movs	r0, r4
10002ae0:	9500      	str	r5, [sp, #0]
10002ae2:	32ff      	adds	r2, #255	; 0xff
10002ae4:	f7ff f8e6 	bl	10001cb4 <cyw43_do_ioctl>
10002ae8:	9b03      	ldr	r3, [sp, #12]
10002aea:	2b00      	cmp	r3, #0
10002aec:	d100      	bne.n	10002af0 <cyw43_ll_bus_init+0x774>
10002aee:	e233      	b.n	10002f58 <cyw43_ll_bus_init+0xbdc>
10002af0:	0020      	movs	r0, r4
10002af2:	9903      	ldr	r1, [sp, #12]
10002af4:	2206      	movs	r2, #6
10002af6:	3046      	adds	r0, #70	; 0x46
10002af8:	f006 fe32 	bl	10009760 <memmove>
10002afc:	220e      	movs	r2, #14
10002afe:	0028      	movs	r0, r5
10002b00:	4916      	ldr	r1, [pc, #88]	; (10002b5c <cyw43_ll_bus_init+0x7e0>)
10002b02:	f003 ff87 	bl	10006a14 <__wrap___aeabi_memcpy>
10002b06:	2208      	movs	r2, #8
10002b08:	2314      	movs	r3, #20
10002b0a:	2102      	movs	r1, #2
10002b0c:	0020      	movs	r0, r4
10002b0e:	9500      	str	r5, [sp, #0]
10002b10:	32ff      	adds	r2, #255	; 0xff
10002b12:	f7ff f957 	bl	10001dc4 <cyw43_do_ioctl.constprop.0>
10002b16:	e459      	b.n	100023cc <cyw43_ll_bus_init+0x50>
10002b18:	ff3f00c0 	.word	0xff3f00c0
10002b1c:	0000fffc 	.word	0x0000fffc
10002b20:	18103408 	.word	0x18103408
10002b24:	00003408 	.word	0x00003408
10002b28:	10009b2c 	.word	0x10009b2c
10002b2c:	18103800 	.word	0x18103800
10002b30:	0001000e 	.word	0x0001000e
10002b34:	0000a024 	.word	0x0000a024
10002b38:	00010008 	.word	0x00010008
10002b3c:	0001001e 	.word	0x0001001e
10002b40:	0001001f 	.word	0x0001001f
10002b44:	0001000f 	.word	0x0001000f
10002b48:	00008508 	.word	0x00008508
10002b4c:	10009be0 	.word	0x10009be0
10002b50:	00021006 	.word	0x00021006
10002b54:	10009bb4 	.word	0x10009bb4
10002b58:	10009bc0 	.word	0x10009bc0
10002b5c:	10009bc8 	.word	0x10009bc8
10002b60:	2101      	movs	r1, #1
10002b62:	0020      	movs	r0, r4
10002b64:	f7fe febe 	bl	100018e4 <cyw43_kso_set>
10002b68:	2301      	movs	r3, #1
10002b6a:	74a3      	strb	r3, [r4, #18]
10002b6c:	e756      	b.n	10002a1c <cyw43_ll_bus_init+0x6a0>
10002b6e:	23c0      	movs	r3, #192	; 0xc0
10002b70:	2101      	movs	r1, #1
10002b72:	0020      	movs	r0, r4
10002b74:	4aeb      	ldr	r2, [pc, #940]	; (10002f24 <cyw43_ll_bus_init+0xba8>)
10002b76:	035b      	lsls	r3, r3, #13
10002b78:	f7fe fc4a 	bl	10001410 <cyw43_write_reg_u8>
10002b7c:	e744      	b.n	10002a08 <cyw43_ll_bus_init+0x68c>
10002b7e:	23c0      	movs	r3, #192	; 0xc0
10002b80:	4ae9      	ldr	r2, [pc, #932]	; (10002f28 <cyw43_ll_bus_init+0xbac>)
10002b82:	015b      	lsls	r3, r3, #5
10002b84:	2101      	movs	r1, #1
10002b86:	0020      	movs	r0, r4
10002b88:	f7fe fc42 	bl	10001410 <cyw43_write_reg_u8>
10002b8c:	23c0      	movs	r3, #192	; 0xc0
10002b8e:	68a2      	ldr	r2, [r4, #8]
10002b90:	055b      	lsls	r3, r3, #21
10002b92:	4053      	eors	r3, r2
10002b94:	e733      	b.n	100029fe <cyw43_ll_bus_init+0x682>
10002b96:	2318      	movs	r3, #24
10002b98:	2101      	movs	r1, #1
10002b9a:	0020      	movs	r0, r4
10002b9c:	4ae3      	ldr	r2, [pc, #908]	; (10002f2c <cyw43_ll_bus_init+0xbb0>)
10002b9e:	f7fe fc37 	bl	10001410 <cyw43_write_reg_u8>
10002ba2:	68a3      	ldr	r3, [r4, #8]
10002ba4:	406b      	eors	r3, r5
10002ba6:	e725      	b.n	100029f4 <cyw43_ll_bus_init+0x678>
10002ba8:	23c0      	movs	r3, #192	; 0xc0
10002baa:	2101      	movs	r1, #1
10002bac:	0020      	movs	r0, r4
10002bae:	4add      	ldr	r2, [pc, #884]	; (10002f24 <cyw43_ll_bus_init+0xba8>)
10002bb0:	035b      	lsls	r3, r3, #13
10002bb2:	f7fe fc2d 	bl	10001410 <cyw43_write_reg_u8>
10002bb6:	e70c      	b.n	100029d2 <cyw43_ll_bus_init+0x656>
10002bb8:	23c0      	movs	r3, #192	; 0xc0
10002bba:	4adb      	ldr	r2, [pc, #876]	; (10002f28 <cyw43_ll_bus_init+0xbac>)
10002bbc:	015b      	lsls	r3, r3, #5
10002bbe:	2101      	movs	r1, #1
10002bc0:	0020      	movs	r0, r4
10002bc2:	f7fe fc25 	bl	10001410 <cyw43_write_reg_u8>
10002bc6:	23c0      	movs	r3, #192	; 0xc0
10002bc8:	68a2      	ldr	r2, [r4, #8]
10002bca:	055b      	lsls	r3, r3, #21
10002bcc:	4053      	eors	r3, r2
10002bce:	e6fb      	b.n	100029c8 <cyw43_ll_bus_init+0x64c>
10002bd0:	2318      	movs	r3, #24
10002bd2:	2101      	movs	r1, #1
10002bd4:	0020      	movs	r0, r4
10002bd6:	4ad5      	ldr	r2, [pc, #852]	; (10002f2c <cyw43_ll_bus_init+0xbb0>)
10002bd8:	f7fe fc1a 	bl	10001410 <cyw43_write_reg_u8>
10002bdc:	68a3      	ldr	r3, [r4, #8]
10002bde:	406b      	eors	r3, r5
10002be0:	e6ed      	b.n	100029be <cyw43_ll_bus_init+0x642>
10002be2:	48d3      	ldr	r0, [pc, #844]	; (10002f30 <cyw43_ll_bus_init+0xbb4>)
10002be4:	f004 f87e 	bl	10006ce4 <__wrap_puts>
10002be8:	e646      	b.n	10002878 <cyw43_ll_bus_init+0x4fc>
10002bea:	23c0      	movs	r3, #192	; 0xc0
10002bec:	2101      	movs	r1, #1
10002bee:	0020      	movs	r0, r4
10002bf0:	4acc      	ldr	r2, [pc, #816]	; (10002f24 <cyw43_ll_bus_init+0xba8>)
10002bf2:	035b      	lsls	r3, r3, #13
10002bf4:	f7fe fc0c 	bl	10001410 <cyw43_write_reg_u8>
10002bf8:	e638      	b.n	1000286c <cyw43_ll_bus_init+0x4f0>
10002bfa:	23c0      	movs	r3, #192	; 0xc0
10002bfc:	4aca      	ldr	r2, [pc, #808]	; (10002f28 <cyw43_ll_bus_init+0xbac>)
10002bfe:	015b      	lsls	r3, r3, #5
10002c00:	2101      	movs	r1, #1
10002c02:	0020      	movs	r0, r4
10002c04:	f7fe fc04 	bl	10001410 <cyw43_write_reg_u8>
10002c08:	23c0      	movs	r3, #192	; 0xc0
10002c0a:	68a2      	ldr	r2, [r4, #8]
10002c0c:	055b      	lsls	r3, r3, #21
10002c0e:	4053      	eors	r3, r2
10002c10:	e627      	b.n	10002862 <cyw43_ll_bus_init+0x4e6>
10002c12:	2318      	movs	r3, #24
10002c14:	4ac5      	ldr	r2, [pc, #788]	; (10002f2c <cyw43_ll_bus_init+0xbb0>)
10002c16:	2101      	movs	r1, #1
10002c18:	0020      	movs	r0, r4
10002c1a:	f7fe fbf9 	bl	10001410 <cyw43_write_reg_u8>
10002c1e:	4642      	mov	r2, r8
10002c20:	68a3      	ldr	r3, [r4, #8]
10002c22:	405a      	eors	r2, r3
10002c24:	0013      	movs	r3, r2
10002c26:	e617      	b.n	10002858 <cyw43_ll_bus_init+0x4dc>
10002c28:	23c0      	movs	r3, #192	; 0xc0
10002c2a:	2101      	movs	r1, #1
10002c2c:	0020      	movs	r0, r4
10002c2e:	4abd      	ldr	r2, [pc, #756]	; (10002f24 <cyw43_ll_bus_init+0xba8>)
10002c30:	035b      	lsls	r3, r3, #13
10002c32:	f7fe fbed 	bl	10001410 <cyw43_write_reg_u8>
10002c36:	e5f0      	b.n	1000281a <cyw43_ll_bus_init+0x49e>
10002c38:	23c0      	movs	r3, #192	; 0xc0
10002c3a:	4abb      	ldr	r2, [pc, #748]	; (10002f28 <cyw43_ll_bus_init+0xbac>)
10002c3c:	015b      	lsls	r3, r3, #5
10002c3e:	2101      	movs	r1, #1
10002c40:	0020      	movs	r0, r4
10002c42:	f7fe fbe5 	bl	10001410 <cyw43_write_reg_u8>
10002c46:	23c0      	movs	r3, #192	; 0xc0
10002c48:	68a2      	ldr	r2, [r4, #8]
10002c4a:	055b      	lsls	r3, r3, #21
10002c4c:	4053      	eors	r3, r2
10002c4e:	e5df      	b.n	10002810 <cyw43_ll_bus_init+0x494>
10002c50:	2318      	movs	r3, #24
10002c52:	4ab6      	ldr	r2, [pc, #728]	; (10002f2c <cyw43_ll_bus_init+0xbb0>)
10002c54:	2101      	movs	r1, #1
10002c56:	0020      	movs	r0, r4
10002c58:	f7fe fbda 	bl	10001410 <cyw43_write_reg_u8>
10002c5c:	4642      	mov	r2, r8
10002c5e:	68a3      	ldr	r3, [r4, #8]
10002c60:	405a      	eors	r2, r3
10002c62:	0013      	movs	r3, r2
10002c64:	e5cf      	b.n	10002806 <cyw43_ll_bus_init+0x48a>
10002c66:	23c0      	movs	r3, #192	; 0xc0
10002c68:	2101      	movs	r1, #1
10002c6a:	0020      	movs	r0, r4
10002c6c:	4aad      	ldr	r2, [pc, #692]	; (10002f24 <cyw43_ll_bus_init+0xba8>)
10002c6e:	035b      	lsls	r3, r3, #13
10002c70:	f7fe fbce 	bl	10001410 <cyw43_write_reg_u8>
10002c74:	e5ac      	b.n	100027d0 <cyw43_ll_bus_init+0x454>
10002c76:	23c0      	movs	r3, #192	; 0xc0
10002c78:	4aab      	ldr	r2, [pc, #684]	; (10002f28 <cyw43_ll_bus_init+0xbac>)
10002c7a:	015b      	lsls	r3, r3, #5
10002c7c:	2101      	movs	r1, #1
10002c7e:	0020      	movs	r0, r4
10002c80:	f7fe fbc6 	bl	10001410 <cyw43_write_reg_u8>
10002c84:	23c0      	movs	r3, #192	; 0xc0
10002c86:	68a2      	ldr	r2, [r4, #8]
10002c88:	055b      	lsls	r3, r3, #21
10002c8a:	4053      	eors	r3, r2
10002c8c:	e59b      	b.n	100027c6 <cyw43_ll_bus_init+0x44a>
10002c8e:	2318      	movs	r3, #24
10002c90:	2101      	movs	r1, #1
10002c92:	0020      	movs	r0, r4
10002c94:	4aa5      	ldr	r2, [pc, #660]	; (10002f2c <cyw43_ll_bus_init+0xbb0>)
10002c96:	f7fe fbbb 	bl	10001410 <cyw43_write_reg_u8>
10002c9a:	68a3      	ldr	r3, [r4, #8]
10002c9c:	406b      	eors	r3, r5
10002c9e:	e58d      	b.n	100027bc <cyw43_ll_bus_init+0x440>
10002ca0:	23f0      	movs	r3, #240	; 0xf0
10002ca2:	2101      	movs	r1, #1
10002ca4:	0020      	movs	r0, r4
10002ca6:	4a9f      	ldr	r2, [pc, #636]	; (10002f24 <cyw43_ll_bus_init+0xba8>)
10002ca8:	00db      	lsls	r3, r3, #3
10002caa:	f7fe fbb1 	bl	10001410 <cyw43_write_reg_u8>
10002cae:	e573      	b.n	10002798 <cyw43_ll_bus_init+0x41c>
10002cb0:	2307      	movs	r3, #7
10002cb2:	4a9d      	ldr	r2, [pc, #628]	; (10002f28 <cyw43_ll_bus_init+0xbac>)
10002cb4:	2101      	movs	r1, #1
10002cb6:	0020      	movs	r0, r4
10002cb8:	f7fe fbaa 	bl	10001410 <cyw43_write_reg_u8>
10002cbc:	23f0      	movs	r3, #240	; 0xf0
10002cbe:	68a2      	ldr	r2, [r4, #8]
10002cc0:	02db      	lsls	r3, r3, #11
10002cc2:	4053      	eors	r3, r2
10002cc4:	e563      	b.n	1000278e <cyw43_ll_bus_init+0x412>
10002cc6:	2300      	movs	r3, #0
10002cc8:	2101      	movs	r1, #1
10002cca:	0020      	movs	r0, r4
10002ccc:	4a97      	ldr	r2, [pc, #604]	; (10002f2c <cyw43_ll_bus_init+0xbb0>)
10002cce:	f7fe fb9f 	bl	10001410 <cyw43_write_reg_u8>
10002cd2:	68a3      	ldr	r3, [r4, #8]
10002cd4:	406b      	eors	r3, r5
10002cd6:	e555      	b.n	10002784 <cyw43_ll_bus_init+0x408>
10002cd8:	23c0      	movs	r3, #192	; 0xc0
10002cda:	2101      	movs	r1, #1
10002cdc:	0020      	movs	r0, r4
10002cde:	4a91      	ldr	r2, [pc, #580]	; (10002f24 <cyw43_ll_bus_init+0xba8>)
10002ce0:	035b      	lsls	r3, r3, #13
10002ce2:	f7fe fb95 	bl	10001410 <cyw43_write_reg_u8>
10002ce6:	e4a4      	b.n	10002632 <cyw43_ll_bus_init+0x2b6>
10002ce8:	23c0      	movs	r3, #192	; 0xc0
10002cea:	4a8f      	ldr	r2, [pc, #572]	; (10002f28 <cyw43_ll_bus_init+0xbac>)
10002cec:	015b      	lsls	r3, r3, #5
10002cee:	2101      	movs	r1, #1
10002cf0:	0020      	movs	r0, r4
10002cf2:	f7fe fb8d 	bl	10001410 <cyw43_write_reg_u8>
10002cf6:	23c0      	movs	r3, #192	; 0xc0
10002cf8:	68a2      	ldr	r2, [r4, #8]
10002cfa:	055b      	lsls	r3, r3, #21
10002cfc:	4053      	eors	r3, r2
10002cfe:	e493      	b.n	10002628 <cyw43_ll_bus_init+0x2ac>
10002d00:	2318      	movs	r3, #24
10002d02:	2101      	movs	r1, #1
10002d04:	0020      	movs	r0, r4
10002d06:	4a89      	ldr	r2, [pc, #548]	; (10002f2c <cyw43_ll_bus_init+0xbb0>)
10002d08:	f7fe fb82 	bl	10001410 <cyw43_write_reg_u8>
10002d0c:	68a3      	ldr	r3, [r4, #8]
10002d0e:	406b      	eors	r3, r5
10002d10:	e485      	b.n	1000261e <cyw43_ll_bus_init+0x2a2>
10002d12:	23c0      	movs	r3, #192	; 0xc0
10002d14:	2101      	movs	r1, #1
10002d16:	0020      	movs	r0, r4
10002d18:	4a82      	ldr	r2, [pc, #520]	; (10002f24 <cyw43_ll_bus_init+0xba8>)
10002d1a:	035b      	lsls	r3, r3, #13
10002d1c:	f7fe fb78 	bl	10001410 <cyw43_write_reg_u8>
10002d20:	e46b      	b.n	100025fa <cyw43_ll_bus_init+0x27e>
10002d22:	23c0      	movs	r3, #192	; 0xc0
10002d24:	4a80      	ldr	r2, [pc, #512]	; (10002f28 <cyw43_ll_bus_init+0xbac>)
10002d26:	015b      	lsls	r3, r3, #5
10002d28:	2101      	movs	r1, #1
10002d2a:	0020      	movs	r0, r4
10002d2c:	f7fe fb70 	bl	10001410 <cyw43_write_reg_u8>
10002d30:	23c0      	movs	r3, #192	; 0xc0
10002d32:	68a2      	ldr	r2, [r4, #8]
10002d34:	055b      	lsls	r3, r3, #21
10002d36:	4053      	eors	r3, r2
10002d38:	e45a      	b.n	100025f0 <cyw43_ll_bus_init+0x274>
10002d3a:	2318      	movs	r3, #24
10002d3c:	2101      	movs	r1, #1
10002d3e:	0020      	movs	r0, r4
10002d40:	4a7a      	ldr	r2, [pc, #488]	; (10002f2c <cyw43_ll_bus_init+0xbb0>)
10002d42:	f7fe fb65 	bl	10001410 <cyw43_write_reg_u8>
10002d46:	68a3      	ldr	r3, [r4, #8]
10002d48:	406b      	eors	r3, r5
10002d4a:	e44c      	b.n	100025e6 <cyw43_ll_bus_init+0x26a>
10002d4c:	23c0      	movs	r3, #192	; 0xc0
10002d4e:	2101      	movs	r1, #1
10002d50:	0020      	movs	r0, r4
10002d52:	4a74      	ldr	r2, [pc, #464]	; (10002f24 <cyw43_ll_bus_init+0xba8>)
10002d54:	035b      	lsls	r3, r3, #13
10002d56:	f7fe fb5b 	bl	10001410 <cyw43_write_reg_u8>
10002d5a:	e432      	b.n	100025c2 <cyw43_ll_bus_init+0x246>
10002d5c:	23c0      	movs	r3, #192	; 0xc0
10002d5e:	4a72      	ldr	r2, [pc, #456]	; (10002f28 <cyw43_ll_bus_init+0xbac>)
10002d60:	015b      	lsls	r3, r3, #5
10002d62:	2101      	movs	r1, #1
10002d64:	0020      	movs	r0, r4
10002d66:	f7fe fb53 	bl	10001410 <cyw43_write_reg_u8>
10002d6a:	23c0      	movs	r3, #192	; 0xc0
10002d6c:	68a2      	ldr	r2, [r4, #8]
10002d6e:	055b      	lsls	r3, r3, #21
10002d70:	4053      	eors	r3, r2
10002d72:	e421      	b.n	100025b8 <cyw43_ll_bus_init+0x23c>
10002d74:	2318      	movs	r3, #24
10002d76:	2101      	movs	r1, #1
10002d78:	0020      	movs	r0, r4
10002d7a:	4a6c      	ldr	r2, [pc, #432]	; (10002f2c <cyw43_ll_bus_init+0xbb0>)
10002d7c:	f7fe fb48 	bl	10001410 <cyw43_write_reg_u8>
10002d80:	68a3      	ldr	r3, [r4, #8]
10002d82:	406b      	eors	r3, r5
10002d84:	e413      	b.n	100025ae <cyw43_ll_bus_init+0x232>
10002d86:	23c0      	movs	r3, #192	; 0xc0
10002d88:	2101      	movs	r1, #1
10002d8a:	0020      	movs	r0, r4
10002d8c:	4a65      	ldr	r2, [pc, #404]	; (10002f24 <cyw43_ll_bus_init+0xba8>)
10002d8e:	035b      	lsls	r3, r3, #13
10002d90:	f7fe fb3e 	bl	10001410 <cyw43_write_reg_u8>
10002d94:	f7ff fbf7 	bl	10002586 <cyw43_ll_bus_init+0x20a>
10002d98:	23c0      	movs	r3, #192	; 0xc0
10002d9a:	4a63      	ldr	r2, [pc, #396]	; (10002f28 <cyw43_ll_bus_init+0xbac>)
10002d9c:	015b      	lsls	r3, r3, #5
10002d9e:	2101      	movs	r1, #1
10002da0:	0020      	movs	r0, r4
10002da2:	f7fe fb35 	bl	10001410 <cyw43_write_reg_u8>
10002da6:	23c0      	movs	r3, #192	; 0xc0
10002da8:	68a2      	ldr	r2, [r4, #8]
10002daa:	055b      	lsls	r3, r3, #21
10002dac:	4053      	eors	r3, r2
10002dae:	f7ff fbe4 	bl	1000257a <cyw43_ll_bus_init+0x1fe>
10002db2:	2318      	movs	r3, #24
10002db4:	2101      	movs	r1, #1
10002db6:	0020      	movs	r0, r4
10002db8:	4a5c      	ldr	r2, [pc, #368]	; (10002f2c <cyw43_ll_bus_init+0xbb0>)
10002dba:	f7fe fb29 	bl	10001410 <cyw43_write_reg_u8>
10002dbe:	68a3      	ldr	r3, [r4, #8]
10002dc0:	407b      	eors	r3, r7
10002dc2:	f7ff fbd4 	bl	1000256e <cyw43_ll_bus_init+0x1f2>
10002dc6:	23c0      	movs	r3, #192	; 0xc0
10002dc8:	2101      	movs	r1, #1
10002dca:	0020      	movs	r0, r4
10002dcc:	4a55      	ldr	r2, [pc, #340]	; (10002f24 <cyw43_ll_bus_init+0xba8>)
10002dce:	035b      	lsls	r3, r3, #13
10002dd0:	f7fe fb1e 	bl	10001410 <cyw43_write_reg_u8>
10002dd4:	f7ff fbb3 	bl	1000253e <cyw43_ll_bus_init+0x1c2>
10002dd8:	23c0      	movs	r3, #192	; 0xc0
10002dda:	4a53      	ldr	r2, [pc, #332]	; (10002f28 <cyw43_ll_bus_init+0xbac>)
10002ddc:	015b      	lsls	r3, r3, #5
10002dde:	2101      	movs	r1, #1
10002de0:	0020      	movs	r0, r4
10002de2:	f7fe fb15 	bl	10001410 <cyw43_write_reg_u8>
10002de6:	23c0      	movs	r3, #192	; 0xc0
10002de8:	68a2      	ldr	r2, [r4, #8]
10002dea:	055b      	lsls	r3, r3, #21
10002dec:	4053      	eors	r3, r2
10002dee:	f7ff fba0 	bl	10002532 <cyw43_ll_bus_init+0x1b6>
10002df2:	2318      	movs	r3, #24
10002df4:	2101      	movs	r1, #1
10002df6:	0020      	movs	r0, r4
10002df8:	4a4c      	ldr	r2, [pc, #304]	; (10002f2c <cyw43_ll_bus_init+0xbb0>)
10002dfa:	f7fe fb09 	bl	10001410 <cyw43_write_reg_u8>
10002dfe:	68a3      	ldr	r3, [r4, #8]
10002e00:	406b      	eors	r3, r5
10002e02:	f7ff fb90 	bl	10002526 <cyw43_ll_bus_init+0x1aa>
10002e06:	23c0      	movs	r3, #192	; 0xc0
10002e08:	2101      	movs	r1, #1
10002e0a:	0020      	movs	r0, r4
10002e0c:	4a45      	ldr	r2, [pc, #276]	; (10002f24 <cyw43_ll_bus_init+0xba8>)
10002e0e:	035b      	lsls	r3, r3, #13
10002e10:	f7fe fafe 	bl	10001410 <cyw43_write_reg_u8>
10002e14:	f7ff fb6c 	bl	100024f0 <cyw43_ll_bus_init+0x174>
10002e18:	23c0      	movs	r3, #192	; 0xc0
10002e1a:	4a43      	ldr	r2, [pc, #268]	; (10002f28 <cyw43_ll_bus_init+0xbac>)
10002e1c:	015b      	lsls	r3, r3, #5
10002e1e:	2101      	movs	r1, #1
10002e20:	0020      	movs	r0, r4
10002e22:	f7fe faf5 	bl	10001410 <cyw43_write_reg_u8>
10002e26:	23c0      	movs	r3, #192	; 0xc0
10002e28:	68a2      	ldr	r2, [r4, #8]
10002e2a:	055b      	lsls	r3, r3, #21
10002e2c:	4053      	eors	r3, r2
10002e2e:	f7ff fb59 	bl	100024e4 <cyw43_ll_bus_init+0x168>
10002e32:	2318      	movs	r3, #24
10002e34:	2101      	movs	r1, #1
10002e36:	0020      	movs	r0, r4
10002e38:	4a3c      	ldr	r2, [pc, #240]	; (10002f2c <cyw43_ll_bus_init+0xbb0>)
10002e3a:	f7fe fae9 	bl	10001410 <cyw43_write_reg_u8>
10002e3e:	68a3      	ldr	r3, [r4, #8]
10002e40:	407b      	eors	r3, r7
10002e42:	f7ff fb49 	bl	100024d8 <cyw43_ll_bus_init+0x15c>
10002e46:	23c0      	movs	r3, #192	; 0xc0
10002e48:	2101      	movs	r1, #1
10002e4a:	0020      	movs	r0, r4
10002e4c:	4a35      	ldr	r2, [pc, #212]	; (10002f24 <cyw43_ll_bus_init+0xba8>)
10002e4e:	035b      	lsls	r3, r3, #13
10002e50:	f7fe fade 	bl	10001410 <cyw43_write_reg_u8>
10002e54:	f7ff fb28 	bl	100024a8 <cyw43_ll_bus_init+0x12c>
10002e58:	23c0      	movs	r3, #192	; 0xc0
10002e5a:	4a33      	ldr	r2, [pc, #204]	; (10002f28 <cyw43_ll_bus_init+0xbac>)
10002e5c:	015b      	lsls	r3, r3, #5
10002e5e:	2101      	movs	r1, #1
10002e60:	0020      	movs	r0, r4
10002e62:	f7fe fad5 	bl	10001410 <cyw43_write_reg_u8>
10002e66:	23c0      	movs	r3, #192	; 0xc0
10002e68:	68a2      	ldr	r2, [r4, #8]
10002e6a:	055b      	lsls	r3, r3, #21
10002e6c:	4053      	eors	r3, r2
10002e6e:	f7ff fb15 	bl	1000249c <cyw43_ll_bus_init+0x120>
10002e72:	2318      	movs	r3, #24
10002e74:	2101      	movs	r1, #1
10002e76:	0020      	movs	r0, r4
10002e78:	4a2c      	ldr	r2, [pc, #176]	; (10002f2c <cyw43_ll_bus_init+0xbb0>)
10002e7a:	f7fe fac9 	bl	10001410 <cyw43_write_reg_u8>
10002e7e:	68a3      	ldr	r3, [r4, #8]
10002e80:	406b      	eors	r3, r5
10002e82:	f7ff fb05 	bl	10002490 <cyw43_ll_bus_init+0x114>
10002e86:	482b      	ldr	r0, [pc, #172]	; (10002f34 <cyw43_ll_bus_init+0xbb8>)
10002e88:	f003 ffcc 	bl	10006e24 <__wrap_printf>
10002e8c:	e5f9      	b.n	10002a82 <cyw43_ll_bus_init+0x706>
10002e8e:	b283      	uxth	r3, r0
10002e90:	2204      	movs	r2, #4
10002e92:	2100      	movs	r1, #0
10002e94:	0020      	movs	r0, r4
10002e96:	f7fe f9c7 	bl	10001228 <cyw43_write_reg_u16>
10002e9a:	e587      	b.n	100029ac <cyw43_ll_bus_init+0x630>
10002e9c:	2201      	movs	r2, #1
10002e9e:	b2c3      	uxtb	r3, r0
10002ea0:	4313      	orrs	r3, r2
10002ea2:	2101      	movs	r1, #1
10002ea4:	0020      	movs	r0, r4
10002ea6:	4a24      	ldr	r2, [pc, #144]	; (10002f38 <cyw43_ll_bus_init+0xbbc>)
10002ea8:	f7fe fab2 	bl	10001410 <cyw43_write_reg_u8>
10002eac:	e565      	b.n	1000297a <cyw43_ll_bus_init+0x5fe>
10002eae:	23c0      	movs	r3, #192	; 0xc0
10002eb0:	2101      	movs	r1, #1
10002eb2:	0020      	movs	r0, r4
10002eb4:	4a1b      	ldr	r2, [pc, #108]	; (10002f24 <cyw43_ll_bus_init+0xba8>)
10002eb6:	035b      	lsls	r3, r3, #13
10002eb8:	f7fe faaa 	bl	10001410 <cyw43_write_reg_u8>
10002ebc:	e51f      	b.n	100028fe <cyw43_ll_bus_init+0x582>
10002ebe:	23c0      	movs	r3, #192	; 0xc0
10002ec0:	4a19      	ldr	r2, [pc, #100]	; (10002f28 <cyw43_ll_bus_init+0xbac>)
10002ec2:	015b      	lsls	r3, r3, #5
10002ec4:	2101      	movs	r1, #1
10002ec6:	0020      	movs	r0, r4
10002ec8:	f7fe faa2 	bl	10001410 <cyw43_write_reg_u8>
10002ecc:	23c0      	movs	r3, #192	; 0xc0
10002ece:	68a2      	ldr	r2, [r4, #8]
10002ed0:	055b      	lsls	r3, r3, #21
10002ed2:	4053      	eors	r3, r2
10002ed4:	e50e      	b.n	100028f4 <cyw43_ll_bus_init+0x578>
10002ed6:	2318      	movs	r3, #24
10002ed8:	2101      	movs	r1, #1
10002eda:	0020      	movs	r0, r4
10002edc:	4a13      	ldr	r2, [pc, #76]	; (10002f2c <cyw43_ll_bus_init+0xbb0>)
10002ede:	f7fe fa97 	bl	10001410 <cyw43_write_reg_u8>
10002ee2:	68a3      	ldr	r3, [r4, #8]
10002ee4:	406b      	eors	r3, r5
10002ee6:	e500      	b.n	100028ea <cyw43_ll_bus_init+0x56e>
10002ee8:	23c0      	movs	r3, #192	; 0xc0
10002eea:	2101      	movs	r1, #1
10002eec:	0020      	movs	r0, r4
10002eee:	4a0d      	ldr	r2, [pc, #52]	; (10002f24 <cyw43_ll_bus_init+0xba8>)
10002ef0:	035b      	lsls	r3, r3, #13
10002ef2:	f7fe fa8d 	bl	10001410 <cyw43_write_reg_u8>
10002ef6:	e4e6      	b.n	100028c6 <cyw43_ll_bus_init+0x54a>
10002ef8:	23c0      	movs	r3, #192	; 0xc0
10002efa:	4a0b      	ldr	r2, [pc, #44]	; (10002f28 <cyw43_ll_bus_init+0xbac>)
10002efc:	015b      	lsls	r3, r3, #5
10002efe:	2101      	movs	r1, #1
10002f00:	0020      	movs	r0, r4
10002f02:	f7fe fa85 	bl	10001410 <cyw43_write_reg_u8>
10002f06:	23c0      	movs	r3, #192	; 0xc0
10002f08:	68a2      	ldr	r2, [r4, #8]
10002f0a:	055b      	lsls	r3, r3, #21
10002f0c:	4053      	eors	r3, r2
10002f0e:	e4d5      	b.n	100028bc <cyw43_ll_bus_init+0x540>
10002f10:	2318      	movs	r3, #24
10002f12:	2101      	movs	r1, #1
10002f14:	0020      	movs	r0, r4
10002f16:	4a05      	ldr	r2, [pc, #20]	; (10002f2c <cyw43_ll_bus_init+0xbb0>)
10002f18:	f7fe fa7a 	bl	10001410 <cyw43_write_reg_u8>
10002f1c:	68a3      	ldr	r3, [r4, #8]
10002f1e:	406b      	eors	r3, r5
10002f20:	e4c7      	b.n	100028b2 <cyw43_ll_bus_init+0x536>
10002f22:	46c0      	nop			; (mov r8, r8)
10002f24:	0001000a 	.word	0x0001000a
10002f28:	0001000b 	.word	0x0001000b
10002f2c:	0001000c 	.word	0x0001000c
10002f30:	10009b2c 	.word	0x10009b2c
10002f34:	10009b9c 	.word	0x10009b9c
10002f38:	0001001f 	.word	0x0001001f
10002f3c:	2606      	movs	r6, #6
10002f3e:	4824      	ldr	r0, [pc, #144]	; (10002fd0 <cyw43_ll_bus_init+0xc54>)
10002f40:	f003 fed0 	bl	10006ce4 <__wrap_puts>
10002f44:	4276      	negs	r6, r6
10002f46:	f7ff fa41 	bl	100023cc <cyw43_ll_bus_init+0x50>
10002f4a:	2606      	movs	r6, #6
10002f4c:	4821      	ldr	r0, [pc, #132]	; (10002fd4 <cyw43_ll_bus_init+0xc58>)
10002f4e:	f003 fec9 	bl	10006ce4 <__wrap_puts>
10002f52:	4276      	negs	r6, r6
10002f54:	f7ff fa3a 	bl	100023cc <cyw43_ll_bus_init+0x50>
10002f58:	464b      	mov	r3, r9
10002f5a:	6a9b      	ldr	r3, [r3, #40]	; 0x28
10002f5c:	4649      	mov	r1, r9
10002f5e:	9306      	str	r3, [sp, #24]
10002f60:	464b      	mov	r3, r9
10002f62:	8d9b      	ldrh	r3, [r3, #44]	; 0x2c
10002f64:	aa02      	add	r2, sp, #8
10002f66:	8293      	strh	r3, [r2, #20]
10002f68:	3130      	adds	r1, #48	; 0x30
10002f6a:	2214      	movs	r2, #20
10002f6c:	0028      	movs	r0, r5
10002f6e:	f003 fd51 	bl	10006a14 <__wrap___aeabi_memcpy>
10002f72:	2283      	movs	r2, #131	; 0x83
10002f74:	2314      	movs	r3, #20
10002f76:	2100      	movs	r1, #0
10002f78:	0020      	movs	r0, r4
10002f7a:	9500      	str	r5, [sp, #0]
10002f7c:	0052      	lsls	r2, r2, #1
10002f7e:	f7fe ff21 	bl	10001dc4 <cyw43_do_ioctl.constprop.0>
10002f82:	2800      	cmp	r0, #0
10002f84:	d006      	beq.n	10002f94 <cyw43_ll_bus_init+0xc18>
10002f86:	2000      	movs	r0, #0
10002f88:	a904      	add	r1, sp, #16
10002f8a:	f7fd f9d5 	bl	10000338 <cyw43_hal_generate_laa_mac>
10002f8e:	ab04      	add	r3, sp, #16
10002f90:	9303      	str	r3, [sp, #12]
10002f92:	e5ad      	b.n	10002af0 <cyw43_ll_bus_init+0x774>
10002f94:	2206      	movs	r2, #6
10002f96:	0029      	movs	r1, r5
10002f98:	a804      	add	r0, sp, #16
10002f9a:	f003 fd3b 	bl	10006a14 <__wrap___aeabi_memcpy>
10002f9e:	9a04      	ldr	r2, [sp, #16]
10002fa0:	9b06      	ldr	r3, [sp, #24]
10002fa2:	429a      	cmp	r2, r3
10002fa4:	d002      	beq.n	10002fac <cyw43_ll_bus_init+0xc30>
10002fa6:	2600      	movs	r6, #0
10002fa8:	f7ff fa10 	bl	100023cc <cyw43_ll_bus_init+0x50>
10002fac:	ab02      	add	r3, sp, #8
10002fae:	899a      	ldrh	r2, [r3, #12]
10002fb0:	8a9b      	ldrh	r3, [r3, #20]
10002fb2:	429a      	cmp	r2, r3
10002fb4:	d0e7      	beq.n	10002f86 <cyw43_ll_bus_init+0xc0a>
10002fb6:	2600      	movs	r6, #0
10002fb8:	f7ff fa08 	bl	100023cc <cyw43_ll_bus_init+0x50>
10002fbc:	4806      	ldr	r0, [pc, #24]	; (10002fd8 <cyw43_ll_bus_init+0xc5c>)
10002fbe:	f003 fe91 	bl	10006ce4 <__wrap_puts>
10002fc2:	f7ff fa9c 	bl	100024fe <cyw43_ll_bus_init+0x182>
10002fc6:	4804      	ldr	r0, [pc, #16]	; (10002fd8 <cyw43_ll_bus_init+0xc5c>)
10002fc8:	f003 fe8c 	bl	10006ce4 <__wrap_puts>
10002fcc:	f7ff fae2 	bl	10002594 <cyw43_ll_bus_init+0x218>
10002fd0:	10009b6c 	.word	0x10009b6c
10002fd4:	10009b84 	.word	0x10009b84
10002fd8:	10009a98 	.word	0x10009a98

10002fdc <cyw43_ll_wifi_get_mac>:
10002fdc:	b570      	push	{r4, r5, r6, lr}
10002fde:	0006      	movs	r6, r0
10002fe0:	000d      	movs	r5, r1
10002fe2:	490e      	ldr	r1, [pc, #56]	; (1000301c <cyw43_ll_wifi_get_mac+0x40>)
10002fe4:	3638      	adds	r6, #56	; 0x38
10002fe6:	0004      	movs	r4, r0
10002fe8:	b082      	sub	sp, #8
10002fea:	2214      	movs	r2, #20
10002fec:	3130      	adds	r1, #48	; 0x30
10002fee:	0030      	movs	r0, r6
10002ff0:	f003 fd10 	bl	10006a14 <__wrap___aeabi_memcpy>
10002ff4:	2283      	movs	r2, #131	; 0x83
10002ff6:	0020      	movs	r0, r4
10002ff8:	2314      	movs	r3, #20
10002ffa:	2100      	movs	r1, #0
10002ffc:	9600      	str	r6, [sp, #0]
10002ffe:	0052      	lsls	r2, r2, #1
10003000:	f7fe fee0 	bl	10001dc4 <cyw43_do_ioctl.constprop.0>
10003004:	1e04      	subs	r4, r0, #0
10003006:	d002      	beq.n	1000300e <cyw43_ll_wifi_get_mac+0x32>
10003008:	0020      	movs	r0, r4
1000300a:	b002      	add	sp, #8
1000300c:	bd70      	pop	{r4, r5, r6, pc}
1000300e:	2206      	movs	r2, #6
10003010:	0031      	movs	r1, r6
10003012:	0028      	movs	r0, r5
10003014:	f003 fcfe 	bl	10006a14 <__wrap___aeabi_memcpy>
10003018:	e7f6      	b.n	10003008 <cyw43_ll_wifi_get_mac+0x2c>
1000301a:	46c0      	nop			; (mov r8, r8)
1000301c:	10009be0 	.word	0x10009be0

10003020 <cyw43_ll_wifi_set_wpa_auth>:
10003020:	2338      	movs	r3, #56	; 0x38
10003022:	2204      	movs	r2, #4
10003024:	b500      	push	{lr}
10003026:	54c2      	strb	r2, [r0, r3]
10003028:	2300      	movs	r3, #0
1000302a:	3235      	adds	r2, #53	; 0x35
1000302c:	5483      	strb	r3, [r0, r2]
1000302e:	3201      	adds	r2, #1
10003030:	5483      	strb	r3, [r0, r2]
10003032:	3201      	adds	r2, #1
10003034:	5483      	strb	r3, [r0, r2]
10003036:	0003      	movs	r3, r0
10003038:	b083      	sub	sp, #12
1000303a:	3338      	adds	r3, #56	; 0x38
1000303c:	9300      	str	r3, [sp, #0]
1000303e:	2102      	movs	r1, #2
10003040:	2304      	movs	r3, #4
10003042:	326a      	adds	r2, #106	; 0x6a
10003044:	f7fe febe 	bl	10001dc4 <cyw43_do_ioctl.constprop.0>
10003048:	b003      	add	sp, #12
1000304a:	bd00      	pop	{pc}

1000304c <cyw43_ll_wifi_rejoin>:
1000304c:	b500      	push	{lr}
1000304e:	4b05      	ldr	r3, [pc, #20]	; (10003064 <cyw43_ll_wifi_rejoin+0x18>)
10003050:	b083      	sub	sp, #12
10003052:	18c3      	adds	r3, r0, r3
10003054:	9300      	str	r3, [sp, #0]
10003056:	221a      	movs	r2, #26
10003058:	2324      	movs	r3, #36	; 0x24
1000305a:	2102      	movs	r1, #2
1000305c:	f7fe feb2 	bl	10001dc4 <cyw43_do_ioctl.constprop.0>
10003060:	b003      	add	sp, #12
10003062:	bd00      	pop	{pc}
10003064:	0000081c 	.word	0x0000081c

10003068 <cyw43_ll_gpio_set>:
10003068:	b5f0      	push	{r4, r5, r6, r7, lr}
1000306a:	0004      	movs	r4, r0
1000306c:	b083      	sub	sp, #12
1000306e:	2902      	cmp	r1, #2
10003070:	d82b      	bhi.n	100030ca <cyw43_ll_gpio_set+0x62>
10003072:	2301      	movs	r3, #1
10003074:	408b      	lsls	r3, r1
10003076:	2a00      	cmp	r2, #0
10003078:	d124      	bne.n	100030c4 <cyw43_ll_gpio_set+0x5c>
1000307a:	2700      	movs	r7, #0
1000307c:	b2dd      	uxtb	r5, r3
1000307e:	0026      	movs	r6, r4
10003080:	3638      	adds	r6, #56	; 0x38
10003082:	2208      	movs	r2, #8
10003084:	4912      	ldr	r1, [pc, #72]	; (100030d0 <cyw43_ll_gpio_set+0x68>)
10003086:	0030      	movs	r0, r6
10003088:	f003 fcc4 	bl	10006a14 <__wrap___aeabi_memcpy>
1000308c:	2340      	movs	r3, #64	; 0x40
1000308e:	2241      	movs	r2, #65	; 0x41
10003090:	54e5      	strb	r5, [r4, r3]
10003092:	2300      	movs	r3, #0
10003094:	54a3      	strb	r3, [r4, r2]
10003096:	3201      	adds	r2, #1
10003098:	54a3      	strb	r3, [r4, r2]
1000309a:	3201      	adds	r2, #1
1000309c:	54a3      	strb	r3, [r4, r2]
1000309e:	3201      	adds	r2, #1
100030a0:	54a7      	strb	r7, [r4, r2]
100030a2:	3201      	adds	r2, #1
100030a4:	54a3      	strb	r3, [r4, r2]
100030a6:	3201      	adds	r2, #1
100030a8:	54a3      	strb	r3, [r4, r2]
100030aa:	3201      	adds	r2, #1
100030ac:	54a3      	strb	r3, [r4, r2]
100030ae:	2208      	movs	r2, #8
100030b0:	2102      	movs	r1, #2
100030b2:	0020      	movs	r0, r4
100030b4:	9600      	str	r6, [sp, #0]
100030b6:	3310      	adds	r3, #16
100030b8:	32ff      	adds	r2, #255	; 0xff
100030ba:	f7fe fe83 	bl	10001dc4 <cyw43_do_ioctl.constprop.0>
100030be:	2000      	movs	r0, #0
100030c0:	b003      	add	sp, #12
100030c2:	bdf0      	pop	{r4, r5, r6, r7, pc}
100030c4:	b2df      	uxtb	r7, r3
100030c6:	003d      	movs	r5, r7
100030c8:	e7d9      	b.n	1000307e <cyw43_ll_gpio_set+0x16>
100030ca:	2001      	movs	r0, #1
100030cc:	4240      	negs	r0, r0
100030ce:	e7f7      	b.n	100030c0 <cyw43_ll_gpio_set+0x58>
100030d0:	10009bd8 	.word	0x10009bd8

100030d4 <cyw43_ll_has_work>:
100030d4:	b510      	push	{r4, lr}
100030d6:	6800      	ldr	r0, [r0, #0]
100030d8:	f000 f8d8 	bl	1000328c <cyw43_cb_read_host_interrupt_pin>
100030dc:	3801      	subs	r0, #1
100030de:	4243      	negs	r3, r0
100030e0:	4158      	adcs	r0, r3
100030e2:	b2c0      	uxtb	r0, r0
100030e4:	bd10      	pop	{r4, pc}
100030e6:	46c0      	nop			; (mov r8, r8)

100030e8 <cyw43_cb_tcpip_deinit>:
100030e8:	4a10      	ldr	r2, [pc, #64]	; (1000312c <cyw43_cb_tcpip_deinit+0x44>)
100030ea:	018b      	lsls	r3, r1, #6
100030ec:	4694      	mov	ip, r2
100030ee:	4463      	add	r3, ip
100030f0:	b570      	push	{r4, r5, r6, lr}
100030f2:	18c4      	adds	r4, r0, r3
100030f4:	2900      	cmp	r1, #0
100030f6:	d014      	beq.n	10003122 <cyw43_cb_tcpip_deinit+0x3a>
100030f8:	4b0d      	ldr	r3, [pc, #52]	; (10003130 <cyw43_cb_tcpip_deinit+0x48>)
100030fa:	681b      	ldr	r3, [r3, #0]
100030fc:	2b00      	cmp	r3, #0
100030fe:	d006      	beq.n	1000310e <cyw43_cb_tcpip_deinit+0x26>
10003100:	2500      	movs	r5, #0
10003102:	2639      	movs	r6, #57	; 0x39
10003104:	429c      	cmp	r4, r3
10003106:	d003      	beq.n	10003110 <cyw43_cb_tcpip_deinit+0x28>
10003108:	681b      	ldr	r3, [r3, #0]
1000310a:	2b00      	cmp	r3, #0
1000310c:	d1fa      	bne.n	10003104 <cyw43_cb_tcpip_deinit+0x1c>
1000310e:	bd70      	pop	{r4, r5, r6, pc}
10003110:	0020      	movs	r0, r4
10003112:	f004 fb55 	bl	100077c0 <netif_remove>
10003116:	6065      	str	r5, [r4, #4]
10003118:	55a5      	strb	r5, [r4, r6]
1000311a:	6823      	ldr	r3, [r4, #0]
1000311c:	2b00      	cmp	r3, #0
1000311e:	d1f1      	bne.n	10003104 <cyw43_cb_tcpip_deinit+0x1c>
10003120:	e7f5      	b.n	1000310e <cyw43_cb_tcpip_deinit+0x26>
10003122:	0020      	movs	r0, r4
10003124:	f005 fed6 	bl	10008ed4 <dhcp_stop>
10003128:	e7e6      	b.n	100030f8 <cyw43_cb_tcpip_deinit+0x10>
1000312a:	46c0      	nop			; (mov r8, r8)
1000312c:	000008d4 	.word	0x000008d4
10003130:	2000ac78 	.word	0x2000ac78

10003134 <cyw43_cb_process_ethernet>:
10003134:	b5f8      	push	{r3, r4, r5, r6, r7, lr}
10003136:	4647      	mov	r7, r8
10003138:	46ce      	mov	lr, r9
1000313a:	018d      	lsls	r5, r1, #6
1000313c:	b580      	push	{r7, lr}
1000313e:	001f      	movs	r7, r3
10003140:	1943      	adds	r3, r0, r5
10003142:	4698      	mov	r8, r3
10003144:	4b13      	ldr	r3, [pc, #76]	; (10003194 <cyw43_cb_process_ethernet+0x60>)
10003146:	0004      	movs	r4, r0
10003148:	4443      	add	r3, r8
1000314a:	781b      	ldrb	r3, [r3, #0]
1000314c:	075b      	lsls	r3, r3, #29
1000314e:	d403      	bmi.n	10003158 <cyw43_cb_process_ethernet+0x24>
10003150:	bcc0      	pop	{r6, r7}
10003152:	46b9      	mov	r9, r7
10003154:	46b0      	mov	r8, r6
10003156:	bdf8      	pop	{r3, r4, r5, r6, r7, pc}
10003158:	b296      	uxth	r6, r2
1000315a:	22c1      	movs	r2, #193	; 0xc1
1000315c:	0031      	movs	r1, r6
1000315e:	2000      	movs	r0, #0
10003160:	0052      	lsls	r2, r2, #1
10003162:	f004 fbbf 	bl	100078e4 <pbuf_alloc>
10003166:	4681      	mov	r9, r0
10003168:	2800      	cmp	r0, #0
1000316a:	d0f1      	beq.n	10003150 <cyw43_cb_process_ethernet+0x1c>
1000316c:	0039      	movs	r1, r7
1000316e:	0032      	movs	r2, r6
10003170:	f004 fd7e 	bl	10007c70 <pbuf_take>
10003174:	4b08      	ldr	r3, [pc, #32]	; (10003198 <cyw43_cb_process_ethernet+0x64>)
10003176:	4648      	mov	r0, r9
10003178:	469c      	mov	ip, r3
1000317a:	4b08      	ldr	r3, [pc, #32]	; (1000319c <cyw43_cb_process_ethernet+0x68>)
1000317c:	4465      	add	r5, ip
1000317e:	4443      	add	r3, r8
10003180:	681b      	ldr	r3, [r3, #0]
10003182:	1961      	adds	r1, r4, r5
10003184:	4798      	blx	r3
10003186:	2800      	cmp	r0, #0
10003188:	d0e2      	beq.n	10003150 <cyw43_cb_process_ethernet+0x1c>
1000318a:	4648      	mov	r0, r9
1000318c:	f004 fce8 	bl	10007b60 <pbuf_free>
10003190:	e7de      	b.n	10003150 <cyw43_cb_process_ethernet+0x1c>
10003192:	46c0      	nop			; (mov r8, r8)
10003194:	0000090d 	.word	0x0000090d
10003198:	000008d4 	.word	0x000008d4
1000319c:	000008e4 	.word	0x000008e4

100031a0 <cyw43_cb_tcpip_set_link_up>:
100031a0:	4b04      	ldr	r3, [pc, #16]	; (100031b4 <cyw43_cb_tcpip_set_link_up+0x14>)
100031a2:	b510      	push	{r4, lr}
100031a4:	469c      	mov	ip, r3
100031a6:	0189      	lsls	r1, r1, #6
100031a8:	4461      	add	r1, ip
100031aa:	1840      	adds	r0, r0, r1
100031ac:	f004 fb52 	bl	10007854 <netif_set_link_up>
100031b0:	bd10      	pop	{r4, pc}
100031b2:	46c0      	nop			; (mov r8, r8)
100031b4:	000008d4 	.word	0x000008d4

100031b8 <cyw43_cb_tcpip_set_link_down>:
100031b8:	4b04      	ldr	r3, [pc, #16]	; (100031cc <cyw43_cb_tcpip_set_link_down+0x14>)
100031ba:	b510      	push	{r4, lr}
100031bc:	469c      	mov	ip, r3
100031be:	0189      	lsls	r1, r1, #6
100031c0:	4461      	add	r1, ip
100031c2:	1840      	adds	r0, r0, r1
100031c4:	f004 fb68 	bl	10007898 <netif_set_link_down>
100031c8:	bd10      	pop	{r4, pc}
100031ca:	46c0      	nop			; (mov r8, r8)
100031cc:	000008d4 	.word	0x000008d4

100031d0 <cyw43_poll_func>:
100031d0:	b510      	push	{r4, lr}
100031d2:	4b28      	ldr	r3, [pc, #160]	; (10003274 <cyw43_poll_func+0xa4>)
100031d4:	b082      	sub	sp, #8
100031d6:	681b      	ldr	r3, [r3, #0]
100031d8:	2b00      	cmp	r3, #0
100031da:	d017      	beq.n	1000320c <cyw43_poll_func+0x3c>
100031dc:	4c26      	ldr	r4, [pc, #152]	; (10003278 <cyw43_poll_func+0xa8>)
100031de:	0020      	movs	r0, r4
100031e0:	f7ff ff78 	bl	100030d4 <cyw43_ll_has_work>
100031e4:	2800      	cmp	r0, #0
100031e6:	d13d      	bne.n	10003264 <cyw43_poll_func+0x94>
100031e8:	4b24      	ldr	r3, [pc, #144]	; (1000327c <cyw43_poll_func+0xac>)
100031ea:	5ce2      	ldrb	r2, [r4, r3]
100031ec:	2a00      	cmp	r2, #0
100031ee:	d12c      	bne.n	1000324a <cyw43_poll_func+0x7a>
100031f0:	4b23      	ldr	r3, [pc, #140]	; (10003280 <cyw43_poll_func+0xb0>)
100031f2:	5ce2      	ldrb	r2, [r4, r3]
100031f4:	2a00      	cmp	r2, #0
100031f6:	d11e      	bne.n	10003236 <cyw43_poll_func+0x66>
100031f8:	4b22      	ldr	r3, [pc, #136]	; (10003284 <cyw43_poll_func+0xb4>)
100031fa:	5ce2      	ldrb	r2, [r4, r3]
100031fc:	2a00      	cmp	r2, #0
100031fe:	d10c      	bne.n	1000321a <cyw43_poll_func+0x4a>
10003200:	4b21      	ldr	r3, [pc, #132]	; (10003288 <cyw43_poll_func+0xb8>)
10003202:	681b      	ldr	r3, [r3, #0]
10003204:	2b00      	cmp	r3, #0
10003206:	d003      	beq.n	10003210 <cyw43_poll_func+0x40>
10003208:	f7fd f8c2 	bl	10000390 <cyw43_post_poll_hook>
1000320c:	b002      	add	sp, #8
1000320e:	bd10      	pop	{r4, pc}
10003210:	2101      	movs	r1, #1
10003212:	0020      	movs	r0, r4
10003214:	f7ff f898 	bl	10002348 <cyw43_ll_bus_sleep>
10003218:	e7f6      	b.n	10003208 <cyw43_poll_func+0x38>
1000321a:	2200      	movs	r2, #0
1000321c:	0020      	movs	r0, r4
1000321e:	54e2      	strb	r2, [r4, r3]
10003220:	f7ff ff14 	bl	1000304c <cyw43_ll_wifi_rejoin>
10003224:	2386      	movs	r3, #134	; 0x86
10003226:	2201      	movs	r2, #1
10003228:	011b      	lsls	r3, r3, #4
1000322a:	50e2      	str	r2, [r4, r3]
1000322c:	4b16      	ldr	r3, [pc, #88]	; (10003288 <cyw43_poll_func+0xb8>)
1000322e:	681b      	ldr	r3, [r3, #0]
10003230:	2b00      	cmp	r3, #0
10003232:	d1e9      	bne.n	10003208 <cyw43_poll_func+0x38>
10003234:	e7ec      	b.n	10003210 <cyw43_poll_func+0x40>
10003236:	2200      	movs	r2, #0
10003238:	0020      	movs	r0, r4
1000323a:	54e2      	strb	r2, [r4, r3]
1000323c:	f7ff fef0 	bl	10003020 <cyw43_ll_wifi_set_wpa_auth>
10003240:	4b10      	ldr	r3, [pc, #64]	; (10003284 <cyw43_poll_func+0xb4>)
10003242:	5ce2      	ldrb	r2, [r4, r3]
10003244:	2a00      	cmp	r2, #0
10003246:	d0db      	beq.n	10003200 <cyw43_poll_func+0x30>
10003248:	e7e7      	b.n	1000321a <cyw43_poll_func+0x4a>
1000324a:	2200      	movs	r2, #0
1000324c:	2169      	movs	r1, #105	; 0x69
1000324e:	54e2      	strb	r2, [r4, r3]
10003250:	0020      	movs	r0, r4
10003252:	2300      	movs	r3, #0
10003254:	9200      	str	r2, [sp, #0]
10003256:	f7ff f867 	bl	10002328 <cyw43_ll_ioctl>
1000325a:	4b09      	ldr	r3, [pc, #36]	; (10003280 <cyw43_poll_func+0xb0>)
1000325c:	5ce2      	ldrb	r2, [r4, r3]
1000325e:	2a00      	cmp	r2, #0
10003260:	d0ca      	beq.n	100031f8 <cyw43_poll_func+0x28>
10003262:	e7e8      	b.n	10003236 <cyw43_poll_func+0x66>
10003264:	0020      	movs	r0, r4
10003266:	f7ff f82b 	bl	100022c0 <cyw43_ll_process_packets>
1000326a:	4b04      	ldr	r3, [pc, #16]	; (1000327c <cyw43_poll_func+0xac>)
1000326c:	5ce2      	ldrb	r2, [r4, r3]
1000326e:	2a00      	cmp	r2, #0
10003270:	d0be      	beq.n	100031f0 <cyw43_poll_func+0x20>
10003272:	e7ea      	b.n	1000324a <cyw43_poll_func+0x7a>
10003274:	20000904 	.word	0x20000904
10003278:	2000090c 	.word	0x2000090c
1000327c:	0000086d 	.word	0x0000086d
10003280:	0000086f 	.word	0x0000086f
10003284:	0000086e 	.word	0x0000086e
10003288:	20000908 	.word	0x20000908

1000328c <cyw43_cb_read_host_interrupt_pin>:
1000328c:	23d0      	movs	r3, #208	; 0xd0
1000328e:	061b      	lsls	r3, r3, #24
10003290:	6858      	ldr	r0, [r3, #4]
10003292:	01c0      	lsls	r0, r0, #7
10003294:	0fc0      	lsrs	r0, r0, #31
10003296:	4770      	bx	lr

10003298 <cyw43_cb_ensure_awake>:
10003298:	2232      	movs	r2, #50	; 0x32
1000329a:	4b01      	ldr	r3, [pc, #4]	; (100032a0 <cyw43_cb_ensure_awake+0x8>)
1000329c:	601a      	str	r2, [r3, #0]
1000329e:	4770      	bx	lr
100032a0:	20000908 	.word	0x20000908

100032a4 <cyw43_cb_process_async_event>:
100032a4:	4b7c      	ldr	r3, [pc, #496]	; (10003498 <cyw43_cb_process_async_event+0x1f4>)
100032a6:	b570      	push	{r4, r5, r6, lr}
100032a8:	58c3      	ldr	r3, [r0, r3]
100032aa:	0005      	movs	r5, r0
100032ac:	000c      	movs	r4, r1
100032ae:	07db      	lsls	r3, r3, #31
100032b0:	d413      	bmi.n	100032da <cyw43_cb_process_async_event+0x36>
100032b2:	6863      	ldr	r3, [r4, #4]
100032b4:	2b45      	cmp	r3, #69	; 0x45
100032b6:	d005      	beq.n	100032c4 <cyw43_cb_process_async_event+0x20>
100032b8:	2b2e      	cmp	r3, #46	; 0x2e
100032ba:	d807      	bhi.n	100032cc <cyw43_cb_process_async_event+0x28>
100032bc:	4a77      	ldr	r2, [pc, #476]	; (1000349c <cyw43_cb_process_async_event+0x1f8>)
100032be:	009b      	lsls	r3, r3, #2
100032c0:	58d3      	ldr	r3, [r2, r3]
100032c2:	469f      	mov	pc, r3
100032c4:	4b76      	ldr	r3, [pc, #472]	; (100034a0 <cyw43_cb_process_async_event+0x1fc>)
100032c6:	58ea      	ldr	r2, [r5, r3]
100032c8:	2a01      	cmp	r2, #1
100032ca:	d03a      	beq.n	10003342 <cyw43_cb_process_async_event+0x9e>
100032cc:	2386      	movs	r3, #134	; 0x86
100032ce:	011b      	lsls	r3, r3, #4
100032d0:	58eb      	ldr	r3, [r5, r3]
100032d2:	4a74      	ldr	r2, [pc, #464]	; (100034a4 <cyw43_cb_process_async_event+0x200>)
100032d4:	4293      	cmp	r3, r2
100032d6:	d025      	beq.n	10003324 <cyw43_cb_process_async_event+0x80>
100032d8:	bd70      	pop	{r4, r5, r6, pc}
100032da:	f000 fefd 	bl	100040d8 <time_us_64>
100032de:	2900      	cmp	r1, #0
100032e0:	d029      	beq.n	10003336 <cyw43_cb_process_async_event+0x92>
100032e2:	22fa      	movs	r2, #250	; 0xfa
100032e4:	2300      	movs	r3, #0
100032e6:	0092      	lsls	r2, r2, #2
100032e8:	f002 fffa 	bl	100062e0 <__wrap___aeabi_uldivmod>
100032ec:	0001      	movs	r1, r0
100032ee:	4b6e      	ldr	r3, [pc, #440]	; (100034a8 <cyw43_cb_process_async_event+0x204>)
100032f0:	8862      	ldrh	r2, [r4, #2]
100032f2:	0018      	movs	r0, r3
100032f4:	f003 fd96 	bl	10006e24 <__wrap_printf>
100032f8:	6861      	ldr	r1, [r4, #4]
100032fa:	2958      	cmp	r1, #88	; 0x58
100032fc:	d900      	bls.n	10003300 <cyw43_cb_process_async_event+0x5c>
100032fe:	e08d      	b.n	1000341c <cyw43_cb_process_async_event+0x178>
10003300:	4b6a      	ldr	r3, [pc, #424]	; (100034ac <cyw43_cb_process_async_event+0x208>)
10003302:	008a      	lsls	r2, r1, #2
10003304:	58d3      	ldr	r3, [r2, r3]
10003306:	2b00      	cmp	r3, #0
10003308:	d100      	bne.n	1000330c <cyw43_cb_process_async_event+0x68>
1000330a:	e087      	b.n	1000341c <cyw43_cb_process_async_event+0x178>
1000330c:	0019      	movs	r1, r3
1000330e:	4868      	ldr	r0, [pc, #416]	; (100034b0 <cyw43_cb_process_async_event+0x20c>)
10003310:	f003 fd88 	bl	10006e24 <__wrap_printf>
10003314:	232e      	movs	r3, #46	; 0x2e
10003316:	68e2      	ldr	r2, [r4, #12]
10003318:	5ce3      	ldrb	r3, [r4, r3]
1000331a:	68a1      	ldr	r1, [r4, #8]
1000331c:	4865      	ldr	r0, [pc, #404]	; (100034b4 <cyw43_cb_process_async_event+0x210>)
1000331e:	f003 fd81 	bl	10006e24 <__wrap_printf>
10003322:	e7c6      	b.n	100032b2 <cyw43_cb_process_async_event+0xe>
10003324:	2386      	movs	r3, #134	; 0x86
10003326:	2201      	movs	r2, #1
10003328:	011b      	lsls	r3, r3, #4
1000332a:	2100      	movs	r1, #0
1000332c:	0028      	movs	r0, r5
1000332e:	50ea      	str	r2, [r5, r3]
10003330:	f7ff ff36 	bl	100031a0 <cyw43_cb_tcpip_set_link_up>
10003334:	e7d0      	b.n	100032d8 <cyw43_cb_process_async_event+0x34>
10003336:	21fa      	movs	r1, #250	; 0xfa
10003338:	0089      	lsls	r1, r1, #2
1000333a:	f002 ff8f 	bl	1000625c <__wrap___aeabi_uidiv>
1000333e:	0001      	movs	r1, r0
10003340:	e7d5      	b.n	100032ee <cyw43_cb_process_async_event+0x4a>
10003342:	68a2      	ldr	r2, [r4, #8]
10003344:	2a08      	cmp	r2, #8
10003346:	d100      	bne.n	1000334a <cyw43_cb_process_async_event+0xa6>
10003348:	e08c      	b.n	10003464 <cyw43_cb_process_async_event+0x1c0>
1000334a:	2a00      	cmp	r2, #0
1000334c:	d1be      	bne.n	100032cc <cyw43_cb_process_async_event+0x28>
1000334e:	2202      	movs	r2, #2
10003350:	50ea      	str	r2, [r5, r3]
10003352:	2386      	movs	r3, #134	; 0x86
10003354:	011b      	lsls	r3, r3, #4
10003356:	58eb      	ldr	r3, [r5, r3]
10003358:	e7bb      	b.n	100032d2 <cyw43_cb_process_async_event+0x2e>
1000335a:	68a3      	ldr	r3, [r4, #8]
1000335c:	2b06      	cmp	r3, #6
1000335e:	d100      	bne.n	10003362 <cyw43_cb_process_async_event+0xbe>
10003360:	e08b      	b.n	1000347a <cyw43_cb_process_async_event+0x1d6>
10003362:	2b0b      	cmp	r3, #11
10003364:	d806      	bhi.n	10003374 <cyw43_cb_process_async_event+0xd0>
10003366:	2291      	movs	r2, #145	; 0x91
10003368:	0112      	lsls	r2, r2, #4
1000336a:	40da      	lsrs	r2, r3
1000336c:	0013      	movs	r3, r2
1000336e:	2201      	movs	r2, #1
10003370:	421a      	tst	r2, r3
10003372:	d15a      	bne.n	1000342a <cyw43_cb_process_async_event+0x186>
10003374:	2386      	movs	r3, #134	; 0x86
10003376:	2204      	movs	r2, #4
10003378:	011b      	lsls	r3, r3, #4
1000337a:	50ea      	str	r2, [r5, r3]
1000337c:	e7ac      	b.n	100032d8 <cyw43_cb_process_async_event+0x34>
1000337e:	68a3      	ldr	r3, [r4, #8]
10003380:	2b00      	cmp	r3, #0
10003382:	d1a3      	bne.n	100032cc <cyw43_cb_process_async_event+0x28>
10003384:	68e3      	ldr	r3, [r4, #12]
10003386:	2b08      	cmp	r3, #8
10003388:	d1a0      	bne.n	100032cc <cyw43_cb_process_async_event+0x28>
1000338a:	2202      	movs	r2, #2
1000338c:	4b4a      	ldr	r3, [pc, #296]	; (100034b8 <cyw43_cb_process_async_event+0x214>)
1000338e:	32ff      	adds	r2, #255	; 0xff
10003390:	52ea      	strh	r2, [r5, r3]
10003392:	e04f      	b.n	10003434 <cyw43_cb_process_async_event+0x190>
10003394:	68a3      	ldr	r3, [r4, #8]
10003396:	2b00      	cmp	r3, #0
10003398:	d198      	bne.n	100032cc <cyw43_cb_process_async_event+0x28>
1000339a:	8863      	ldrh	r3, [r4, #2]
1000339c:	07db      	lsls	r3, r3, #31
1000339e:	d558      	bpl.n	10003452 <cyw43_cb_process_async_event+0x1ae>
100033a0:	232e      	movs	r3, #46	; 0x2e
100033a2:	5ce1      	ldrb	r1, [r4, r3]
100033a4:	2900      	cmp	r1, #0
100033a6:	d170      	bne.n	1000348a <cyw43_cb_process_async_event+0x1e6>
100033a8:	2286      	movs	r2, #134	; 0x86
100033aa:	2380      	movs	r3, #128	; 0x80
100033ac:	0112      	lsls	r2, r2, #4
100033ae:	58a9      	ldr	r1, [r5, r2]
100033b0:	00db      	lsls	r3, r3, #3
100033b2:	430b      	orrs	r3, r1
100033b4:	50ab      	str	r3, [r5, r2]
100033b6:	e78c      	b.n	100032d2 <cyw43_cb_process_async_event+0x2e>
100033b8:	2100      	movs	r1, #0
100033ba:	0028      	movs	r0, r5
100033bc:	f7ff fefc 	bl	100031b8 <cyw43_cb_tcpip_set_link_down>
100033c0:	2386      	movs	r3, #134	; 0x86
100033c2:	2200      	movs	r2, #0
100033c4:	011b      	lsls	r3, r3, #4
100033c6:	50ea      	str	r2, [r5, r3]
100033c8:	e786      	b.n	100032d8 <cyw43_cb_process_async_event+0x34>
100033ca:	68a3      	ldr	r3, [r4, #8]
100033cc:	2b00      	cmp	r3, #0
100033ce:	d000      	beq.n	100033d2 <cyw43_cb_process_async_event+0x12e>
100033d0:	e77c      	b.n	100032cc <cyw43_cb_process_async_event+0x28>
100033d2:	68e3      	ldr	r3, [r4, #12]
100033d4:	2b02      	cmp	r3, #2
100033d6:	d000      	beq.n	100033da <cyw43_cb_process_async_event+0x136>
100033d8:	e778      	b.n	100032cc <cyw43_cb_process_async_event+0x28>
100033da:	2201      	movs	r2, #1
100033dc:	4b37      	ldr	r3, [pc, #220]	; (100034bc <cyw43_cb_process_async_event+0x218>)
100033de:	54ea      	strb	r2, [r5, r3]
100033e0:	e028      	b.n	10003434 <cyw43_cb_process_async_event+0x190>
100033e2:	68a3      	ldr	r3, [r4, #8]
100033e4:	2b00      	cmp	r3, #0
100033e6:	d11d      	bne.n	10003424 <cyw43_cb_process_async_event+0x180>
100033e8:	2386      	movs	r3, #134	; 0x86
100033ea:	011b      	lsls	r3, r3, #4
100033ec:	58ea      	ldr	r2, [r5, r3]
100033ee:	230f      	movs	r3, #15
100033f0:	0019      	movs	r1, r3
100033f2:	4011      	ands	r1, r2
100033f4:	2904      	cmp	r1, #4
100033f6:	d028      	beq.n	1000344a <cyw43_cb_process_async_event+0x1a6>
100033f8:	2380      	movs	r3, #128	; 0x80
100033fa:	009b      	lsls	r3, r3, #2
100033fc:	4313      	orrs	r3, r2
100033fe:	2286      	movs	r2, #134	; 0x86
10003400:	0112      	lsls	r2, r2, #4
10003402:	50ab      	str	r3, [r5, r2]
10003404:	e765      	b.n	100032d2 <cyw43_cb_process_async_event+0x2e>
10003406:	68a3      	ldr	r3, [r4, #8]
10003408:	2b00      	cmp	r3, #0
1000340a:	d100      	bne.n	1000340e <cyw43_cb_process_async_event+0x16a>
1000340c:	e75e      	b.n	100032cc <cyw43_cb_process_async_event+0x28>
1000340e:	2b03      	cmp	r3, #3
10003410:	d014      	beq.n	1000343c <cyw43_cb_process_async_event+0x198>
10003412:	2386      	movs	r3, #134	; 0x86
10003414:	2202      	movs	r2, #2
10003416:	011b      	lsls	r3, r3, #4
10003418:	50ea      	str	r2, [r5, r3]
1000341a:	e75d      	b.n	100032d8 <cyw43_cb_process_async_event+0x34>
1000341c:	4828      	ldr	r0, [pc, #160]	; (100034c0 <cyw43_cb_process_async_event+0x21c>)
1000341e:	f003 fd01 	bl	10006e24 <__wrap_printf>
10003422:	e777      	b.n	10003314 <cyw43_cb_process_async_event+0x70>
10003424:	2b06      	cmp	r3, #6
10003426:	d1a5      	bne.n	10003374 <cyw43_cb_process_async_event+0xd0>
10003428:	e750      	b.n	100032cc <cyw43_cb_process_async_event+0x28>
1000342a:	68e3      	ldr	r3, [r4, #12]
1000342c:	2b0f      	cmp	r3, #15
1000342e:	d1a1      	bne.n	10003374 <cyw43_cb_process_async_event+0xd0>
10003430:	4b21      	ldr	r3, [pc, #132]	; (100034b8 <cyw43_cb_process_async_event+0x214>)
10003432:	54ea      	strb	r2, [r5, r3]
10003434:	4823      	ldr	r0, [pc, #140]	; (100034c4 <cyw43_cb_process_async_event+0x220>)
10003436:	f7fc ffb3 	bl	100003a0 <cyw43_schedule_internal_poll_dispatch>
1000343a:	e747      	b.n	100032cc <cyw43_cb_process_async_event+0x28>
1000343c:	68e2      	ldr	r2, [r4, #12]
1000343e:	2a00      	cmp	r2, #0
10003440:	d1e7      	bne.n	10003412 <cyw43_cb_process_async_event+0x16e>
10003442:	2286      	movs	r2, #134	; 0x86
10003444:	0112      	lsls	r2, r2, #4
10003446:	50ab      	str	r3, [r5, r2]
10003448:	e746      	b.n	100032d8 <cyw43_cb_process_async_event+0x34>
1000344a:	439a      	bics	r2, r3
1000344c:	3b0e      	subs	r3, #14
1000344e:	431a      	orrs	r2, r3
10003450:	e7d2      	b.n	100033f8 <cyw43_cb_process_async_event+0x154>
10003452:	232e      	movs	r3, #46	; 0x2e
10003454:	0028      	movs	r0, r5
10003456:	5ce1      	ldrb	r1, [r4, r3]
10003458:	f7ff feae 	bl	100031b8 <cyw43_cb_tcpip_set_link_down>
1000345c:	2386      	movs	r3, #134	; 0x86
1000345e:	011b      	lsls	r3, r3, #4
10003460:	58eb      	ldr	r3, [r5, r3]
10003462:	e736      	b.n	100032d2 <cyw43_cb_process_async_event+0x2e>
10003464:	0021      	movs	r1, r4
10003466:	4b18      	ldr	r3, [pc, #96]	; (100034c8 <cyw43_cb_process_async_event+0x224>)
10003468:	3130      	adds	r1, #48	; 0x30
1000346a:	58e8      	ldr	r0, [r5, r3]
1000346c:	4b17      	ldr	r3, [pc, #92]	; (100034cc <cyw43_cb_process_async_event+0x228>)
1000346e:	58eb      	ldr	r3, [r5, r3]
10003470:	4798      	blx	r3
10003472:	2386      	movs	r3, #134	; 0x86
10003474:	011b      	lsls	r3, r3, #4
10003476:	58eb      	ldr	r3, [r5, r3]
10003478:	e72b      	b.n	100032d2 <cyw43_cb_process_async_event+0x2e>
1000347a:	2286      	movs	r2, #134	; 0x86
1000347c:	2380      	movs	r3, #128	; 0x80
1000347e:	0112      	lsls	r2, r2, #4
10003480:	58a9      	ldr	r1, [r5, r2]
10003482:	011b      	lsls	r3, r3, #4
10003484:	430b      	orrs	r3, r1
10003486:	50ab      	str	r3, [r5, r2]
10003488:	e723      	b.n	100032d2 <cyw43_cb_process_async_event+0x2e>
1000348a:	0028      	movs	r0, r5
1000348c:	f7ff fe88 	bl	100031a0 <cyw43_cb_tcpip_set_link_up>
10003490:	2386      	movs	r3, #134	; 0x86
10003492:	011b      	lsls	r3, r3, #4
10003494:	58eb      	ldr	r3, [r5, r3]
10003496:	e71c      	b.n	100032d2 <cyw43_cb_process_async_event+0x2e>
10003498:	00000858 	.word	0x00000858
1000349c:	10009f64 	.word	0x10009f64
100034a0:	0000085c 	.word	0x0000085c
100034a4:	00000e01 	.word	0x00000e01
100034a8:	10009f3c 	.word	0x10009f3c
100034ac:	1000a0c0 	.word	0x1000a0c0
100034b0:	10009f50 	.word	0x10009f50
100034b4:	10009f58 	.word	0x10009f58
100034b8:	0000086e 	.word	0x0000086e
100034bc:	0000086d 	.word	0x0000086d
100034c0:	10009f54 	.word	0x10009f54
100034c4:	100031d1 	.word	0x100031d1
100034c8:	00000864 	.word	0x00000864
100034cc:	00000868 	.word	0x00000868

100034d0 <cyw43_gpio_set>:
100034d0:	b5f8      	push	{r3, r4, r5, r6, r7, lr}
100034d2:	4647      	mov	r7, r8
100034d4:	46ce      	mov	lr, r9
100034d6:	0004      	movs	r4, r0
100034d8:	b580      	push	{r7, lr}
100034da:	4688      	mov	r8, r1
100034dc:	0016      	movs	r6, r2
100034de:	f7fc ff85 	bl	100003ec <cyw43_thread_enter>
100034e2:	4f1f      	ldr	r7, [pc, #124]	; (10003560 <cyw43_gpio_set+0x90>)
100034e4:	2100      	movs	r1, #0
100034e6:	683d      	ldr	r5, [r7, #0]
100034e8:	0020      	movs	r0, r4
100034ea:	2d00      	cmp	r5, #0
100034ec:	d00e      	beq.n	1000350c <cyw43_gpio_set+0x3c>
100034ee:	f7fe ff2b 	bl	10002348 <cyw43_ll_bus_sleep>
100034f2:	0032      	movs	r2, r6
100034f4:	4641      	mov	r1, r8
100034f6:	0020      	movs	r0, r4
100034f8:	f7ff fdb6 	bl	10003068 <cyw43_ll_gpio_set>
100034fc:	0005      	movs	r5, r0
100034fe:	f7fc ff7d 	bl	100003fc <cyw43_thread_exit>
10003502:	0028      	movs	r0, r5
10003504:	bcc0      	pop	{r6, r7}
10003506:	46b9      	mov	r9, r7
10003508:	46b0      	mov	r8, r6
1000350a:	bdf8      	pop	{r3, r4, r5, r6, r7, pc}
1000350c:	f7ff fdec 	bl	100030e8 <cyw43_cb_tcpip_deinit>
10003510:	2101      	movs	r1, #1
10003512:	0020      	movs	r0, r4
10003514:	f7ff fde8 	bl	100030e8 <cyw43_cb_tcpip_deinit>
10003518:	4b12      	ldr	r3, [pc, #72]	; (10003564 <cyw43_gpio_set+0x94>)
1000351a:	2014      	movs	r0, #20
1000351c:	54e5      	strb	r5, [r4, r3]
1000351e:	2380      	movs	r3, #128	; 0x80
10003520:	25d0      	movs	r5, #208	; 0xd0
10003522:	041b      	lsls	r3, r3, #16
10003524:	4699      	mov	r9, r3
10003526:	062d      	lsls	r5, r5, #24
10003528:	61ab      	str	r3, [r5, #24]
1000352a:	f7fc ff9d 	bl	10000468 <cyw43_delay_ms>
1000352e:	464b      	mov	r3, r9
10003530:	2032      	movs	r0, #50	; 0x32
10003532:	616b      	str	r3, [r5, #20]
10003534:	f7fc ff98 	bl	10000468 <cyw43_delay_ms>
10003538:	2100      	movs	r1, #0
1000353a:	0020      	movs	r0, r4
1000353c:	f7fe ff1e 	bl	1000237c <cyw43_ll_bus_init>
10003540:	1e05      	subs	r5, r0, #0
10003542:	d1dc      	bne.n	100034fe <cyw43_gpio_set+0x2e>
10003544:	4b08      	ldr	r3, [pc, #32]	; (10003568 <cyw43_gpio_set+0x98>)
10003546:	0020      	movs	r0, r4
10003548:	18e1      	adds	r1, r4, r3
1000354a:	f7ff fd47 	bl	10002fdc <cyw43_ll_wifi_get_mac>
1000354e:	2232      	movs	r2, #50	; 0x32
10003550:	4b06      	ldr	r3, [pc, #24]	; (1000356c <cyw43_gpio_set+0x9c>)
10003552:	4807      	ldr	r0, [pc, #28]	; (10003570 <cyw43_gpio_set+0xa0>)
10003554:	601a      	str	r2, [r3, #0]
10003556:	6038      	str	r0, [r7, #0]
10003558:	f7fc ff22 	bl	100003a0 <cyw43_schedule_internal_poll_dispatch>
1000355c:	e7c9      	b.n	100034f2 <cyw43_gpio_set+0x22>
1000355e:	46c0      	nop			; (mov r8, r8)
10003560:	20000904 	.word	0x20000904
10003564:	00000854 	.word	0x00000854
10003568:	00000988 	.word	0x00000988
1000356c:	20000908 	.word	0x20000908
10003570:	100031d1 	.word	0x100031d1

10003574 <gpio_set_function>:
10003574:	4a09      	ldr	r2, [pc, #36]	; (1000359c <gpio_set_function+0x28>)
10003576:	b510      	push	{r4, lr}
10003578:	4694      	mov	ip, r2
1000357a:	2440      	movs	r4, #64	; 0x40
1000357c:	0083      	lsls	r3, r0, #2
1000357e:	4463      	add	r3, ip
10003580:	681a      	ldr	r2, [r3, #0]
10003582:	00c0      	lsls	r0, r0, #3
10003584:	4062      	eors	r2, r4
10003586:	3480      	adds	r4, #128	; 0x80
10003588:	4014      	ands	r4, r2
1000358a:	2280      	movs	r2, #128	; 0x80
1000358c:	0152      	lsls	r2, r2, #5
1000358e:	4313      	orrs	r3, r2
10003590:	601c      	str	r4, [r3, #0]
10003592:	4b03      	ldr	r3, [pc, #12]	; (100035a0 <gpio_set_function+0x2c>)
10003594:	469c      	mov	ip, r3
10003596:	4460      	add	r0, ip
10003598:	6041      	str	r1, [r0, #4]
1000359a:	bd10      	pop	{r4, pc}
1000359c:	4001c004 	.word	0x4001c004
100035a0:	40014000 	.word	0x40014000

100035a4 <gpio_set_pulls>:
100035a4:	4b07      	ldr	r3, [pc, #28]	; (100035c4 <gpio_set_pulls+0x20>)
100035a6:	0080      	lsls	r0, r0, #2
100035a8:	469c      	mov	ip, r3
100035aa:	4460      	add	r0, ip
100035ac:	6803      	ldr	r3, [r0, #0]
100035ae:	00c9      	lsls	r1, r1, #3
100035b0:	0092      	lsls	r2, r2, #2
100035b2:	430a      	orrs	r2, r1
100035b4:	405a      	eors	r2, r3
100035b6:	230c      	movs	r3, #12
100035b8:	401a      	ands	r2, r3
100035ba:	2380      	movs	r3, #128	; 0x80
100035bc:	015b      	lsls	r3, r3, #5
100035be:	4303      	orrs	r3, r0
100035c0:	601a      	str	r2, [r3, #0]
100035c2:	4770      	bx	lr
100035c4:	4001c004 	.word	0x4001c004

100035c8 <gpio_set_input_hysteresis_enabled>:
100035c8:	4b08      	ldr	r3, [pc, #32]	; (100035ec <gpio_set_input_hysteresis_enabled+0x24>)
100035ca:	0080      	lsls	r0, r0, #2
100035cc:	469c      	mov	ip, r3
100035ce:	4460      	add	r0, ip
100035d0:	2900      	cmp	r1, #0
100035d2:	d005      	beq.n	100035e0 <gpio_set_input_hysteresis_enabled+0x18>
100035d4:	2380      	movs	r3, #128	; 0x80
100035d6:	2202      	movs	r2, #2
100035d8:	019b      	lsls	r3, r3, #6
100035da:	4303      	orrs	r3, r0
100035dc:	601a      	str	r2, [r3, #0]
100035de:	4770      	bx	lr
100035e0:	23c0      	movs	r3, #192	; 0xc0
100035e2:	2202      	movs	r2, #2
100035e4:	019b      	lsls	r3, r3, #6
100035e6:	4303      	orrs	r3, r0
100035e8:	601a      	str	r2, [r3, #0]
100035ea:	e7f8      	b.n	100035de <gpio_set_input_hysteresis_enabled+0x16>
100035ec:	4001c004 	.word	0x4001c004

100035f0 <gpio_set_irq_enabled>:
100035f0:	23d0      	movs	r3, #208	; 0xd0
100035f2:	061b      	lsls	r3, r3, #24
100035f4:	b530      	push	{r4, r5, lr}
100035f6:	0005      	movs	r5, r0
100035f8:	681c      	ldr	r4, [r3, #0]
100035fa:	4810      	ldr	r0, [pc, #64]	; (1000363c <gpio_set_irq_enabled+0x4c>)
100035fc:	1e63      	subs	r3, r4, #1
100035fe:	419c      	sbcs	r4, r3
10003600:	4684      	mov	ip, r0
10003602:	2007      	movs	r0, #7
10003604:	2330      	movs	r3, #48	; 0x30
10003606:	4264      	negs	r4, r4
10003608:	4028      	ands	r0, r5
1000360a:	4023      	ands	r3, r4
1000360c:	0080      	lsls	r0, r0, #2
1000360e:	08ec      	lsrs	r4, r5, #3
10003610:	4081      	lsls	r1, r0
10003612:	0020      	movs	r0, r4
10003614:	4d0a      	ldr	r5, [pc, #40]	; (10003640 <gpio_set_irq_enabled+0x50>)
10003616:	303c      	adds	r0, #60	; 0x3c
10003618:	4463      	add	r3, ip
1000361a:	0080      	lsls	r0, r0, #2
1000361c:	00a4      	lsls	r4, r4, #2
1000361e:	5141      	str	r1, [r0, r5]
10003620:	191b      	adds	r3, r3, r4
10003622:	2a00      	cmp	r2, #0
10003624:	d004      	beq.n	10003630 <gpio_set_irq_enabled+0x40>
10003626:	2280      	movs	r2, #128	; 0x80
10003628:	0192      	lsls	r2, r2, #6
1000362a:	4313      	orrs	r3, r2
1000362c:	6019      	str	r1, [r3, #0]
1000362e:	bd30      	pop	{r4, r5, pc}
10003630:	22c0      	movs	r2, #192	; 0xc0
10003632:	0192      	lsls	r2, r2, #6
10003634:	4313      	orrs	r3, r2
10003636:	6019      	str	r1, [r3, #0]
10003638:	e7f9      	b.n	1000362e <gpio_set_irq_enabled+0x3e>
1000363a:	46c0      	nop			; (mov r8, r8)
1000363c:	40014100 	.word	0x40014100
10003640:	40014000 	.word	0x40014000

10003644 <gpio_init>:
10003644:	2301      	movs	r3, #1
10003646:	22d0      	movs	r2, #208	; 0xd0
10003648:	4083      	lsls	r3, r0
1000364a:	0612      	lsls	r2, r2, #24
1000364c:	6293      	str	r3, [r2, #40]	; 0x28
1000364e:	6193      	str	r3, [r2, #24]
10003650:	4a09      	ldr	r2, [pc, #36]	; (10003678 <gpio_init+0x34>)
10003652:	2140      	movs	r1, #64	; 0x40
10003654:	4694      	mov	ip, r2
10003656:	0083      	lsls	r3, r0, #2
10003658:	4463      	add	r3, ip
1000365a:	681a      	ldr	r2, [r3, #0]
1000365c:	00c0      	lsls	r0, r0, #3
1000365e:	404a      	eors	r2, r1
10003660:	3180      	adds	r1, #128	; 0x80
10003662:	4011      	ands	r1, r2
10003664:	2280      	movs	r2, #128	; 0x80
10003666:	0152      	lsls	r2, r2, #5
10003668:	4313      	orrs	r3, r2
1000366a:	6019      	str	r1, [r3, #0]
1000366c:	4b03      	ldr	r3, [pc, #12]	; (1000367c <gpio_init+0x38>)
1000366e:	469c      	mov	ip, r3
10003670:	2305      	movs	r3, #5
10003672:	4460      	add	r0, ip
10003674:	6043      	str	r3, [r0, #4]
10003676:	4770      	bx	lr
10003678:	4001c004 	.word	0x4001c004
1000367c:	40014000 	.word	0x40014000

10003680 <irq_set_enabled>:
10003680:	2301      	movs	r3, #1
10003682:	4083      	lsls	r3, r0
10003684:	2900      	cmp	r1, #0
10003686:	d004      	beq.n	10003692 <irq_set_enabled+0x12>
10003688:	4a03      	ldr	r2, [pc, #12]	; (10003698 <irq_set_enabled+0x18>)
1000368a:	6013      	str	r3, [r2, #0]
1000368c:	4a03      	ldr	r2, [pc, #12]	; (1000369c <irq_set_enabled+0x1c>)
1000368e:	6013      	str	r3, [r2, #0]
10003690:	4770      	bx	lr
10003692:	4a03      	ldr	r2, [pc, #12]	; (100036a0 <irq_set_enabled+0x20>)
10003694:	6013      	str	r3, [r2, #0]
10003696:	e7fb      	b.n	10003690 <irq_set_enabled+0x10>
10003698:	e000e280 	.word	0xe000e280
1000369c:	e000e100 	.word	0xe000e100
100036a0:	e000e180 	.word	0xe000e180

100036a4 <irq_set_pending>:
100036a4:	2301      	movs	r3, #1
100036a6:	4083      	lsls	r3, r0
100036a8:	4a01      	ldr	r2, [pc, #4]	; (100036b0 <irq_set_pending+0xc>)
100036aa:	6013      	str	r3, [r2, #0]
100036ac:	4770      	bx	lr
100036ae:	46c0      	nop			; (mov r8, r8)
100036b0:	e000e200 	.word	0xe000e200

100036b4 <irq_get_vtable_handler>:
100036b4:	4b02      	ldr	r3, [pc, #8]	; (100036c0 <irq_get_vtable_handler+0xc>)
100036b6:	3010      	adds	r0, #16
100036b8:	689b      	ldr	r3, [r3, #8]
100036ba:	0080      	lsls	r0, r0, #2
100036bc:	58c0      	ldr	r0, [r0, r3]
100036be:	4770      	bx	lr
100036c0:	e000ed00 	.word	0xe000ed00

100036c4 <irq_set_exclusive_handler>:
100036c4:	b570      	push	{r4, r5, r6, lr}
100036c6:	000d      	movs	r5, r1
100036c8:	f3ef 8610 	mrs	r6, PRIMASK
100036cc:	b672      	cpsid	i
100036ce:	4a0f      	ldr	r2, [pc, #60]	; (1000370c <irq_set_exclusive_handler+0x48>)
100036d0:	6813      	ldr	r3, [r2, #0]
100036d2:	2b00      	cmp	r3, #0
100036d4:	d0fc      	beq.n	100036d0 <irq_set_exclusive_handler+0xc>
100036d6:	f3bf 8f5f 	dmb	sy
100036da:	4b0d      	ldr	r3, [pc, #52]	; (10003710 <irq_set_exclusive_handler+0x4c>)
100036dc:	3010      	adds	r0, #16
100036de:	689b      	ldr	r3, [r3, #8]
100036e0:	0084      	lsls	r4, r0, #2
100036e2:	591b      	ldr	r3, [r3, r4]
100036e4:	4a0b      	ldr	r2, [pc, #44]	; (10003714 <irq_set_exclusive_handler+0x50>)
100036e6:	4293      	cmp	r3, r2
100036e8:	d003      	beq.n	100036f2 <irq_set_exclusive_handler+0x2e>
100036ea:	429d      	cmp	r5, r3
100036ec:	d001      	beq.n	100036f2 <irq_set_exclusive_handler+0x2e>
100036ee:	f001 f8d7 	bl	100048a0 <hard_assertion_failure>
100036f2:	4b07      	ldr	r3, [pc, #28]	; (10003710 <irq_set_exclusive_handler+0x4c>)
100036f4:	689b      	ldr	r3, [r3, #8]
100036f6:	511d      	str	r5, [r3, r4]
100036f8:	f3bf 8f5f 	dmb	sy
100036fc:	f3bf 8f5f 	dmb	sy
10003700:	2200      	movs	r2, #0
10003702:	4b02      	ldr	r3, [pc, #8]	; (1000370c <irq_set_exclusive_handler+0x48>)
10003704:	601a      	str	r2, [r3, #0]
10003706:	f386 8810 	msr	PRIMASK, r6
1000370a:	bd70      	pop	{r4, r5, r6, pc}
1000370c:	d0000124 	.word	0xd0000124
10003710:	e000ed00 	.word	0xe000ed00
10003714:	100001cd 	.word	0x100001cd

10003718 <irq_remove_handler>:
10003718:	b5f0      	push	{r4, r5, r6, r7, lr}
1000371a:	46de      	mov	lr, fp
1000371c:	4657      	mov	r7, sl
1000371e:	464e      	mov	r6, r9
10003720:	4645      	mov	r5, r8
10003722:	b5e0      	push	{r5, r6, r7, lr}
10003724:	000c      	movs	r4, r1
10003726:	b083      	sub	sp, #12
10003728:	f3ef 8a10 	mrs	sl, PRIMASK
1000372c:	b672      	cpsid	i
1000372e:	4a5a      	ldr	r2, [pc, #360]	; (10003898 <irq_remove_handler+0x180>)
10003730:	6813      	ldr	r3, [r2, #0]
10003732:	2b00      	cmp	r3, #0
10003734:	d0fc      	beq.n	10003730 <irq_remove_handler+0x18>
10003736:	f3bf 8f5f 	dmb	sy
1000373a:	2210      	movs	r2, #16
1000373c:	4691      	mov	r9, r2
1000373e:	4481      	add	r9, r0
10003740:	464a      	mov	r2, r9
10003742:	4b56      	ldr	r3, [pc, #344]	; (1000389c <irq_remove_handler+0x184>)
10003744:	0096      	lsls	r6, r2, #2
10003746:	689b      	ldr	r3, [r3, #8]
10003748:	599d      	ldr	r5, [r3, r6]
1000374a:	4b55      	ldr	r3, [pc, #340]	; (100038a0 <irq_remove_handler+0x188>)
1000374c:	4698      	mov	r8, r3
1000374e:	429d      	cmp	r5, r3
10003750:	d005      	beq.n	1000375e <irq_remove_handler+0x46>
10003752:	42a5      	cmp	r5, r4
10003754:	d016      	beq.n	10003784 <irq_remove_handler+0x6c>
10003756:	4f53      	ldr	r7, [pc, #332]	; (100038a4 <irq_remove_handler+0x18c>)
10003758:	1beb      	subs	r3, r5, r7
1000375a:	2b2f      	cmp	r3, #47	; 0x2f
1000375c:	d914      	bls.n	10003788 <irq_remove_handler+0x70>
1000375e:	4b4f      	ldr	r3, [pc, #316]	; (1000389c <irq_remove_handler+0x184>)
10003760:	689b      	ldr	r3, [r3, #8]
10003762:	519d      	str	r5, [r3, r6]
10003764:	f3bf 8f5f 	dmb	sy
10003768:	f3bf 8f5f 	dmb	sy
1000376c:	2200      	movs	r2, #0
1000376e:	4b4a      	ldr	r3, [pc, #296]	; (10003898 <irq_remove_handler+0x180>)
10003770:	601a      	str	r2, [r3, #0]
10003772:	f38a 8810 	msr	PRIMASK, sl
10003776:	b003      	add	sp, #12
10003778:	bcf0      	pop	{r4, r5, r6, r7}
1000377a:	46bb      	mov	fp, r7
1000377c:	46b2      	mov	sl, r6
1000377e:	46a9      	mov	r9, r5
10003780:	46a0      	mov	r8, r4
10003782:	bdf0      	pop	{r4, r5, r6, r7, pc}
10003784:	001d      	movs	r5, r3
10003786:	e7ea      	b.n	1000375e <irq_remove_handler+0x46>
10003788:	2301      	movs	r3, #1
1000378a:	4083      	lsls	r3, r0
1000378c:	469b      	mov	fp, r3
1000378e:	465a      	mov	r2, fp
10003790:	4b45      	ldr	r3, [pc, #276]	; (100038a8 <irq_remove_handler+0x190>)
10003792:	681b      	ldr	r3, [r3, #0]
10003794:	401a      	ands	r2, r3
10003796:	9200      	str	r2, [sp, #0]
10003798:	465a      	mov	r2, fp
1000379a:	4b44      	ldr	r3, [pc, #272]	; (100038ac <irq_remove_handler+0x194>)
1000379c:	601a      	str	r2, [r3, #0]
1000379e:	f3bf 8f5f 	dmb	sy
100037a2:	f7fc fd60 	bl	10000266 <__get_current_exception>
100037a6:	9001      	str	r0, [sp, #4]
100037a8:	2800      	cmp	r0, #0
100037aa:	d003      	beq.n	100037b4 <irq_remove_handler+0x9c>
100037ac:	4581      	cmp	r9, r0
100037ae:	d001      	beq.n	100037b4 <irq_remove_handler+0x9c>
100037b0:	f001 f876 	bl	100048a0 <hard_assertion_failure>
100037b4:	2301      	movs	r3, #1
100037b6:	002a      	movs	r2, r5
100037b8:	439a      	bics	r2, r3
100037ba:	6893      	ldr	r3, [r2, #8]
100037bc:	429c      	cmp	r4, r3
100037be:	d108      	bne.n	100037d2 <irq_remove_handler+0xba>
100037c0:	e05f      	b.n	10003882 <irq_remove_handler+0x16a>
100037c2:	004b      	lsls	r3, r1, #1
100037c4:	185b      	adds	r3, r3, r1
100037c6:	009b      	lsls	r3, r3, #2
100037c8:	18fb      	adds	r3, r7, r3
100037ca:	6899      	ldr	r1, [r3, #8]
100037cc:	42a1      	cmp	r1, r4
100037ce:	d011      	beq.n	100037f4 <irq_remove_handler+0xdc>
100037d0:	001a      	movs	r2, r3
100037d2:	2106      	movs	r1, #6
100037d4:	5651      	ldrsb	r1, [r2, r1]
100037d6:	2900      	cmp	r1, #0
100037d8:	daf3      	bge.n	100037c2 <irq_remove_handler+0xaa>
100037da:	9b00      	ldr	r3, [sp, #0]
100037dc:	2b00      	cmp	r3, #0
100037de:	d005      	beq.n	100037ec <irq_remove_handler+0xd4>
100037e0:	465a      	mov	r2, fp
100037e2:	4b33      	ldr	r3, [pc, #204]	; (100038b0 <irq_remove_handler+0x198>)
100037e4:	601a      	str	r2, [r3, #0]
100037e6:	4b30      	ldr	r3, [pc, #192]	; (100038a8 <irq_remove_handler+0x190>)
100037e8:	601a      	str	r2, [r3, #0]
100037ea:	e7b8      	b.n	1000375e <irq_remove_handler+0x46>
100037ec:	465a      	mov	r2, fp
100037ee:	4b2f      	ldr	r3, [pc, #188]	; (100038ac <irq_remove_handler+0x194>)
100037f0:	601a      	str	r2, [r3, #0]
100037f2:	e7b4      	b.n	1000375e <irq_remove_handler+0x46>
100037f4:	2106      	movs	r1, #6
100037f6:	5659      	ldrsb	r1, [r3, r1]
100037f8:	2900      	cmp	r1, #0
100037fa:	db21      	blt.n	10003840 <irq_remove_handler+0x128>
100037fc:	004a      	lsls	r2, r1, #1
100037fe:	1850      	adds	r0, r2, r1
10003800:	0080      	lsls	r0, r0, #2
10003802:	183c      	adds	r4, r7, r0
10003804:	4680      	mov	r8, r0
10003806:	68a0      	ldr	r0, [r4, #8]
10003808:	6098      	str	r0, [r3, #8]
1000380a:	79e0      	ldrb	r0, [r4, #7]
1000380c:	71d8      	strb	r0, [r3, #7]
1000380e:	2006      	movs	r0, #6
10003810:	5620      	ldrsb	r0, [r4, r0]
10003812:	7198      	strb	r0, [r3, #6]
10003814:	2800      	cmp	r0, #0
10003816:	db24      	blt.n	10003862 <irq_remove_handler+0x14a>
10003818:	88a4      	ldrh	r4, [r4, #4]
1000381a:	1af8      	subs	r0, r7, r3
1000381c:	0564      	lsls	r4, r4, #21
1000381e:	1524      	asrs	r4, r4, #20
10003820:	4444      	add	r4, r8
10003822:	1900      	adds	r0, r0, r4
10003824:	24e0      	movs	r4, #224	; 0xe0
10003826:	0500      	lsls	r0, r0, #20
10003828:	0d40      	lsrs	r0, r0, #21
1000382a:	0224      	lsls	r4, r4, #8
1000382c:	4320      	orrs	r0, r4
1000382e:	8098      	strh	r0, [r3, #4]
10003830:	4b20      	ldr	r3, [pc, #128]	; (100038b4 <irq_remove_handler+0x19c>)
10003832:	1852      	adds	r2, r2, r1
10003834:	7818      	ldrb	r0, [r3, #0]
10003836:	0092      	lsls	r2, r2, #2
10003838:	18ba      	adds	r2, r7, r2
1000383a:	7190      	strb	r0, [r2, #6]
1000383c:	7019      	strb	r1, [r3, #0]
1000383e:	e7cc      	b.n	100037da <irq_remove_handler+0xc2>
10003840:	9901      	ldr	r1, [sp, #4]
10003842:	2900      	cmp	r1, #0
10003844:	d110      	bne.n	10003868 <irq_remove_handler+0x150>
10003846:	31ff      	adds	r1, #255	; 0xff
10003848:	7191      	strb	r1, [r2, #6]
1000384a:	491b      	ldr	r1, [pc, #108]	; (100038b8 <irq_remove_handler+0x1a0>)
1000384c:	8091      	strh	r1, [r2, #4]
1000384e:	4919      	ldr	r1, [pc, #100]	; (100038b4 <irq_remove_handler+0x19c>)
10003850:	780a      	ldrb	r2, [r1, #0]
10003852:	719a      	strb	r2, [r3, #6]
10003854:	4a19      	ldr	r2, [pc, #100]	; (100038bc <irq_remove_handler+0x1a4>)
10003856:	1bdb      	subs	r3, r3, r7
10003858:	415b      	adcs	r3, r3
1000385a:	435a      	muls	r2, r3
1000385c:	0d12      	lsrs	r2, r2, #20
1000385e:	700a      	strb	r2, [r1, #0]
10003860:	e7bb      	b.n	100037da <irq_remove_handler+0xc2>
10003862:	20bd      	movs	r0, #189	; 0xbd
10003864:	0200      	lsls	r0, r0, #8
10003866:	e7e2      	b.n	1000382e <irq_remove_handler+0x116>
10003868:	4a15      	ldr	r2, [pc, #84]	; (100038c0 <irq_remove_handler+0x1a8>)
1000386a:	4916      	ldr	r1, [pc, #88]	; (100038c4 <irq_remove_handler+0x1ac>)
1000386c:	1ad2      	subs	r2, r2, r3
1000386e:	3a08      	subs	r2, #8
10003870:	0250      	lsls	r0, r2, #9
10003872:	0d40      	lsrs	r0, r0, #21
10003874:	4301      	orrs	r1, r0
10003876:	8099      	strh	r1, [r3, #4]
10003878:	4913      	ldr	r1, [pc, #76]	; (100038c8 <irq_remove_handler+0x1b0>)
1000387a:	0852      	lsrs	r2, r2, #1
1000387c:	430a      	orrs	r2, r1
1000387e:	80da      	strh	r2, [r3, #6]
10003880:	e7ab      	b.n	100037da <irq_remove_handler+0xc2>
10003882:	2106      	movs	r1, #6
10003884:	5651      	ldrsb	r1, [r2, r1]
10003886:	0013      	movs	r3, r2
10003888:	2900      	cmp	r1, #0
1000388a:	dab7      	bge.n	100037fc <irq_remove_handler+0xe4>
1000388c:	9a01      	ldr	r2, [sp, #4]
1000388e:	2a00      	cmp	r2, #0
10003890:	d1ea      	bne.n	10003868 <irq_remove_handler+0x150>
10003892:	4645      	mov	r5, r8
10003894:	e7db      	b.n	1000384e <irq_remove_handler+0x136>
10003896:	46c0      	nop			; (mov r8, r8)
10003898:	d0000124 	.word	0xd0000124
1000389c:	e000ed00 	.word	0xe000ed00
100038a0:	100001cd 	.word	0x100001cd
100038a4:	200003ec 	.word	0x200003ec
100038a8:	e000e100 	.word	0xe000e100
100038ac:	e000e180 	.word	0xe000e180
100038b0:	e000e280 	.word	0xe000e280
100038b4:	2000ae04 	.word	0x2000ae04
100038b8:	ffffbd00 	.word	0xffffbd00
100038bc:	0000aaaa 	.word	0x0000aaaa
100038c0:	20000426 	.word	0x20000426
100038c4:	fffff000 	.word	0xfffff000
100038c8:	fffff800 	.word	0xfffff800

100038cc <irq_add_tail_to_free_list>:
100038cc:	b5f8      	push	{r3, r4, r5, r6, r7, lr}
100038ce:	2501      	movs	r5, #1
100038d0:	0004      	movs	r4, r0
100038d2:	4305      	orrs	r5, r0
100038d4:	f7fc fcc7 	bl	10000266 <__get_current_exception>
100038d8:	f3ef 8c10 	mrs	ip, PRIMASK
100038dc:	b672      	cpsid	i
100038de:	4a21      	ldr	r2, [pc, #132]	; (10003964 <irq_add_tail_to_free_list+0x98>)
100038e0:	6813      	ldr	r3, [r2, #0]
100038e2:	2b00      	cmp	r3, #0
100038e4:	d0fc      	beq.n	100038e0 <irq_add_tail_to_free_list+0x14>
100038e6:	f3bf 8f5f 	dmb	sy
100038ea:	4e1f      	ldr	r6, [pc, #124]	; (10003968 <irq_add_tail_to_free_list+0x9c>)
100038ec:	0021      	movs	r1, r4
100038ee:	68b7      	ldr	r7, [r6, #8]
100038f0:	4a1e      	ldr	r2, [pc, #120]	; (1000396c <irq_add_tail_to_free_list+0xa0>)
100038f2:	4b1f      	ldr	r3, [pc, #124]	; (10003970 <irq_add_tail_to_free_list+0xa4>)
100038f4:	1a89      	subs	r1, r1, r2
100038f6:	4149      	adcs	r1, r1
100038f8:	434b      	muls	r3, r1
100038fa:	0d1b      	lsrs	r3, r3, #20
100038fc:	b259      	sxtb	r1, r3
100038fe:	0083      	lsls	r3, r0, #2
10003900:	58f8      	ldr	r0, [r7, r3]
10003902:	42a8      	cmp	r0, r5
10003904:	d01c      	beq.n	10003940 <irq_add_tail_to_free_list+0x74>
10003906:	2306      	movs	r3, #6
10003908:	56d3      	ldrsb	r3, [r2, r3]
1000390a:	428b      	cmp	r3, r1
1000390c:	d01c      	beq.n	10003948 <irq_add_tail_to_free_list+0x7c>
1000390e:	2312      	movs	r3, #18
10003910:	56d3      	ldrsb	r3, [r2, r3]
10003912:	428b      	cmp	r3, r1
10003914:	d022      	beq.n	1000395c <irq_add_tail_to_free_list+0x90>
10003916:	231e      	movs	r3, #30
10003918:	56d3      	ldrsb	r3, [r2, r3]
1000391a:	428b      	cmp	r3, r1
1000391c:	d020      	beq.n	10003960 <irq_add_tail_to_free_list+0x94>
1000391e:	232a      	movs	r3, #42	; 0x2a
10003920:	56d3      	ldrsb	r3, [r2, r3]
10003922:	2003      	movs	r0, #3
10003924:	428b      	cmp	r3, r1
10003926:	d010      	beq.n	1000394a <irq_add_tail_to_free_list+0x7e>
10003928:	4b12      	ldr	r3, [pc, #72]	; (10003974 <irq_add_tail_to_free_list+0xa8>)
1000392a:	781a      	ldrb	r2, [r3, #0]
1000392c:	7019      	strb	r1, [r3, #0]
1000392e:	71a2      	strb	r2, [r4, #6]
10003930:	f3bf 8f5f 	dmb	sy
10003934:	2200      	movs	r2, #0
10003936:	4b0b      	ldr	r3, [pc, #44]	; (10003964 <irq_add_tail_to_free_list+0x98>)
10003938:	601a      	str	r2, [r3, #0]
1000393a:	f38c 8810 	msr	PRIMASK, ip
1000393e:	bdf8      	pop	{r3, r4, r5, r6, r7, pc}
10003940:	68b2      	ldr	r2, [r6, #8]
10003942:	480d      	ldr	r0, [pc, #52]	; (10003978 <irq_add_tail_to_free_list+0xac>)
10003944:	50d0      	str	r0, [r2, r3]
10003946:	e7ef      	b.n	10003928 <irq_add_tail_to_free_list+0x5c>
10003948:	2000      	movs	r0, #0
1000394a:	0043      	lsls	r3, r0, #1
1000394c:	181b      	adds	r3, r3, r0
1000394e:	009b      	lsls	r3, r3, #2
10003950:	18d2      	adds	r2, r2, r3
10003952:	23ff      	movs	r3, #255	; 0xff
10003954:	7193      	strb	r3, [r2, #6]
10003956:	4b09      	ldr	r3, [pc, #36]	; (1000397c <irq_add_tail_to_free_list+0xb0>)
10003958:	8093      	strh	r3, [r2, #4]
1000395a:	e7e5      	b.n	10003928 <irq_add_tail_to_free_list+0x5c>
1000395c:	2001      	movs	r0, #1
1000395e:	e7f4      	b.n	1000394a <irq_add_tail_to_free_list+0x7e>
10003960:	2002      	movs	r0, #2
10003962:	e7f2      	b.n	1000394a <irq_add_tail_to_free_list+0x7e>
10003964:	d0000124 	.word	0xd0000124
10003968:	e000ed00 	.word	0xe000ed00
1000396c:	200003ec 	.word	0x200003ec
10003970:	0000aaaa 	.word	0x0000aaaa
10003974:	2000ae04 	.word	0x2000ae04
10003978:	100001cd 	.word	0x100001cd
1000397c:	ffffbd00 	.word	0xffffbd00

10003980 <irq_init_priorities>:
10003980:	4b05      	ldr	r3, [pc, #20]	; (10003998 <irq_init_priorities+0x18>)
10003982:	4a06      	ldr	r2, [pc, #24]	; (1000399c <irq_init_priorities+0x1c>)
10003984:	6013      	str	r3, [r2, #0]
10003986:	4a06      	ldr	r2, [pc, #24]	; (100039a0 <irq_init_priorities+0x20>)
10003988:	6013      	str	r3, [r2, #0]
1000398a:	6053      	str	r3, [r2, #4]
1000398c:	6093      	str	r3, [r2, #8]
1000398e:	60d3      	str	r3, [r2, #12]
10003990:	6113      	str	r3, [r2, #16]
10003992:	6153      	str	r3, [r2, #20]
10003994:	6193      	str	r3, [r2, #24]
10003996:	4770      	bx	lr
10003998:	80808080 	.word	0x80808080
1000399c:	e000e400 	.word	0xe000e400
100039a0:	e000e404 	.word	0xe000e404

100039a4 <lock_init>:
100039a4:	4b02      	ldr	r3, [pc, #8]	; (100039b0 <lock_init+0xc>)
100039a6:	469c      	mov	ip, r3
100039a8:	4461      	add	r1, ip
100039aa:	0089      	lsls	r1, r1, #2
100039ac:	6001      	str	r1, [r0, #0]
100039ae:	4770      	bx	lr
100039b0:	34000040 	.word	0x34000040

100039b4 <timer_pool_entry_comparator>:
100039b4:	6883      	ldr	r3, [r0, #8]
100039b6:	480b      	ldr	r0, [pc, #44]	; (100039e4 <timer_pool_entry_comparator+0x30>)
100039b8:	b510      	push	{r4, lr}
100039ba:	4684      	mov	ip, r0
100039bc:	4461      	add	r1, ip
100039be:	4462      	add	r2, ip
100039c0:	0112      	lsls	r2, r2, #4
100039c2:	0109      	lsls	r1, r1, #4
100039c4:	1859      	adds	r1, r3, r1
100039c6:	189b      	adds	r3, r3, r2
100039c8:	685c      	ldr	r4, [r3, #4]
100039ca:	684a      	ldr	r2, [r1, #4]
100039cc:	2001      	movs	r0, #1
100039ce:	4294      	cmp	r4, r2
100039d0:	d801      	bhi.n	100039d6 <timer_pool_entry_comparator+0x22>
100039d2:	d002      	beq.n	100039da <timer_pool_entry_comparator+0x26>
100039d4:	2000      	movs	r0, #0
100039d6:	b2c0      	uxtb	r0, r0
100039d8:	bd10      	pop	{r4, pc}
100039da:	681a      	ldr	r2, [r3, #0]
100039dc:	680b      	ldr	r3, [r1, #0]
100039de:	429a      	cmp	r2, r3
100039e0:	d8f9      	bhi.n	100039d6 <timer_pool_entry_comparator+0x22>
100039e2:	e7f7      	b.n	100039d4 <timer_pool_entry_comparator+0x20>
100039e4:	0fffffff 	.word	0x0fffffff

100039e8 <sleep_until_callback>:
100039e8:	4b0a      	ldr	r3, [pc, #40]	; (10003a14 <sleep_until_callback+0x2c>)
100039ea:	6819      	ldr	r1, [r3, #0]
100039ec:	f3ef 8010 	mrs	r0, PRIMASK
100039f0:	b672      	cpsid	i
100039f2:	680a      	ldr	r2, [r1, #0]
100039f4:	2a00      	cmp	r2, #0
100039f6:	d0fc      	beq.n	100039f2 <sleep_until_callback+0xa>
100039f8:	f3bf 8f5f 	dmb	sy
100039fc:	681b      	ldr	r3, [r3, #0]
100039fe:	f3bf 8f5f 	dmb	sy
10003a02:	2200      	movs	r2, #0
10003a04:	601a      	str	r2, [r3, #0]
10003a06:	f380 8810 	msr	PRIMASK, r0
10003a0a:	bf40      	sev
10003a0c:	2000      	movs	r0, #0
10003a0e:	2100      	movs	r1, #0
10003a10:	4770      	bx	lr
10003a12:	46c0      	nop			; (mov r8, r8)
10003a14:	2000adbc 	.word	0x2000adbc

10003a18 <add_alarm_under_lock.isra.0>:
10003a18:	b5f8      	push	{r3, r4, r5, r6, r7, lr}
10003a1a:	4657      	mov	r7, sl
10003a1c:	4645      	mov	r5, r8
10003a1e:	464e      	mov	r6, r9
10003a20:	46de      	mov	lr, fp
10003a22:	b5e0      	push	{r5, r6, r7, lr}
10003a24:	4699      	mov	r9, r3
10003a26:	ab0c      	add	r3, sp, #48	; 0x30
10003a28:	781c      	ldrb	r4, [r3, #0]
10003a2a:	ab0d      	add	r3, sp, #52	; 0x34
10003a2c:	781b      	ldrb	r3, [r3, #0]
10003a2e:	0007      	movs	r7, r0
10003a30:	4690      	mov	r8, r2
10003a32:	469a      	mov	sl, r3
10003a34:	6805      	ldr	r5, [r0, #0]
10003a36:	2c00      	cmp	r4, #0
10003a38:	d144      	bne.n	10003ac4 <add_alarm_under_lock.isra.0+0xac>
10003a3a:	7bac      	ldrb	r4, [r5, #14]
10003a3c:	2c00      	cmp	r4, #0
10003a3e:	d03b      	beq.n	10003ab8 <add_alarm_under_lock.isra.0+0xa0>
10003a40:	0066      	lsls	r6, r4, #1
10003a42:	6829      	ldr	r1, [r5, #0]
10003a44:	1936      	adds	r6, r6, r4
10003a46:	3e03      	subs	r6, #3
10003a48:	1989      	adds	r1, r1, r6
10003a4a:	784b      	ldrb	r3, [r1, #1]
10003a4c:	73ab      	strb	r3, [r5, #14]
10003a4e:	2b00      	cmp	r3, #0
10003a50:	d100      	bne.n	10003a54 <add_alarm_under_lock.isra.0+0x3c>
10003a52:	73eb      	strb	r3, [r5, #15]
10003a54:	2300      	movs	r3, #0
10003a56:	708b      	strb	r3, [r1, #2]
10003a58:	704b      	strb	r3, [r1, #1]
10003a5a:	700b      	strb	r3, [r1, #0]
10003a5c:	4b2e      	ldr	r3, [pc, #184]	; (10003b18 <add_alarm_under_lock.isra.0+0x100>)
10003a5e:	18e2      	adds	r2, r4, r3
10003a60:	68bb      	ldr	r3, [r7, #8]
10003a62:	0112      	lsls	r2, r2, #4
10003a64:	189b      	adds	r3, r3, r2
10003a66:	4642      	mov	r2, r8
10003a68:	601a      	str	r2, [r3, #0]
10003a6a:	464a      	mov	r2, r9
10003a6c:	605a      	str	r2, [r3, #4]
10003a6e:	9a0a      	ldr	r2, [sp, #40]	; 0x28
10003a70:	609a      	str	r2, [r3, #8]
10003a72:	9a0b      	ldr	r2, [sp, #44]	; 0x2c
10003a74:	60da      	str	r2, [r3, #12]
10003a76:	2300      	movs	r3, #0
10003a78:	708b      	strb	r3, [r1, #2]
10003a7a:	704b      	strb	r3, [r1, #1]
10003a7c:	700b      	strb	r3, [r1, #0]
10003a7e:	7b6b      	ldrb	r3, [r5, #13]
10003a80:	469b      	mov	fp, r3
10003a82:	2b00      	cmp	r3, #0
10003a84:	d032      	beq.n	10003aec <add_alarm_under_lock.isra.0+0xd4>
10003a86:	0022      	movs	r2, r4
10003a88:	4659      	mov	r1, fp
10003a8a:	68a8      	ldr	r0, [r5, #8]
10003a8c:	686b      	ldr	r3, [r5, #4]
10003a8e:	4798      	blx	r3
10003a90:	2800      	cmp	r0, #0
10003a92:	d01d      	beq.n	10003ad0 <add_alarm_under_lock.isra.0+0xb8>
10003a94:	465b      	mov	r3, fp
10003a96:	4658      	mov	r0, fp
10003a98:	6829      	ldr	r1, [r5, #0]
10003a9a:	005b      	lsls	r3, r3, #1
10003a9c:	445b      	add	r3, fp
10003a9e:	198e      	adds	r6, r1, r6
10003aa0:	3b03      	subs	r3, #3
10003aa2:	70b0      	strb	r0, [r6, #2]
10003aa4:	18ca      	adds	r2, r1, r3
10003aa6:	5ccb      	ldrb	r3, [r1, r3]
10003aa8:	2b00      	cmp	r3, #0
10003aaa:	d000      	beq.n	10003aae <add_alarm_under_lock.isra.0+0x96>
10003aac:	7073      	strb	r3, [r6, #1]
10003aae:	465b      	mov	r3, fp
10003ab0:	7014      	strb	r4, [r2, #0]
10003ab2:	736b      	strb	r3, [r5, #13]
10003ab4:	455c      	cmp	r4, fp
10003ab6:	d01a      	beq.n	10003aee <add_alarm_under_lock.isra.0+0xd6>
10003ab8:	bcf0      	pop	{r4, r5, r6, r7}
10003aba:	46bb      	mov	fp, r7
10003abc:	46b2      	mov	sl, r6
10003abe:	46a9      	mov	r9, r5
10003ac0:	46a0      	mov	r8, r4
10003ac2:	bdf8      	pop	{r3, r4, r5, r6, r7, pc}
10003ac4:	0066      	lsls	r6, r4, #1
10003ac6:	6829      	ldr	r1, [r5, #0]
10003ac8:	1936      	adds	r6, r6, r4
10003aca:	3e03      	subs	r6, #3
10003acc:	1989      	adds	r1, r1, r6
10003ace:	e7c5      	b.n	10003a5c <add_alarm_under_lock.isra.0+0x44>
10003ad0:	465b      	mov	r3, fp
10003ad2:	005b      	lsls	r3, r3, #1
10003ad4:	682a      	ldr	r2, [r5, #0]
10003ad6:	445b      	add	r3, fp
10003ad8:	3b03      	subs	r3, #3
10003ada:	18d3      	adds	r3, r2, r3
10003adc:	709c      	strb	r4, [r3, #2]
10003ade:	1991      	adds	r1, r2, r6
10003ae0:	5d92      	ldrb	r2, [r2, r6]
10003ae2:	2a00      	cmp	r2, #0
10003ae4:	d000      	beq.n	10003ae8 <add_alarm_under_lock.isra.0+0xd0>
10003ae6:	705a      	strb	r2, [r3, #1]
10003ae8:	465b      	mov	r3, fp
10003aea:	700b      	strb	r3, [r1, #0]
10003aec:	736c      	strb	r4, [r5, #13]
10003aee:	4642      	mov	r2, r8
10003af0:	464b      	mov	r3, r9
10003af2:	7d38      	ldrb	r0, [r7, #20]
10003af4:	f000 fb50 	bl	10004198 <hardware_alarm_set_target>
10003af8:	1e05      	subs	r5, r0, #0
10003afa:	d002      	beq.n	10003b02 <add_alarm_under_lock.isra.0+0xea>
10003afc:	4653      	mov	r3, sl
10003afe:	2b00      	cmp	r3, #0
10003b00:	d004      	beq.n	10003b0c <add_alarm_under_lock.isra.0+0xf4>
10003b02:	9b0e      	ldr	r3, [sp, #56]	; 0x38
10003b04:	2b00      	cmp	r3, #0
10003b06:	d0d7      	beq.n	10003ab8 <add_alarm_under_lock.isra.0+0xa0>
10003b08:	701d      	strb	r5, [r3, #0]
10003b0a:	e7d5      	b.n	10003ab8 <add_alarm_under_lock.isra.0+0xa0>
10003b0c:	0021      	movs	r1, r4
10003b0e:	6838      	ldr	r0, [r7, #0]
10003b10:	f000 fd6a 	bl	100045e8 <ph_remove_and_free_node>
10003b14:	e7f5      	b.n	10003b02 <add_alarm_under_lock.isra.0+0xea>
10003b16:	46c0      	nop			; (mov r8, r8)
10003b18:	0fffffff 	.word	0x0fffffff

10003b1c <alarm_pool_alarm_callback>:
10003b1c:	b5f0      	push	{r4, r5, r6, r7, lr}
10003b1e:	46de      	mov	lr, fp
10003b20:	464e      	mov	r6, r9
10003b22:	4657      	mov	r7, sl
10003b24:	4645      	mov	r5, r8
10003b26:	2300      	movs	r3, #0
10003b28:	b5e0      	push	{r5, r6, r7, lr}
10003b2a:	b08d      	sub	sp, #52	; 0x34
10003b2c:	930a      	str	r3, [sp, #40]	; 0x28
10003b2e:	4b6b      	ldr	r3, [pc, #428]	; (10003cdc <alarm_pool_alarm_callback+0x1c0>)
10003b30:	0082      	lsls	r2, r0, #2
10003b32:	58d3      	ldr	r3, [r2, r3]
10003b34:	900b      	str	r0, [sp, #44]	; 0x2c
10003b36:	4699      	mov	r9, r3
10003b38:	2300      	movs	r3, #0
10003b3a:	469b      	mov	fp, r3
10003b3c:	464b      	mov	r3, r9
10003b3e:	9307      	str	r3, [sp, #28]
10003b40:	f000 faca 	bl	100040d8 <time_us_64>
10003b44:	9c07      	ldr	r4, [sp, #28]
10003b46:	0006      	movs	r6, r0
10003b48:	000f      	movs	r7, r1
10003b4a:	6862      	ldr	r2, [r4, #4]
10003b4c:	f3ef 8510 	mrs	r5, PRIMASK
10003b50:	b672      	cpsid	i
10003b52:	6813      	ldr	r3, [r2, #0]
10003b54:	2b00      	cmp	r3, #0
10003b56:	d0fc      	beq.n	10003b52 <alarm_pool_alarm_callback+0x36>
10003b58:	0022      	movs	r2, r4
10003b5a:	9407      	str	r4, [sp, #28]
10003b5c:	f3bf 8f5f 	dmb	sy
10003b60:	6824      	ldr	r4, [r4, #0]
10003b62:	7b63      	ldrb	r3, [r4, #13]
10003b64:	4699      	mov	r9, r3
10003b66:	2b00      	cmp	r3, #0
10003b68:	d066      	beq.n	10003c38 <alarm_pool_alarm_callback+0x11c>
10003b6a:	6892      	ldr	r2, [r2, #8]
10003b6c:	4b5c      	ldr	r3, [pc, #368]	; (10003ce0 <alarm_pool_alarm_callback+0x1c4>)
10003b6e:	4690      	mov	r8, r2
10003b70:	444b      	add	r3, r9
10003b72:	011b      	lsls	r3, r3, #4
10003b74:	4498      	add	r8, r3
10003b76:	4643      	mov	r3, r8
10003b78:	681a      	ldr	r2, [r3, #0]
10003b7a:	685b      	ldr	r3, [r3, #4]
10003b7c:	0010      	movs	r0, r2
10003b7e:	0019      	movs	r1, r3
10003b80:	1b80      	subs	r0, r0, r6
10003b82:	41b9      	sbcs	r1, r7
10003b84:	2900      	cmp	r1, #0
10003b86:	dd5e      	ble.n	10003c46 <alarm_pool_alarm_callback+0x12a>
10003b88:	980b      	ldr	r0, [sp, #44]	; 0x2c
10003b8a:	f000 fb05 	bl	10004198 <hardware_alarm_set_target>
10003b8e:	2300      	movs	r3, #0
10003b90:	2600      	movs	r6, #0
10003b92:	4698      	mov	r8, r3
10003b94:	2700      	movs	r7, #0
10003b96:	469a      	mov	sl, r3
10003b98:	9c07      	ldr	r4, [sp, #28]
10003b9a:	6863      	ldr	r3, [r4, #4]
10003b9c:	f3bf 8f5f 	dmb	sy
10003ba0:	465a      	mov	r2, fp
10003ba2:	601a      	str	r2, [r3, #0]
10003ba4:	f385 8810 	msr	PRIMASK, r5
10003ba8:	4653      	mov	r3, sl
10003baa:	2b00      	cmp	r3, #0
10003bac:	d108      	bne.n	10003bc0 <alarm_pool_alarm_callback+0xa4>
10003bae:	2800      	cmp	r0, #0
10003bb0:	d1c6      	bne.n	10003b40 <alarm_pool_alarm_callback+0x24>
10003bb2:	b00d      	add	sp, #52	; 0x34
10003bb4:	bcf0      	pop	{r4, r5, r6, r7}
10003bb6:	46bb      	mov	fp, r7
10003bb8:	46b2      	mov	sl, r6
10003bba:	46a9      	mov	r9, r5
10003bbc:	46a0      	mov	r8, r4
10003bbe:	bdf0      	pop	{r4, r5, r6, r7, pc}
10003bc0:	9b0a      	ldr	r3, [sp, #40]	; 0x28
10003bc2:	4641      	mov	r1, r8
10003bc4:	0218      	lsls	r0, r3, #8
10003bc6:	464b      	mov	r3, r9
10003bc8:	4318      	orrs	r0, r3
10003bca:	47d0      	blx	sl
10003bcc:	9008      	str	r0, [sp, #32]
10003bce:	9109      	str	r1, [sp, #36]	; 0x24
10003bd0:	6862      	ldr	r2, [r4, #4]
10003bd2:	f3ef 8510 	mrs	r5, PRIMASK
10003bd6:	b672      	cpsid	i
10003bd8:	6813      	ldr	r3, [r2, #0]
10003bda:	2b00      	cmp	r3, #0
10003bdc:	d0fc      	beq.n	10003bd8 <alarm_pool_alarm_callback+0xbc>
10003bde:	9407      	str	r4, [sp, #28]
10003be0:	f3bf 8f5f 	dmb	sy
10003be4:	9908      	ldr	r1, [sp, #32]
10003be6:	9a09      	ldr	r2, [sp, #36]	; 0x24
10003be8:	2a00      	cmp	r2, #0
10003bea:	db47      	blt.n	10003c7c <alarm_pool_alarm_callback+0x160>
10003bec:	4311      	orrs	r1, r2
10003bee:	d003      	beq.n	10003bf8 <alarm_pool_alarm_callback+0xdc>
10003bf0:	9b07      	ldr	r3, [sp, #28]
10003bf2:	691b      	ldr	r3, [r3, #16]
10003bf4:	2b00      	cmp	r3, #0
10003bf6:	d15c      	bne.n	10003cb2 <alarm_pool_alarm_callback+0x196>
10003bf8:	9b07      	ldr	r3, [sp, #28]
10003bfa:	681b      	ldr	r3, [r3, #0]
10003bfc:	7bd9      	ldrb	r1, [r3, #15]
10003bfe:	2900      	cmp	r1, #0
10003c00:	d006      	beq.n	10003c10 <alarm_pool_alarm_callback+0xf4>
10003c02:	681a      	ldr	r2, [r3, #0]
10003c04:	0048      	lsls	r0, r1, #1
10003c06:	1841      	adds	r1, r0, r1
10003c08:	1852      	adds	r2, r2, r1
10003c0a:	4649      	mov	r1, r9
10003c0c:	3a03      	subs	r2, #3
10003c0e:	7051      	strb	r1, [r2, #1]
10003c10:	464a      	mov	r2, r9
10003c12:	73da      	strb	r2, [r3, #15]
10003c14:	464b      	mov	r3, r9
10003c16:	9a07      	ldr	r2, [sp, #28]
10003c18:	3b01      	subs	r3, #1
10003c1a:	68d1      	ldr	r1, [r2, #12]
10003c1c:	5cca      	ldrb	r2, [r1, r3]
10003c1e:	3201      	adds	r2, #1
10003c20:	54ca      	strb	r2, [r1, r3]
10003c22:	465b      	mov	r3, fp
10003c24:	9a07      	ldr	r2, [sp, #28]
10003c26:	6113      	str	r3, [r2, #16]
10003c28:	6853      	ldr	r3, [r2, #4]
10003c2a:	f3bf 8f5f 	dmb	sy
10003c2e:	465a      	mov	r2, fp
10003c30:	601a      	str	r2, [r3, #0]
10003c32:	f385 8810 	msr	PRIMASK, r5
10003c36:	e783      	b.n	10003b40 <alarm_pool_alarm_callback+0x24>
10003c38:	2300      	movs	r3, #0
10003c3a:	2600      	movs	r6, #0
10003c3c:	4698      	mov	r8, r3
10003c3e:	2700      	movs	r7, #0
10003c40:	469a      	mov	sl, r3
10003c42:	2000      	movs	r0, #0
10003c44:	e7a8      	b.n	10003b98 <alarm_pool_alarm_callback+0x7c>
10003c46:	2900      	cmp	r1, #0
10003c48:	d101      	bne.n	10003c4e <alarm_pool_alarm_callback+0x132>
10003c4a:	2800      	cmp	r0, #0
10003c4c:	d19c      	bne.n	10003b88 <alarm_pool_alarm_callback+0x6c>
10003c4e:	2100      	movs	r1, #0
10003c50:	0020      	movs	r0, r4
10003c52:	f000 fc4b 	bl	100044ec <ph_remove_head>
10003c56:	4643      	mov	r3, r8
10003c58:	681e      	ldr	r6, [r3, #0]
10003c5a:	685f      	ldr	r7, [r3, #4]
10003c5c:	689b      	ldr	r3, [r3, #8]
10003c5e:	9a07      	ldr	r2, [sp, #28]
10003c60:	469a      	mov	sl, r3
10003c62:	4643      	mov	r3, r8
10003c64:	68db      	ldr	r3, [r3, #12]
10003c66:	4698      	mov	r8, r3
10003c68:	68d3      	ldr	r3, [r2, #12]
10003c6a:	444b      	add	r3, r9
10003c6c:	3b01      	subs	r3, #1
10003c6e:	781b      	ldrb	r3, [r3, #0]
10003c70:	930a      	str	r3, [sp, #40]	; 0x28
10003c72:	021b      	lsls	r3, r3, #8
10003c74:	4303      	orrs	r3, r0
10003c76:	6113      	str	r3, [r2, #16]
10003c78:	2000      	movs	r0, #0
10003c7a:	e78d      	b.n	10003b98 <alarm_pool_alarm_callback+0x7c>
10003c7c:	6923      	ldr	r3, [r4, #16]
10003c7e:	2b00      	cmp	r3, #0
10003c80:	d0ba      	beq.n	10003bf8 <alarm_pool_alarm_callback+0xdc>
10003c82:	0033      	movs	r3, r6
10003c84:	003c      	movs	r4, r7
10003c86:	1a5b      	subs	r3, r3, r1
10003c88:	4194      	sbcs	r4, r2
10003c8a:	001a      	movs	r2, r3
10003c8c:	0023      	movs	r3, r4
10003c8e:	42a7      	cmp	r7, r4
10003c90:	d819      	bhi.n	10003cc6 <alarm_pool_alarm_callback+0x1aa>
10003c92:	429f      	cmp	r7, r3
10003c94:	d01b      	beq.n	10003cce <alarm_pool_alarm_callback+0x1b2>
10003c96:	4659      	mov	r1, fp
10003c98:	9104      	str	r1, [sp, #16]
10003c9a:	2101      	movs	r1, #1
10003c9c:	9103      	str	r1, [sp, #12]
10003c9e:	4649      	mov	r1, r9
10003ca0:	9102      	str	r1, [sp, #8]
10003ca2:	4641      	mov	r1, r8
10003ca4:	9101      	str	r1, [sp, #4]
10003ca6:	4651      	mov	r1, sl
10003ca8:	9807      	ldr	r0, [sp, #28]
10003caa:	9100      	str	r1, [sp, #0]
10003cac:	f7ff feb4 	bl	10003a18 <add_alarm_under_lock.isra.0>
10003cb0:	e7b7      	b.n	10003c22 <alarm_pool_alarm_callback+0x106>
10003cb2:	f000 fa11 	bl	100040d8 <time_us_64>
10003cb6:	9a08      	ldr	r2, [sp, #32]
10003cb8:	9b09      	ldr	r3, [sp, #36]	; 0x24
10003cba:	0006      	movs	r6, r0
10003cbc:	000f      	movs	r7, r1
10003cbe:	1992      	adds	r2, r2, r6
10003cc0:	417b      	adcs	r3, r7
10003cc2:	4299      	cmp	r1, r3
10003cc4:	d9e5      	bls.n	10003c92 <alarm_pool_alarm_callback+0x176>
10003cc6:	2201      	movs	r2, #1
10003cc8:	4252      	negs	r2, r2
10003cca:	17d3      	asrs	r3, r2, #31
10003ccc:	e7e3      	b.n	10003c96 <alarm_pool_alarm_callback+0x17a>
10003cce:	4296      	cmp	r6, r2
10003cd0:	d9e1      	bls.n	10003c96 <alarm_pool_alarm_callback+0x17a>
10003cd2:	2201      	movs	r2, #1
10003cd4:	4252      	negs	r2, r2
10003cd6:	17d3      	asrs	r3, r2, #31
10003cd8:	e7dd      	b.n	10003c96 <alarm_pool_alarm_callback+0x17a>
10003cda:	46c0      	nop			; (mov r8, r8)
10003cdc:	2000ac94 	.word	0x2000ac94
10003ce0:	0fffffff 	.word	0x0fffffff

10003ce4 <alarm_pool_add_alarm_at.constprop.0>:
10003ce4:	b5f8      	push	{r3, r4, r5, r6, r7, lr}
10003ce6:	4657      	mov	r7, sl
10003ce8:	464e      	mov	r6, r9
10003cea:	4645      	mov	r5, r8
10003cec:	46de      	mov	lr, fp
10003cee:	b5e0      	push	{r5, r6, r7, lr}
10003cf0:	4d40      	ldr	r5, [pc, #256]	; (10003df4 <alarm_pool_add_alarm_at.constprop.0+0x110>)
10003cf2:	4681      	mov	r9, r0
10003cf4:	468a      	mov	sl, r1
10003cf6:	686a      	ldr	r2, [r5, #4]
10003cf8:	f3ef 8810 	mrs	r8, PRIMASK
10003cfc:	b672      	cpsid	i
10003cfe:	6813      	ldr	r3, [r2, #0]
10003d00:	2b00      	cmp	r3, #0
10003d02:	d0fc      	beq.n	10003cfe <alarm_pool_add_alarm_at.constprop.0+0x1a>
10003d04:	f3bf 8f5f 	dmb	sy
10003d08:	682e      	ldr	r6, [r5, #0]
10003d0a:	7bb4      	ldrb	r4, [r6, #14]
10003d0c:	2c00      	cmp	r4, #0
10003d0e:	d038      	beq.n	10003d82 <alarm_pool_add_alarm_at.constprop.0+0x9e>
10003d10:	0067      	lsls	r7, r4, #1
10003d12:	6833      	ldr	r3, [r6, #0]
10003d14:	193f      	adds	r7, r7, r4
10003d16:	3f03      	subs	r7, #3
10003d18:	19db      	adds	r3, r3, r7
10003d1a:	785a      	ldrb	r2, [r3, #1]
10003d1c:	73b2      	strb	r2, [r6, #14]
10003d1e:	2a00      	cmp	r2, #0
10003d20:	d100      	bne.n	10003d24 <alarm_pool_add_alarm_at.constprop.0+0x40>
10003d22:	73f2      	strb	r2, [r6, #15]
10003d24:	4a34      	ldr	r2, [pc, #208]	; (10003df8 <alarm_pool_add_alarm_at.constprop.0+0x114>)
10003d26:	18a1      	adds	r1, r4, r2
10003d28:	68aa      	ldr	r2, [r5, #8]
10003d2a:	0109      	lsls	r1, r1, #4
10003d2c:	1852      	adds	r2, r2, r1
10003d2e:	4649      	mov	r1, r9
10003d30:	6011      	str	r1, [r2, #0]
10003d32:	4651      	mov	r1, sl
10003d34:	6051      	str	r1, [r2, #4]
10003d36:	4931      	ldr	r1, [pc, #196]	; (10003dfc <alarm_pool_add_alarm_at.constprop.0+0x118>)
10003d38:	6091      	str	r1, [r2, #8]
10003d3a:	2100      	movs	r1, #0
10003d3c:	60d1      	str	r1, [r2, #12]
10003d3e:	7099      	strb	r1, [r3, #2]
10003d40:	7059      	strb	r1, [r3, #1]
10003d42:	7019      	strb	r1, [r3, #0]
10003d44:	7b73      	ldrb	r3, [r6, #13]
10003d46:	469b      	mov	fp, r3
10003d48:	2b00      	cmp	r3, #0
10003d4a:	d036      	beq.n	10003dba <alarm_pool_add_alarm_at.constprop.0+0xd6>
10003d4c:	0022      	movs	r2, r4
10003d4e:	4659      	mov	r1, fp
10003d50:	68b0      	ldr	r0, [r6, #8]
10003d52:	6873      	ldr	r3, [r6, #4]
10003d54:	4798      	blx	r3
10003d56:	2800      	cmp	r0, #0
10003d58:	d021      	beq.n	10003d9e <alarm_pool_add_alarm_at.constprop.0+0xba>
10003d5a:	465b      	mov	r3, fp
10003d5c:	4658      	mov	r0, fp
10003d5e:	6831      	ldr	r1, [r6, #0]
10003d60:	005b      	lsls	r3, r3, #1
10003d62:	445b      	add	r3, fp
10003d64:	19cf      	adds	r7, r1, r7
10003d66:	3b03      	subs	r3, #3
10003d68:	70b8      	strb	r0, [r7, #2]
10003d6a:	18ca      	adds	r2, r1, r3
10003d6c:	5ccb      	ldrb	r3, [r1, r3]
10003d6e:	2b00      	cmp	r3, #0
10003d70:	d000      	beq.n	10003d74 <alarm_pool_add_alarm_at.constprop.0+0x90>
10003d72:	707b      	strb	r3, [r7, #1]
10003d74:	465b      	mov	r3, fp
10003d76:	7014      	strb	r4, [r2, #0]
10003d78:	7373      	strb	r3, [r6, #13]
10003d7a:	455c      	cmp	r4, fp
10003d7c:	d01e      	beq.n	10003dbc <alarm_pool_add_alarm_at.constprop.0+0xd8>
10003d7e:	2600      	movs	r6, #0
10003d80:	e027      	b.n	10003dd2 <alarm_pool_add_alarm_at.constprop.0+0xee>
10003d82:	686b      	ldr	r3, [r5, #4]
10003d84:	f3bf 8f5f 	dmb	sy
10003d88:	601c      	str	r4, [r3, #0]
10003d8a:	f388 8810 	msr	PRIMASK, r8
10003d8e:	2001      	movs	r0, #1
10003d90:	4240      	negs	r0, r0
10003d92:	bcf0      	pop	{r4, r5, r6, r7}
10003d94:	46bb      	mov	fp, r7
10003d96:	46b2      	mov	sl, r6
10003d98:	46a9      	mov	r9, r5
10003d9a:	46a0      	mov	r8, r4
10003d9c:	bdf8      	pop	{r3, r4, r5, r6, r7, pc}
10003d9e:	465b      	mov	r3, fp
10003da0:	005b      	lsls	r3, r3, #1
10003da2:	6832      	ldr	r2, [r6, #0]
10003da4:	445b      	add	r3, fp
10003da6:	3b03      	subs	r3, #3
10003da8:	18d3      	adds	r3, r2, r3
10003daa:	709c      	strb	r4, [r3, #2]
10003dac:	19d1      	adds	r1, r2, r7
10003dae:	5dd2      	ldrb	r2, [r2, r7]
10003db0:	2a00      	cmp	r2, #0
10003db2:	d000      	beq.n	10003db6 <alarm_pool_add_alarm_at.constprop.0+0xd2>
10003db4:	705a      	strb	r2, [r3, #1]
10003db6:	465b      	mov	r3, fp
10003db8:	700b      	strb	r3, [r1, #0]
10003dba:	7374      	strb	r4, [r6, #13]
10003dbc:	464a      	mov	r2, r9
10003dbe:	4653      	mov	r3, sl
10003dc0:	7d28      	ldrb	r0, [r5, #20]
10003dc2:	f000 f9e9 	bl	10004198 <hardware_alarm_set_target>
10003dc6:	1e06      	subs	r6, r0, #0
10003dc8:	d0d9      	beq.n	10003d7e <alarm_pool_add_alarm_at.constprop.0+0x9a>
10003dca:	0021      	movs	r1, r4
10003dcc:	6828      	ldr	r0, [r5, #0]
10003dce:	f000 fc0b 	bl	100045e8 <ph_remove_and_free_node>
10003dd2:	68eb      	ldr	r3, [r5, #12]
10003dd4:	191b      	adds	r3, r3, r4
10003dd6:	3b01      	subs	r3, #1
10003dd8:	7819      	ldrb	r1, [r3, #0]
10003dda:	686b      	ldr	r3, [r5, #4]
10003ddc:	f3bf 8f5f 	dmb	sy
10003de0:	2200      	movs	r2, #0
10003de2:	601a      	str	r2, [r3, #0]
10003de4:	f388 8810 	msr	PRIMASK, r8
10003de8:	2000      	movs	r0, #0
10003dea:	2e00      	cmp	r6, #0
10003dec:	d1d1      	bne.n	10003d92 <alarm_pool_add_alarm_at.constprop.0+0xae>
10003dee:	0208      	lsls	r0, r1, #8
10003df0:	4320      	orrs	r0, r4
10003df2:	e7ce      	b.n	10003d92 <alarm_pool_add_alarm_at.constprop.0+0xae>
10003df4:	20000434 	.word	0x20000434
10003df8:	0fffffff 	.word	0x0fffffff
10003dfc:	100039e9 	.word	0x100039e9

10003e00 <alarm_pool_init_default>:
10003e00:	b510      	push	{r4, lr}
10003e02:	4c12      	ldr	r4, [pc, #72]	; (10003e4c <alarm_pool_init_default+0x4c>)
10003e04:	6863      	ldr	r3, [r4, #4]
10003e06:	2b00      	cmp	r3, #0
10003e08:	d004      	beq.n	10003e14 <alarm_pool_init_default+0x14>
10003e0a:	210a      	movs	r1, #10
10003e0c:	4810      	ldr	r0, [pc, #64]	; (10003e50 <alarm_pool_init_default+0x50>)
10003e0e:	f7ff fdc9 	bl	100039a4 <lock_init>
10003e12:	bd10      	pop	{r4, pc}
10003e14:	0023      	movs	r3, r4
10003e16:	4a0f      	ldr	r2, [pc, #60]	; (10003e54 <alarm_pool_init_default+0x54>)
10003e18:	2110      	movs	r1, #16
10003e1a:	6820      	ldr	r0, [r4, #0]
10003e1c:	f000 fa7e 	bl	1000431c <ph_post_alloc_init>
10003e20:	2003      	movs	r0, #3
10003e22:	f000 f94d 	bl	100040c0 <hardware_alarm_claim>
10003e26:	2003      	movs	r0, #3
10003e28:	f000 fa26 	bl	10004278 <hardware_alarm_cancel>
10003e2c:	2003      	movs	r0, #3
10003e2e:	490a      	ldr	r1, [pc, #40]	; (10003e58 <alarm_pool_init_default+0x58>)
10003e30:	f000 f96c 	bl	1000410c <hardware_alarm_set_callback>
10003e34:	f7fc fc28 	bl	10000688 <next_striped_spin_lock_num>
10003e38:	4b08      	ldr	r3, [pc, #32]	; (10003e5c <alarm_pool_init_default+0x5c>)
10003e3a:	469c      	mov	ip, r3
10003e3c:	2303      	movs	r3, #3
10003e3e:	4460      	add	r0, ip
10003e40:	7523      	strb	r3, [r4, #20]
10003e42:	4b07      	ldr	r3, [pc, #28]	; (10003e60 <alarm_pool_init_default+0x60>)
10003e44:	0080      	lsls	r0, r0, #2
10003e46:	6060      	str	r0, [r4, #4]
10003e48:	60dc      	str	r4, [r3, #12]
10003e4a:	e7de      	b.n	10003e0a <alarm_pool_init_default+0xa>
10003e4c:	20000434 	.word	0x20000434
10003e50:	2000adbc 	.word	0x2000adbc
10003e54:	100039b5 	.word	0x100039b5
10003e58:	10003b1d 	.word	0x10003b1d
10003e5c:	34000040 	.word	0x34000040
10003e60:	2000ac94 	.word	0x2000ac94

10003e64 <sleep_until>:
10003e64:	b5f0      	push	{r4, r5, r6, r7, lr}
10003e66:	0004      	movs	r4, r0
10003e68:	000d      	movs	r5, r1
10003e6a:	2606      	movs	r6, #6
10003e6c:	4276      	negs	r6, r6
10003e6e:	17f7      	asrs	r7, r6, #31
10003e70:	46c6      	mov	lr, r8
10003e72:	1936      	adds	r6, r6, r4
10003e74:	416f      	adcs	r7, r5
10003e76:	b500      	push	{lr}
10003e78:	428f      	cmp	r7, r1
10003e7a:	d813      	bhi.n	10003ea4 <sleep_until+0x40>
10003e7c:	d010      	beq.n	10003ea0 <sleep_until+0x3c>
10003e7e:	f000 f92b 	bl	100040d8 <time_us_64>
10003e82:	0032      	movs	r2, r6
10003e84:	003b      	movs	r3, r7
10003e86:	1a12      	subs	r2, r2, r0
10003e88:	418b      	sbcs	r3, r1
10003e8a:	2b00      	cmp	r3, #0
10003e8c:	dc14      	bgt.n	10003eb8 <sleep_until+0x54>
10003e8e:	2b00      	cmp	r3, #0
10003e90:	d037      	beq.n	10003f02 <sleep_until+0x9e>
10003e92:	0029      	movs	r1, r5
10003e94:	0020      	movs	r0, r4
10003e96:	f000 f929 	bl	100040ec <busy_wait_until>
10003e9a:	bc80      	pop	{r7}
10003e9c:	46b8      	mov	r8, r7
10003e9e:	bdf0      	pop	{r4, r5, r6, r7, pc}
10003ea0:	4286      	cmp	r6, r0
10003ea2:	d9ec      	bls.n	10003e7e <sleep_until+0x1a>
10003ea4:	2600      	movs	r6, #0
10003ea6:	2700      	movs	r7, #0
10003ea8:	f000 f916 	bl	100040d8 <time_us_64>
10003eac:	0032      	movs	r2, r6
10003eae:	003b      	movs	r3, r7
10003eb0:	1a12      	subs	r2, r2, r0
10003eb2:	418b      	sbcs	r3, r1
10003eb4:	2b00      	cmp	r3, #0
10003eb6:	ddea      	ble.n	10003e8e <sleep_until+0x2a>
10003eb8:	0030      	movs	r0, r6
10003eba:	0039      	movs	r1, r7
10003ebc:	f7ff ff12 	bl	10003ce4 <alarm_pool_add_alarm_at.constprop.0>
10003ec0:	2800      	cmp	r0, #0
10003ec2:	dbe6      	blt.n	10003e92 <sleep_until+0x2e>
10003ec4:	2300      	movs	r3, #0
10003ec6:	4698      	mov	r8, r3
10003ec8:	46bc      	mov	ip, r7
10003eca:	4a0f      	ldr	r2, [pc, #60]	; (10003f08 <sleep_until+0xa4>)
10003ecc:	4f0f      	ldr	r7, [pc, #60]	; (10003f0c <sleep_until+0xa8>)
10003ece:	6a7b      	ldr	r3, [r7, #36]	; 0x24
10003ed0:	459c      	cmp	ip, r3
10003ed2:	d804      	bhi.n	10003ede <sleep_until+0x7a>
10003ed4:	6ab9      	ldr	r1, [r7, #40]	; 0x28
10003ed6:	428e      	cmp	r6, r1
10003ed8:	d9db      	bls.n	10003e92 <sleep_until+0x2e>
10003eda:	459c      	cmp	ip, r3
10003edc:	d1d9      	bne.n	10003e92 <sleep_until+0x2e>
10003ede:	6811      	ldr	r1, [r2, #0]
10003ee0:	f3ef 8010 	mrs	r0, PRIMASK
10003ee4:	b672      	cpsid	i
10003ee6:	680b      	ldr	r3, [r1, #0]
10003ee8:	2b00      	cmp	r3, #0
10003eea:	d0fc      	beq.n	10003ee6 <sleep_until+0x82>
10003eec:	f3bf 8f5f 	dmb	sy
10003ef0:	6813      	ldr	r3, [r2, #0]
10003ef2:	f3bf 8f5f 	dmb	sy
10003ef6:	4641      	mov	r1, r8
10003ef8:	6019      	str	r1, [r3, #0]
10003efa:	f380 8810 	msr	PRIMASK, r0
10003efe:	bf20      	wfe
10003f00:	e7e5      	b.n	10003ece <sleep_until+0x6a>
10003f02:	2a00      	cmp	r2, #0
10003f04:	d0c5      	beq.n	10003e92 <sleep_until+0x2e>
10003f06:	e7d7      	b.n	10003eb8 <sleep_until+0x54>
10003f08:	2000adbc 	.word	0x2000adbc
10003f0c:	40054000 	.word	0x40054000

10003f10 <sleep_ms>:
10003f10:	b570      	push	{r4, r5, r6, lr}
10003f12:	0006      	movs	r6, r0
10003f14:	f000 f8e0 	bl	100040d8 <time_us_64>
10003f18:	22fa      	movs	r2, #250	; 0xfa
10003f1a:	0004      	movs	r4, r0
10003f1c:	000d      	movs	r5, r1
10003f1e:	2300      	movs	r3, #0
10003f20:	0030      	movs	r0, r6
10003f22:	2100      	movs	r1, #0
10003f24:	0092      	lsls	r2, r2, #2
10003f26:	f002 fd19 	bl	1000695c <__wrap___aeabi_lmul>
10003f2a:	1900      	adds	r0, r0, r4
10003f2c:	4169      	adcs	r1, r5
10003f2e:	428d      	cmp	r5, r1
10003f30:	d805      	bhi.n	10003f3e <sleep_ms+0x2e>
10003f32:	d002      	beq.n	10003f3a <sleep_ms+0x2a>
10003f34:	f7ff ff96 	bl	10003e64 <sleep_until>
10003f38:	bd70      	pop	{r4, r5, r6, pc}
10003f3a:	4284      	cmp	r4, r0
10003f3c:	d9fa      	bls.n	10003f34 <sleep_ms+0x24>
10003f3e:	2001      	movs	r0, #1
10003f40:	4240      	negs	r0, r0
10003f42:	17c1      	asrs	r1, r0, #31
10003f44:	e7f6      	b.n	10003f34 <sleep_ms+0x24>
10003f46:	46c0      	nop			; (mov r8, r8)

10003f48 <best_effort_wfe_or_timeout>:
10003f48:	b5f8      	push	{r3, r4, r5, r6, r7, lr}
10003f4a:	46ce      	mov	lr, r9
10003f4c:	4647      	mov	r7, r8
10003f4e:	b580      	push	{r7, lr}
10003f50:	0006      	movs	r6, r0
10003f52:	000c      	movs	r4, r1
10003f54:	f7ff fec6 	bl	10003ce4 <alarm_pool_add_alarm_at.constprop.0>
10003f58:	1e03      	subs	r3, r0, #0
10003f5a:	dc11      	bgt.n	10003f80 <best_effort_wfe_or_timeout+0x38>
10003f5c:	4a28      	ldr	r2, [pc, #160]	; (10004000 <best_effort_wfe_or_timeout+0xb8>)
10003f5e:	2000      	movs	r0, #0
10003f60:	6a53      	ldr	r3, [r2, #36]	; 0x24
10003f62:	429c      	cmp	r4, r3
10003f64:	d803      	bhi.n	10003f6e <best_effort_wfe_or_timeout+0x26>
10003f66:	6a92      	ldr	r2, [r2, #40]	; 0x28
10003f68:	3001      	adds	r0, #1
10003f6a:	42b2      	cmp	r2, r6
10003f6c:	d303      	bcc.n	10003f76 <best_effort_wfe_or_timeout+0x2e>
10003f6e:	bcc0      	pop	{r6, r7}
10003f70:	46b9      	mov	r9, r7
10003f72:	46b0      	mov	r8, r6
10003f74:	bdf8      	pop	{r3, r4, r5, r6, r7, pc}
10003f76:	1ae3      	subs	r3, r4, r3
10003f78:	1e5a      	subs	r2, r3, #1
10003f7a:	4193      	sbcs	r3, r2
10003f7c:	b2d8      	uxtb	r0, r3
10003f7e:	e7f6      	b.n	10003f6e <best_effort_wfe_or_timeout+0x26>
10003f80:	bf20      	wfe
10003f82:	4d20      	ldr	r5, [pc, #128]	; (10004004 <best_effort_wfe_or_timeout+0xbc>)
10003f84:	6869      	ldr	r1, [r5, #4]
10003f86:	f3ef 8810 	mrs	r8, PRIMASK
10003f8a:	b672      	cpsid	i
10003f8c:	680a      	ldr	r2, [r1, #0]
10003f8e:	2a00      	cmp	r2, #0
10003f90:	d0fc      	beq.n	10003f8c <best_effort_wfe_or_timeout+0x44>
10003f92:	f3bf 8f5f 	dmb	sy
10003f96:	6828      	ldr	r0, [r5, #0]
10003f98:	b2d9      	uxtb	r1, r3
10003f9a:	7b42      	ldrb	r2, [r0, #13]
10003f9c:	428a      	cmp	r2, r1
10003f9e:	d021      	beq.n	10003fe4 <best_effort_wfe_or_timeout+0x9c>
10003fa0:	22ff      	movs	r2, #255	; 0xff
10003fa2:	6807      	ldr	r7, [r0, #0]
10003fa4:	401a      	ands	r2, r3
10003fa6:	46b9      	mov	r9, r7
10003fa8:	0057      	lsls	r7, r2, #1
10003faa:	46bc      	mov	ip, r7
10003fac:	464f      	mov	r7, r9
10003fae:	4494      	add	ip, r2
10003fb0:	4467      	add	r7, ip
10003fb2:	3f03      	subs	r7, #3
10003fb4:	78bf      	ldrb	r7, [r7, #2]
10003fb6:	2f00      	cmp	r7, #0
10003fb8:	d00f      	beq.n	10003fda <best_effort_wfe_or_timeout+0x92>
10003fba:	68ef      	ldr	r7, [r5, #12]
10003fbc:	0a1b      	lsrs	r3, r3, #8
10003fbe:	18ba      	adds	r2, r7, r2
10003fc0:	3a01      	subs	r2, #1
10003fc2:	7812      	ldrb	r2, [r2, #0]
10003fc4:	b2db      	uxtb	r3, r3
10003fc6:	429a      	cmp	r2, r3
10003fc8:	d016      	beq.n	10003ff8 <best_effort_wfe_or_timeout+0xb0>
10003fca:	686b      	ldr	r3, [r5, #4]
10003fcc:	f3bf 8f5f 	dmb	sy
10003fd0:	2200      	movs	r2, #0
10003fd2:	601a      	str	r2, [r3, #0]
10003fd4:	f388 8810 	msr	PRIMASK, r8
10003fd8:	e7c0      	b.n	10003f5c <best_effort_wfe_or_timeout+0x14>
10003fda:	692a      	ldr	r2, [r5, #16]
10003fdc:	4293      	cmp	r3, r2
10003fde:	d1f4      	bne.n	10003fca <best_effort_wfe_or_timeout+0x82>
10003fe0:	612f      	str	r7, [r5, #16]
10003fe2:	e7f2      	b.n	10003fca <best_effort_wfe_or_timeout+0x82>
10003fe4:	22ff      	movs	r2, #255	; 0xff
10003fe6:	68ef      	ldr	r7, [r5, #12]
10003fe8:	401a      	ands	r2, r3
10003fea:	18ba      	adds	r2, r7, r2
10003fec:	3a01      	subs	r2, #1
10003fee:	0a1b      	lsrs	r3, r3, #8
10003ff0:	7812      	ldrb	r2, [r2, #0]
10003ff2:	b2db      	uxtb	r3, r3
10003ff4:	429a      	cmp	r2, r3
10003ff6:	d1e8      	bne.n	10003fca <best_effort_wfe_or_timeout+0x82>
10003ff8:	f000 faf6 	bl	100045e8 <ph_remove_and_free_node>
10003ffc:	e7e5      	b.n	10003fca <best_effort_wfe_or_timeout+0x82>
10003ffe:	46c0      	nop			; (mov r8, r8)
10004000:	40054000 	.word	0x40054000
10004004:	20000434 	.word	0x20000434

10004008 <hardware_alarm_irq_handler>:
10004008:	b5f0      	push	{r4, r5, r6, r7, lr}
1000400a:	46d6      	mov	lr, sl
1000400c:	464f      	mov	r7, r9
1000400e:	4646      	mov	r6, r8
10004010:	b5c0      	push	{r6, r7, lr}
10004012:	f3ef 8205 	mrs	r2, IPSR
10004016:	233f      	movs	r3, #63	; 0x3f
10004018:	4013      	ands	r3, r2
1000401a:	0018      	movs	r0, r3
1000401c:	3810      	subs	r0, #16
1000401e:	f3ef 8c10 	mrs	ip, PRIMASK
10004022:	b672      	cpsid	i
10004024:	4920      	ldr	r1, [pc, #128]	; (100040a8 <hardware_alarm_irq_handler+0xa0>)
10004026:	680a      	ldr	r2, [r1, #0]
10004028:	2a00      	cmp	r2, #0
1000402a:	d0fc      	beq.n	10004026 <hardware_alarm_irq_handler+0x1e>
1000402c:	f3bf 8f5f 	dmb	sy
10004030:	2201      	movs	r2, #1
10004032:	0017      	movs	r7, r2
10004034:	4087      	lsls	r7, r0
10004036:	4c1d      	ldr	r4, [pc, #116]	; (100040ac <hardware_alarm_irq_handler+0xa4>)
10004038:	0016      	movs	r6, r2
1000403a:	46a2      	mov	sl, r4
1000403c:	6367      	str	r7, [r4, #52]	; 0x34
1000403e:	4c1c      	ldr	r4, [pc, #112]	; (100040b0 <hardware_alarm_irq_handler+0xa8>)
10004040:	7825      	ldrb	r5, [r4, #0]
10004042:	46a0      	mov	r8, r4
10004044:	002c      	movs	r4, r5
10004046:	40c4      	lsrs	r4, r0
10004048:	4026      	ands	r6, r4
1000404a:	4222      	tst	r2, r4
1000404c:	d109      	bne.n	10004062 <hardware_alarm_irq_handler+0x5a>
1000404e:	f3bf 8f5f 	dmb	sy
10004052:	600e      	str	r6, [r1, #0]
10004054:	f38c 8810 	msr	PRIMASK, ip
10004058:	bce0      	pop	{r5, r6, r7}
1000405a:	46ba      	mov	sl, r7
1000405c:	46b1      	mov	r9, r6
1000405e:	46a8      	mov	r8, r5
10004060:	bdf0      	pop	{r4, r5, r6, r7, pc}
10004062:	4652      	mov	r2, sl
10004064:	6a56      	ldr	r6, [r2, #36]	; 0x24
10004066:	4a13      	ldr	r2, [pc, #76]	; (100040b4 <hardware_alarm_irq_handler+0xac>)
10004068:	0084      	lsls	r4, r0, #2
1000406a:	58a2      	ldr	r2, [r4, r2]
1000406c:	4296      	cmp	r6, r2
1000406e:	d30e      	bcc.n	1000408e <hardware_alarm_irq_handler+0x86>
10004070:	4642      	mov	r2, r8
10004072:	4b11      	ldr	r3, [pc, #68]	; (100040b8 <hardware_alarm_irq_handler+0xb0>)
10004074:	43bd      	bics	r5, r7
10004076:	58e3      	ldr	r3, [r4, r3]
10004078:	7015      	strb	r5, [r2, #0]
1000407a:	f3bf 8f5f 	dmb	sy
1000407e:	2200      	movs	r2, #0
10004080:	600a      	str	r2, [r1, #0]
10004082:	f38c 8810 	msr	PRIMASK, ip
10004086:	2b00      	cmp	r3, #0
10004088:	d0e6      	beq.n	10004058 <hardware_alarm_irq_handler+0x50>
1000408a:	4798      	blx	r3
1000408c:	e7e4      	b.n	10004058 <hardware_alarm_irq_handler+0x50>
1000408e:	4a0b      	ldr	r2, [pc, #44]	; (100040bc <hardware_alarm_irq_handler+0xb4>)
10004090:	009b      	lsls	r3, r3, #2
10004092:	4690      	mov	r8, r2
10004094:	4443      	add	r3, r8
10004096:	681a      	ldr	r2, [r3, #0]
10004098:	601a      	str	r2, [r3, #0]
1000409a:	f3bf 8f5f 	dmb	sy
1000409e:	2300      	movs	r3, #0
100040a0:	600b      	str	r3, [r1, #0]
100040a2:	f38c 8810 	msr	PRIMASK, ip
100040a6:	e7d7      	b.n	10004058 <hardware_alarm_irq_handler+0x50>
100040a8:	d0000128 	.word	0xd0000128
100040ac:	40054000 	.word	0x40054000
100040b0:	2000ae08 	.word	0x2000ae08
100040b4:	2000adc0 	.word	0x2000adc0
100040b8:	200006c0 	.word	0x200006c0
100040bc:	40053fd0 	.word	0x40053fd0

100040c0 <hardware_alarm_claim>:
100040c0:	b510      	push	{r4, lr}
100040c2:	4b03      	ldr	r3, [pc, #12]	; (100040d0 <hardware_alarm_claim+0x10>)
100040c4:	0001      	movs	r1, r0
100040c6:	0018      	movs	r0, r3
100040c8:	4a02      	ldr	r2, [pc, #8]	; (100040d4 <hardware_alarm_claim+0x14>)
100040ca:	f7fc fa3b 	bl	10000544 <hw_claim_or_assert>
100040ce:	bd10      	pop	{r4, pc}
100040d0:	2000ae00 	.word	0x2000ae00
100040d4:	1000a224 	.word	0x1000a224

100040d8 <time_us_64>:
100040d8:	4b03      	ldr	r3, [pc, #12]	; (100040e8 <time_us_64+0x10>)
100040da:	6a59      	ldr	r1, [r3, #36]	; 0x24
100040dc:	000a      	movs	r2, r1
100040de:	6a98      	ldr	r0, [r3, #40]	; 0x28
100040e0:	6a59      	ldr	r1, [r3, #36]	; 0x24
100040e2:	428a      	cmp	r2, r1
100040e4:	d1fa      	bne.n	100040dc <time_us_64+0x4>
100040e6:	4770      	bx	lr
100040e8:	40054000 	.word	0x40054000

100040ec <busy_wait_until>:
100040ec:	4a06      	ldr	r2, [pc, #24]	; (10004108 <busy_wait_until+0x1c>)
100040ee:	6a53      	ldr	r3, [r2, #36]	; 0x24
100040f0:	4299      	cmp	r1, r3
100040f2:	d8fc      	bhi.n	100040ee <busy_wait_until+0x2>
100040f4:	d107      	bne.n	10004106 <busy_wait_until+0x1a>
100040f6:	4b04      	ldr	r3, [pc, #16]	; (10004108 <busy_wait_until+0x1c>)
100040f8:	e002      	b.n	10004100 <busy_wait_until+0x14>
100040fa:	6a5a      	ldr	r2, [r3, #36]	; 0x24
100040fc:	4291      	cmp	r1, r2
100040fe:	d102      	bne.n	10004106 <busy_wait_until+0x1a>
10004100:	6a9a      	ldr	r2, [r3, #40]	; 0x28
10004102:	4282      	cmp	r2, r0
10004104:	d3f9      	bcc.n	100040fa <busy_wait_until+0xe>
10004106:	4770      	bx	lr
10004108:	40054000 	.word	0x40054000

1000410c <hardware_alarm_set_callback>:
1000410c:	b570      	push	{r4, r5, r6, lr}
1000410e:	0004      	movs	r4, r0
10004110:	000d      	movs	r5, r1
10004112:	f3ef 8610 	mrs	r6, PRIMASK
10004116:	b672      	cpsid	i
10004118:	4a1a      	ldr	r2, [pc, #104]	; (10004184 <hardware_alarm_set_callback+0x78>)
1000411a:	6813      	ldr	r3, [r2, #0]
1000411c:	2b00      	cmp	r3, #0
1000411e:	d0fc      	beq.n	1000411a <hardware_alarm_set_callback+0xe>
10004120:	f3bf 8f5f 	dmb	sy
10004124:	2d00      	cmp	r5, #0
10004126:	d01b      	beq.n	10004160 <hardware_alarm_set_callback+0x54>
10004128:	0020      	movs	r0, r4
1000412a:	f7ff fac3 	bl	100036b4 <irq_get_vtable_handler>
1000412e:	4916      	ldr	r1, [pc, #88]	; (10004188 <hardware_alarm_set_callback+0x7c>)
10004130:	4281      	cmp	r1, r0
10004132:	d00a      	beq.n	1000414a <hardware_alarm_set_callback+0x3e>
10004134:	0020      	movs	r0, r4
10004136:	f7ff fac5 	bl	100036c4 <irq_set_exclusive_handler>
1000413a:	2101      	movs	r1, #1
1000413c:	0020      	movs	r0, r4
1000413e:	f7ff fa9f 	bl	10003680 <irq_set_enabled>
10004142:	2301      	movs	r3, #1
10004144:	40a3      	lsls	r3, r4
10004146:	4a11      	ldr	r2, [pc, #68]	; (1000418c <hardware_alarm_set_callback+0x80>)
10004148:	6013      	str	r3, [r2, #0]
1000414a:	4b11      	ldr	r3, [pc, #68]	; (10004190 <hardware_alarm_set_callback+0x84>)
1000414c:	00a4      	lsls	r4, r4, #2
1000414e:	50e5      	str	r5, [r4, r3]
10004150:	f3bf 8f5f 	dmb	sy
10004154:	2200      	movs	r2, #0
10004156:	4b0b      	ldr	r3, [pc, #44]	; (10004184 <hardware_alarm_set_callback+0x78>)
10004158:	601a      	str	r2, [r3, #0]
1000415a:	f386 8810 	msr	PRIMASK, r6
1000415e:	bd70      	pop	{r4, r5, r6, pc}
10004160:	2101      	movs	r1, #1
10004162:	40a1      	lsls	r1, r4
10004164:	4b0a      	ldr	r3, [pc, #40]	; (10004190 <hardware_alarm_set_callback+0x84>)
10004166:	00a2      	lsls	r2, r4, #2
10004168:	50d5      	str	r5, [r2, r3]
1000416a:	4b0a      	ldr	r3, [pc, #40]	; (10004194 <hardware_alarm_set_callback+0x88>)
1000416c:	0020      	movs	r0, r4
1000416e:	781a      	ldrb	r2, [r3, #0]
10004170:	438a      	bics	r2, r1
10004172:	4905      	ldr	r1, [pc, #20]	; (10004188 <hardware_alarm_set_callback+0x7c>)
10004174:	701a      	strb	r2, [r3, #0]
10004176:	f7ff facf 	bl	10003718 <irq_remove_handler>
1000417a:	2100      	movs	r1, #0
1000417c:	0020      	movs	r0, r4
1000417e:	f7ff fa7f 	bl	10003680 <irq_set_enabled>
10004182:	e7e5      	b.n	10004150 <hardware_alarm_set_callback+0x44>
10004184:	d0000128 	.word	0xd0000128
10004188:	10004009 	.word	0x10004009
1000418c:	40056038 	.word	0x40056038
10004190:	200006c0 	.word	0x200006c0
10004194:	2000ae08 	.word	0x2000ae08

10004198 <hardware_alarm_set_target>:
10004198:	b5f0      	push	{r4, r5, r6, r7, lr}
1000419a:	464f      	mov	r7, r9
1000419c:	46d6      	mov	lr, sl
1000419e:	4646      	mov	r6, r8
100041a0:	b5c0      	push	{r6, r7, lr}
100041a2:	0007      	movs	r7, r0
100041a4:	4c2f      	ldr	r4, [pc, #188]	; (10004264 <hardware_alarm_set_target+0xcc>)
100041a6:	6a61      	ldr	r1, [r4, #36]	; 0x24
100041a8:	000d      	movs	r5, r1
100041aa:	6aa6      	ldr	r6, [r4, #40]	; 0x28
100041ac:	6a61      	ldr	r1, [r4, #36]	; 0x24
100041ae:	42a9      	cmp	r1, r5
100041b0:	d1fa      	bne.n	100041a8 <hardware_alarm_set_target+0x10>
100041b2:	428b      	cmp	r3, r1
100041b4:	d808      	bhi.n	100041c8 <hardware_alarm_set_target+0x30>
100041b6:	d005      	beq.n	100041c4 <hardware_alarm_set_target+0x2c>
100041b8:	2001      	movs	r0, #1
100041ba:	bce0      	pop	{r5, r6, r7}
100041bc:	46ba      	mov	sl, r7
100041be:	46b1      	mov	r9, r6
100041c0:	46a8      	mov	r8, r5
100041c2:	bdf0      	pop	{r4, r5, r6, r7, pc}
100041c4:	42b2      	cmp	r2, r6
100041c6:	d9f7      	bls.n	100041b8 <hardware_alarm_set_target+0x20>
100041c8:	f3ef 8a10 	mrs	sl, PRIMASK
100041cc:	b672      	cpsid	i
100041ce:	4826      	ldr	r0, [pc, #152]	; (10004268 <hardware_alarm_set_target+0xd0>)
100041d0:	6801      	ldr	r1, [r0, #0]
100041d2:	2900      	cmp	r1, #0
100041d4:	d0fc      	beq.n	100041d0 <hardware_alarm_set_target+0x38>
100041d6:	f3bf 8f5f 	dmb	sy
100041da:	2501      	movs	r5, #1
100041dc:	40bd      	lsls	r5, r7
100041de:	4923      	ldr	r1, [pc, #140]	; (1000426c <hardware_alarm_set_target+0xd4>)
100041e0:	4c20      	ldr	r4, [pc, #128]	; (10004264 <hardware_alarm_set_target+0xcc>)
100041e2:	4688      	mov	r8, r1
100041e4:	7809      	ldrb	r1, [r1, #0]
100041e6:	4689      	mov	r9, r1
100041e8:	4329      	orrs	r1, r5
100041ea:	b2c9      	uxtb	r1, r1
100041ec:	468c      	mov	ip, r1
100041ee:	4641      	mov	r1, r8
100041f0:	4660      	mov	r0, ip
100041f2:	7008      	strb	r0, [r1, #0]
100041f4:	1d39      	adds	r1, r7, #4
100041f6:	0089      	lsls	r1, r1, #2
100041f8:	6365      	str	r5, [r4, #52]	; 0x34
100041fa:	510a      	str	r2, [r1, r4]
100041fc:	491c      	ldr	r1, [pc, #112]	; (10004270 <hardware_alarm_set_target+0xd8>)
100041fe:	00b8      	lsls	r0, r7, #2
10004200:	5043      	str	r3, [r0, r1]
10004202:	6a21      	ldr	r1, [r4, #32]
10004204:	2000      	movs	r0, #0
10004206:	4229      	tst	r1, r5
10004208:	d019      	beq.n	1000423e <hardware_alarm_set_target+0xa6>
1000420a:	6a61      	ldr	r1, [r4, #36]	; 0x24
1000420c:	0008      	movs	r0, r1
1000420e:	6aa6      	ldr	r6, [r4, #40]	; 0x28
10004210:	6a61      	ldr	r1, [r4, #36]	; 0x24
10004212:	4281      	cmp	r1, r0
10004214:	d1fa      	bne.n	1000420c <hardware_alarm_set_target+0x74>
10004216:	428b      	cmp	r3, r1
10004218:	d819      	bhi.n	1000424e <hardware_alarm_set_target+0xb6>
1000421a:	d101      	bne.n	10004220 <hardware_alarm_set_target+0x88>
1000421c:	42b2      	cmp	r2, r6
1000421e:	d816      	bhi.n	1000424e <hardware_alarm_set_target+0xb6>
10004220:	45cc      	cmp	ip, r9
10004222:	d01d      	beq.n	10004260 <hardware_alarm_set_target+0xc8>
10004224:	4b0f      	ldr	r3, [pc, #60]	; (10004264 <hardware_alarm_set_target+0xcc>)
10004226:	221f      	movs	r2, #31
10004228:	621d      	str	r5, [r3, #32]
1000422a:	635d      	str	r5, [r3, #52]	; 0x34
1000422c:	2301      	movs	r3, #1
1000422e:	403a      	ands	r2, r7
10004230:	4093      	lsls	r3, r2
10004232:	4a10      	ldr	r2, [pc, #64]	; (10004274 <hardware_alarm_set_target+0xdc>)
10004234:	2001      	movs	r0, #1
10004236:	6013      	str	r3, [r2, #0]
10004238:	4643      	mov	r3, r8
1000423a:	464a      	mov	r2, r9
1000423c:	701a      	strb	r2, [r3, #0]
1000423e:	f3bf 8f5f 	dmb	sy
10004242:	2200      	movs	r2, #0
10004244:	4b08      	ldr	r3, [pc, #32]	; (10004268 <hardware_alarm_set_target+0xd0>)
10004246:	601a      	str	r2, [r3, #0]
10004248:	f38a 8810 	msr	PRIMASK, sl
1000424c:	e7b5      	b.n	100041ba <hardware_alarm_set_target+0x22>
1000424e:	2000      	movs	r0, #0
10004250:	f3bf 8f5f 	dmb	sy
10004254:	2200      	movs	r2, #0
10004256:	4b04      	ldr	r3, [pc, #16]	; (10004268 <hardware_alarm_set_target+0xd0>)
10004258:	601a      	str	r2, [r3, #0]
1000425a:	f38a 8810 	msr	PRIMASK, sl
1000425e:	e7ac      	b.n	100041ba <hardware_alarm_set_target+0x22>
10004260:	2001      	movs	r0, #1
10004262:	e7ec      	b.n	1000423e <hardware_alarm_set_target+0xa6>
10004264:	40054000 	.word	0x40054000
10004268:	d0000128 	.word	0xd0000128
1000426c:	2000ae08 	.word	0x2000ae08
10004270:	2000adc0 	.word	0x2000adc0
10004274:	e000e280 	.word	0xe000e280

10004278 <hardware_alarm_cancel>:
10004278:	f3ef 8c10 	mrs	ip, PRIMASK
1000427c:	b672      	cpsid	i
1000427e:	490a      	ldr	r1, [pc, #40]	; (100042a8 <hardware_alarm_cancel+0x30>)
10004280:	680b      	ldr	r3, [r1, #0]
10004282:	2b00      	cmp	r3, #0
10004284:	d0fc      	beq.n	10004280 <hardware_alarm_cancel+0x8>
10004286:	f3bf 8f5f 	dmb	sy
1000428a:	2301      	movs	r3, #1
1000428c:	4083      	lsls	r3, r0
1000428e:	4a07      	ldr	r2, [pc, #28]	; (100042ac <hardware_alarm_cancel+0x34>)
10004290:	4807      	ldr	r0, [pc, #28]	; (100042b0 <hardware_alarm_cancel+0x38>)
10004292:	6213      	str	r3, [r2, #32]
10004294:	7802      	ldrb	r2, [r0, #0]
10004296:	439a      	bics	r2, r3
10004298:	7002      	strb	r2, [r0, #0]
1000429a:	f3bf 8f5f 	dmb	sy
1000429e:	2300      	movs	r3, #0
100042a0:	600b      	str	r3, [r1, #0]
100042a2:	f38c 8810 	msr	PRIMASK, ip
100042a6:	4770      	bx	lr
100042a8:	d0000128 	.word	0xd0000128
100042ac:	40054000 	.word	0x40054000
100042b0:	2000ae08 	.word	0x2000ae08

100042b4 <ph_merge_nodes>:
100042b4:	b570      	push	{r4, r5, r6, lr}
100042b6:	0005      	movs	r5, r0
100042b8:	0014      	movs	r4, r2
100042ba:	0016      	movs	r6, r2
100042bc:	2900      	cmp	r1, #0
100042be:	d015      	beq.n	100042ec <ph_merge_nodes+0x38>
100042c0:	000c      	movs	r4, r1
100042c2:	2a00      	cmp	r2, #0
100042c4:	d012      	beq.n	100042ec <ph_merge_nodes+0x38>
100042c6:	6880      	ldr	r0, [r0, #8]
100042c8:	686b      	ldr	r3, [r5, #4]
100042ca:	4798      	blx	r3
100042cc:	6829      	ldr	r1, [r5, #0]
100042ce:	2800      	cmp	r0, #0
100042d0:	d00e      	beq.n	100042f0 <ph_merge_nodes+0x3c>
100042d2:	0073      	lsls	r3, r6, #1
100042d4:	199b      	adds	r3, r3, r6
100042d6:	0062      	lsls	r2, r4, #1
100042d8:	3b03      	subs	r3, #3
100042da:	1912      	adds	r2, r2, r4
100042dc:	18cb      	adds	r3, r1, r3
100042de:	3a03      	subs	r2, #3
100042e0:	709c      	strb	r4, [r3, #2]
100042e2:	1888      	adds	r0, r1, r2
100042e4:	5c8a      	ldrb	r2, [r1, r2]
100042e6:	2a00      	cmp	r2, #0
100042e8:	d115      	bne.n	10004316 <ph_merge_nodes+0x62>
100042ea:	7006      	strb	r6, [r0, #0]
100042ec:	0020      	movs	r0, r4
100042ee:	bd70      	pop	{r4, r5, r6, pc}
100042f0:	0063      	lsls	r3, r4, #1
100042f2:	191b      	adds	r3, r3, r4
100042f4:	0072      	lsls	r2, r6, #1
100042f6:	3b03      	subs	r3, #3
100042f8:	1992      	adds	r2, r2, r6
100042fa:	18cb      	adds	r3, r1, r3
100042fc:	3a03      	subs	r2, #3
100042fe:	709e      	strb	r6, [r3, #2]
10004300:	1888      	adds	r0, r1, r2
10004302:	5c8a      	ldrb	r2, [r1, r2]
10004304:	2a00      	cmp	r2, #0
10004306:	d102      	bne.n	1000430e <ph_merge_nodes+0x5a>
10004308:	7004      	strb	r4, [r0, #0]
1000430a:	0034      	movs	r4, r6
1000430c:	e7ee      	b.n	100042ec <ph_merge_nodes+0x38>
1000430e:	705a      	strb	r2, [r3, #1]
10004310:	7004      	strb	r4, [r0, #0]
10004312:	0034      	movs	r4, r6
10004314:	e7ea      	b.n	100042ec <ph_merge_nodes+0x38>
10004316:	705a      	strb	r2, [r3, #1]
10004318:	7006      	strb	r6, [r0, #0]
1000431a:	e7e7      	b.n	100042ec <ph_merge_nodes+0x38>

1000431c <ph_post_alloc_init>:
1000431c:	b530      	push	{r4, r5, lr}
1000431e:	6083      	str	r3, [r0, #8]
10004320:	2300      	movs	r3, #0
10004322:	b2cc      	uxtb	r4, r1
10004324:	7343      	strb	r3, [r0, #13]
10004326:	3301      	adds	r3, #1
10004328:	7304      	strb	r4, [r0, #12]
1000432a:	6042      	str	r2, [r0, #4]
1000432c:	7383      	strb	r3, [r0, #14]
1000432e:	73c4      	strb	r4, [r0, #15]
10004330:	000d      	movs	r5, r1
10004332:	6800      	ldr	r0, [r0, #0]
10004334:	2c01      	cmp	r4, #1
10004336:	d906      	bls.n	10004346 <ph_post_alloc_init+0x2a>
10004338:	1c42      	adds	r2, r0, #1
1000433a:	3301      	adds	r3, #1
1000433c:	b2db      	uxtb	r3, r3
1000433e:	7013      	strb	r3, [r2, #0]
10004340:	3203      	adds	r2, #3
10004342:	429c      	cmp	r4, r3
10004344:	d1f9      	bne.n	1000433a <ph_post_alloc_init+0x1e>
10004346:	21ff      	movs	r1, #255	; 0xff
10004348:	4029      	ands	r1, r5
1000434a:	004b      	lsls	r3, r1, #1
1000434c:	185b      	adds	r3, r3, r1
1000434e:	18c0      	adds	r0, r0, r3
10004350:	2300      	movs	r3, #0
10004352:	3803      	subs	r0, #3
10004354:	7043      	strb	r3, [r0, #1]
10004356:	bd30      	pop	{r4, r5, pc}

10004358 <ph_merge_two_pass>:
10004358:	b5f8      	push	{r3, r4, r5, r6, r7, lr}
1000435a:	0005      	movs	r5, r0
1000435c:	1e0c      	subs	r4, r1, #0
1000435e:	d007      	beq.n	10004370 <ph_merge_two_pass+0x18>
10004360:	0063      	lsls	r3, r4, #1
10004362:	6801      	ldr	r1, [r0, #0]
10004364:	191b      	adds	r3, r3, r4
10004366:	3b03      	subs	r3, #3
10004368:	18cb      	adds	r3, r1, r3
1000436a:	785a      	ldrb	r2, [r3, #1]
1000436c:	2a00      	cmp	r2, #0
1000436e:	d101      	bne.n	10004374 <ph_merge_two_pass+0x1c>
10004370:	0020      	movs	r0, r4
10004372:	bdf8      	pop	{r3, r4, r5, r6, r7, pc}
10004374:	0050      	lsls	r0, r2, #1
10004376:	1880      	adds	r0, r0, r2
10004378:	3803      	subs	r0, #3
1000437a:	1809      	adds	r1, r1, r0
1000437c:	2000      	movs	r0, #0
1000437e:	784f      	ldrb	r7, [r1, #1]
10004380:	7048      	strb	r0, [r1, #1]
10004382:	0021      	movs	r1, r4
10004384:	7058      	strb	r0, [r3, #1]
10004386:	0028      	movs	r0, r5
10004388:	f7ff ff94 	bl	100042b4 <ph_merge_nodes>
1000438c:	0039      	movs	r1, r7
1000438e:	0006      	movs	r6, r0
10004390:	0028      	movs	r0, r5
10004392:	f7ff ffe1 	bl	10004358 <ph_merge_two_pass>
10004396:	0004      	movs	r4, r0
10004398:	2e00      	cmp	r6, #0
1000439a:	d0e9      	beq.n	10004370 <ph_merge_two_pass+0x18>
1000439c:	2800      	cmp	r0, #0
1000439e:	d026      	beq.n	100043ee <ph_merge_two_pass+0x96>
100043a0:	0031      	movs	r1, r6
100043a2:	0022      	movs	r2, r4
100043a4:	68a8      	ldr	r0, [r5, #8]
100043a6:	686b      	ldr	r3, [r5, #4]
100043a8:	4798      	blx	r3
100043aa:	6829      	ldr	r1, [r5, #0]
100043ac:	2800      	cmp	r0, #0
100043ae:	d00f      	beq.n	100043d0 <ph_merge_two_pass+0x78>
100043b0:	0063      	lsls	r3, r4, #1
100043b2:	191b      	adds	r3, r3, r4
100043b4:	0072      	lsls	r2, r6, #1
100043b6:	3b03      	subs	r3, #3
100043b8:	1992      	adds	r2, r2, r6
100043ba:	18cb      	adds	r3, r1, r3
100043bc:	3a03      	subs	r2, #3
100043be:	709e      	strb	r6, [r3, #2]
100043c0:	1888      	adds	r0, r1, r2
100043c2:	5c8a      	ldrb	r2, [r1, r2]
100043c4:	2a00      	cmp	r2, #0
100043c6:	d000      	beq.n	100043ca <ph_merge_two_pass+0x72>
100043c8:	705a      	strb	r2, [r3, #1]
100043ca:	7004      	strb	r4, [r0, #0]
100043cc:	0034      	movs	r4, r6
100043ce:	e7cf      	b.n	10004370 <ph_merge_two_pass+0x18>
100043d0:	0073      	lsls	r3, r6, #1
100043d2:	199b      	adds	r3, r3, r6
100043d4:	0062      	lsls	r2, r4, #1
100043d6:	3b03      	subs	r3, #3
100043d8:	1912      	adds	r2, r2, r4
100043da:	18cb      	adds	r3, r1, r3
100043dc:	3a03      	subs	r2, #3
100043de:	709c      	strb	r4, [r3, #2]
100043e0:	1888      	adds	r0, r1, r2
100043e2:	5c8a      	ldrb	r2, [r1, r2]
100043e4:	2a00      	cmp	r2, #0
100043e6:	d000      	beq.n	100043ea <ph_merge_two_pass+0x92>
100043e8:	705a      	strb	r2, [r3, #1]
100043ea:	7006      	strb	r6, [r0, #0]
100043ec:	e7c0      	b.n	10004370 <ph_merge_two_pass+0x18>
100043ee:	0034      	movs	r4, r6
100043f0:	e7be      	b.n	10004370 <ph_merge_two_pass+0x18>
100043f2:	46c0      	nop			; (mov r8, r8)

100043f4 <ph_remove_any_head>:
100043f4:	b5f0      	push	{r4, r5, r6, r7, lr}
100043f6:	4657      	mov	r7, sl
100043f8:	4645      	mov	r5, r8
100043fa:	46de      	mov	lr, fp
100043fc:	464e      	mov	r6, r9
100043fe:	b5e0      	push	{r5, r6, r7, lr}
10004400:	000d      	movs	r5, r1
10004402:	006b      	lsls	r3, r5, #1
10004404:	6801      	ldr	r1, [r0, #0]
10004406:	195b      	adds	r3, r3, r5
10004408:	1edf      	subs	r7, r3, #3
1000440a:	0004      	movs	r4, r0
1000440c:	5dc8      	ldrb	r0, [r1, r7]
1000440e:	b083      	sub	sp, #12
10004410:	9201      	str	r2, [sp, #4]
10004412:	19ca      	adds	r2, r1, r7
10004414:	2800      	cmp	r0, #0
10004416:	d04c      	beq.n	100044b2 <ph_remove_any_head+0xbe>
10004418:	0043      	lsls	r3, r0, #1
1000441a:	181b      	adds	r3, r3, r0
1000441c:	3b03      	subs	r3, #3
1000441e:	18cb      	adds	r3, r1, r3
10004420:	785e      	ldrb	r6, [r3, #1]
10004422:	46b4      	mov	ip, r6
10004424:	2e00      	cmp	r6, #0
10004426:	d116      	bne.n	10004456 <ph_remove_any_head+0x62>
10004428:	9e01      	ldr	r6, [sp, #4]
1000442a:	2e00      	cmp	r6, #0
1000442c:	d03e      	beq.n	100044ac <ph_remove_any_head+0xb8>
1000442e:	7be6      	ldrb	r6, [r4, #15]
10004430:	2e00      	cmp	r6, #0
10004432:	d004      	beq.n	1000443e <ph_remove_any_head+0x4a>
10004434:	0073      	lsls	r3, r6, #1
10004436:	199b      	adds	r3, r3, r6
10004438:	18cb      	adds	r3, r1, r3
1000443a:	3b03      	subs	r3, #3
1000443c:	705d      	strb	r5, [r3, #1]
1000443e:	73e5      	strb	r5, [r4, #15]
10004440:	2800      	cmp	r0, #0
10004442:	d12f      	bne.n	100044a4 <ph_remove_any_head+0xb0>
10004444:	2300      	movs	r3, #0
10004446:	7053      	strb	r3, [r2, #1]
10004448:	b003      	add	sp, #12
1000444a:	bcf0      	pop	{r4, r5, r6, r7}
1000444c:	46bb      	mov	fp, r7
1000444e:	46b2      	mov	sl, r6
10004450:	46a9      	mov	r9, r5
10004452:	46a0      	mov	r8, r4
10004454:	bdf0      	pop	{r4, r5, r6, r7, pc}
10004456:	0072      	lsls	r2, r6, #1
10004458:	4462      	add	r2, ip
1000445a:	3a03      	subs	r2, #3
1000445c:	188a      	adds	r2, r1, r2
1000445e:	7851      	ldrb	r1, [r2, #1]
10004460:	4688      	mov	r8, r1
10004462:	2100      	movs	r1, #0
10004464:	7051      	strb	r1, [r2, #1]
10004466:	4689      	mov	r9, r1
10004468:	7059      	strb	r1, [r3, #1]
1000446a:	0032      	movs	r2, r6
1000446c:	0001      	movs	r1, r0
1000446e:	0020      	movs	r0, r4
10004470:	f7ff ff20 	bl	100042b4 <ph_merge_nodes>
10004474:	4643      	mov	r3, r8
10004476:	4682      	mov	sl, r0
10004478:	2b00      	cmp	r3, #0
1000447a:	d007      	beq.n	1000448c <ph_remove_any_head+0x98>
1000447c:	005b      	lsls	r3, r3, #1
1000447e:	6821      	ldr	r1, [r4, #0]
10004480:	4443      	add	r3, r8
10004482:	3b03      	subs	r3, #3
10004484:	18cb      	adds	r3, r1, r3
10004486:	785a      	ldrb	r2, [r3, #1]
10004488:	2a00      	cmp	r2, #0
1000448a:	d116      	bne.n	100044ba <ph_remove_any_head+0xc6>
1000448c:	4642      	mov	r2, r8
1000448e:	4651      	mov	r1, sl
10004490:	0020      	movs	r0, r4
10004492:	f7ff ff0f 	bl	100042b4 <ph_merge_nodes>
10004496:	6821      	ldr	r1, [r4, #0]
10004498:	9b01      	ldr	r3, [sp, #4]
1000449a:	19ca      	adds	r2, r1, r7
1000449c:	2b00      	cmp	r3, #0
1000449e:	d1c6      	bne.n	1000442e <ph_remove_any_head+0x3a>
100044a0:	2800      	cmp	r0, #0
100044a2:	d0cf      	beq.n	10004444 <ph_remove_any_head+0x50>
100044a4:	0043      	lsls	r3, r0, #1
100044a6:	181b      	adds	r3, r3, r0
100044a8:	3b03      	subs	r3, #3
100044aa:	18cb      	adds	r3, r1, r3
100044ac:	2100      	movs	r1, #0
100044ae:	7099      	strb	r1, [r3, #2]
100044b0:	e7c8      	b.n	10004444 <ph_remove_any_head+0x50>
100044b2:	9b01      	ldr	r3, [sp, #4]
100044b4:	2b00      	cmp	r3, #0
100044b6:	d1ba      	bne.n	1000442e <ph_remove_any_head+0x3a>
100044b8:	e7c4      	b.n	10004444 <ph_remove_any_head+0x50>
100044ba:	0050      	lsls	r0, r2, #1
100044bc:	1880      	adds	r0, r0, r2
100044be:	3803      	subs	r0, #3
100044c0:	1809      	adds	r1, r1, r0
100044c2:	7848      	ldrb	r0, [r1, #1]
100044c4:	4683      	mov	fp, r0
100044c6:	4648      	mov	r0, r9
100044c8:	7048      	strb	r0, [r1, #1]
100044ca:	7058      	strb	r0, [r3, #1]
100044cc:	4641      	mov	r1, r8
100044ce:	0020      	movs	r0, r4
100044d0:	f7ff fef0 	bl	100042b4 <ph_merge_nodes>
100044d4:	4659      	mov	r1, fp
100044d6:	4680      	mov	r8, r0
100044d8:	0020      	movs	r0, r4
100044da:	f7ff ff3d 	bl	10004358 <ph_merge_two_pass>
100044de:	4641      	mov	r1, r8
100044e0:	0002      	movs	r2, r0
100044e2:	0020      	movs	r0, r4
100044e4:	f7ff fee6 	bl	100042b4 <ph_merge_nodes>
100044e8:	4680      	mov	r8, r0
100044ea:	e7cf      	b.n	1000448c <ph_remove_any_head+0x98>

100044ec <ph_remove_head>:
100044ec:	b5f0      	push	{r4, r5, r6, r7, lr}
100044ee:	4657      	mov	r7, sl
100044f0:	4645      	mov	r5, r8
100044f2:	46de      	mov	lr, fp
100044f4:	464e      	mov	r6, r9
100044f6:	b5e0      	push	{r5, r6, r7, lr}
100044f8:	b083      	sub	sp, #12
100044fa:	9101      	str	r1, [sp, #4]
100044fc:	7b45      	ldrb	r5, [r0, #13]
100044fe:	0004      	movs	r4, r0
10004500:	006b      	lsls	r3, r5, #1
10004502:	6800      	ldr	r0, [r0, #0]
10004504:	195b      	adds	r3, r3, r5
10004506:	1edf      	subs	r7, r3, #3
10004508:	5dc1      	ldrb	r1, [r0, r7]
1000450a:	19c2      	adds	r2, r0, r7
1000450c:	2900      	cmp	r1, #0
1000450e:	d04e      	beq.n	100045ae <ph_remove_head+0xc2>
10004510:	004b      	lsls	r3, r1, #1
10004512:	185b      	adds	r3, r3, r1
10004514:	3b03      	subs	r3, #3
10004516:	18c3      	adds	r3, r0, r3
10004518:	785e      	ldrb	r6, [r3, #1]
1000451a:	46b4      	mov	ip, r6
1000451c:	2e00      	cmp	r6, #0
1000451e:	d118      	bne.n	10004552 <ph_remove_head+0x66>
10004520:	9e01      	ldr	r6, [sp, #4]
10004522:	2e00      	cmp	r6, #0
10004524:	d040      	beq.n	100045a8 <ph_remove_head+0xbc>
10004526:	7be6      	ldrb	r6, [r4, #15]
10004528:	2e00      	cmp	r6, #0
1000452a:	d004      	beq.n	10004536 <ph_remove_head+0x4a>
1000452c:	0073      	lsls	r3, r6, #1
1000452e:	199b      	adds	r3, r3, r6
10004530:	18c3      	adds	r3, r0, r3
10004532:	3b03      	subs	r3, #3
10004534:	705d      	strb	r5, [r3, #1]
10004536:	73e5      	strb	r5, [r4, #15]
10004538:	2900      	cmp	r1, #0
1000453a:	d131      	bne.n	100045a0 <ph_remove_head+0xb4>
1000453c:	2300      	movs	r3, #0
1000453e:	0028      	movs	r0, r5
10004540:	7053      	strb	r3, [r2, #1]
10004542:	7361      	strb	r1, [r4, #13]
10004544:	b003      	add	sp, #12
10004546:	bcf0      	pop	{r4, r5, r6, r7}
10004548:	46bb      	mov	fp, r7
1000454a:	46b2      	mov	sl, r6
1000454c:	46a9      	mov	r9, r5
1000454e:	46a0      	mov	r8, r4
10004550:	bdf0      	pop	{r4, r5, r6, r7, pc}
10004552:	0072      	lsls	r2, r6, #1
10004554:	4462      	add	r2, ip
10004556:	3a03      	subs	r2, #3
10004558:	1882      	adds	r2, r0, r2
1000455a:	7850      	ldrb	r0, [r2, #1]
1000455c:	4680      	mov	r8, r0
1000455e:	2000      	movs	r0, #0
10004560:	7050      	strb	r0, [r2, #1]
10004562:	4681      	mov	r9, r0
10004564:	7058      	strb	r0, [r3, #1]
10004566:	0032      	movs	r2, r6
10004568:	0020      	movs	r0, r4
1000456a:	f7ff fea3 	bl	100042b4 <ph_merge_nodes>
1000456e:	4643      	mov	r3, r8
10004570:	4682      	mov	sl, r0
10004572:	2b00      	cmp	r3, #0
10004574:	d007      	beq.n	10004586 <ph_remove_head+0x9a>
10004576:	005b      	lsls	r3, r3, #1
10004578:	6821      	ldr	r1, [r4, #0]
1000457a:	4443      	add	r3, r8
1000457c:	3b03      	subs	r3, #3
1000457e:	18cb      	adds	r3, r1, r3
10004580:	785a      	ldrb	r2, [r3, #1]
10004582:	2a00      	cmp	r2, #0
10004584:	d117      	bne.n	100045b6 <ph_remove_head+0xca>
10004586:	4642      	mov	r2, r8
10004588:	4651      	mov	r1, sl
1000458a:	0020      	movs	r0, r4
1000458c:	f7ff fe92 	bl	100042b4 <ph_merge_nodes>
10004590:	9b01      	ldr	r3, [sp, #4]
10004592:	0001      	movs	r1, r0
10004594:	6820      	ldr	r0, [r4, #0]
10004596:	19c2      	adds	r2, r0, r7
10004598:	2b00      	cmp	r3, #0
1000459a:	d1c4      	bne.n	10004526 <ph_remove_head+0x3a>
1000459c:	2900      	cmp	r1, #0
1000459e:	d0cd      	beq.n	1000453c <ph_remove_head+0x50>
100045a0:	004b      	lsls	r3, r1, #1
100045a2:	185b      	adds	r3, r3, r1
100045a4:	3b03      	subs	r3, #3
100045a6:	18c3      	adds	r3, r0, r3
100045a8:	2000      	movs	r0, #0
100045aa:	7098      	strb	r0, [r3, #2]
100045ac:	e7c6      	b.n	1000453c <ph_remove_head+0x50>
100045ae:	9b01      	ldr	r3, [sp, #4]
100045b0:	2b00      	cmp	r3, #0
100045b2:	d1b8      	bne.n	10004526 <ph_remove_head+0x3a>
100045b4:	e7c2      	b.n	1000453c <ph_remove_head+0x50>
100045b6:	0050      	lsls	r0, r2, #1
100045b8:	1880      	adds	r0, r0, r2
100045ba:	3803      	subs	r0, #3
100045bc:	1809      	adds	r1, r1, r0
100045be:	7848      	ldrb	r0, [r1, #1]
100045c0:	4683      	mov	fp, r0
100045c2:	4648      	mov	r0, r9
100045c4:	7048      	strb	r0, [r1, #1]
100045c6:	7058      	strb	r0, [r3, #1]
100045c8:	4641      	mov	r1, r8
100045ca:	0020      	movs	r0, r4
100045cc:	f7ff fe72 	bl	100042b4 <ph_merge_nodes>
100045d0:	4659      	mov	r1, fp
100045d2:	4680      	mov	r8, r0
100045d4:	0020      	movs	r0, r4
100045d6:	f7ff febf 	bl	10004358 <ph_merge_two_pass>
100045da:	4641      	mov	r1, r8
100045dc:	0002      	movs	r2, r0
100045de:	0020      	movs	r0, r4
100045e0:	f7ff fe68 	bl	100042b4 <ph_merge_nodes>
100045e4:	4680      	mov	r8, r0
100045e6:	e7ce      	b.n	10004586 <ph_remove_head+0x9a>

100045e8 <ph_remove_and_free_node>:
100045e8:	b570      	push	{r4, r5, r6, lr}
100045ea:	0004      	movs	r4, r0
100045ec:	2900      	cmp	r1, #0
100045ee:	d02c      	beq.n	1000464a <ph_remove_and_free_node+0x62>
100045f0:	7b43      	ldrb	r3, [r0, #13]
100045f2:	428b      	cmp	r3, r1
100045f4:	d02e      	beq.n	10004654 <ph_remove_and_free_node+0x6c>
100045f6:	6805      	ldr	r5, [r0, #0]
100045f8:	0048      	lsls	r0, r1, #1
100045fa:	1840      	adds	r0, r0, r1
100045fc:	3803      	subs	r0, #3
100045fe:	1828      	adds	r0, r5, r0
10004600:	7882      	ldrb	r2, [r0, #2]
10004602:	2a00      	cmp	r2, #0
10004604:	d021      	beq.n	1000464a <ph_remove_and_free_node+0x62>
10004606:	0053      	lsls	r3, r2, #1
10004608:	189b      	adds	r3, r3, r2
1000460a:	3b03      	subs	r3, #3
1000460c:	5cea      	ldrb	r2, [r5, r3]
1000460e:	18ee      	adds	r6, r5, r3
10004610:	428a      	cmp	r2, r1
10004612:	d102      	bne.n	1000461a <ph_remove_and_free_node+0x32>
10004614:	e01b      	b.n	1000464e <ph_remove_and_free_node+0x66>
10004616:	2a00      	cmp	r2, #0
10004618:	d008      	beq.n	1000462c <ph_remove_and_free_node+0x44>
1000461a:	0053      	lsls	r3, r2, #1
1000461c:	189b      	adds	r3, r3, r2
1000461e:	3b03      	subs	r3, #3
10004620:	18eb      	adds	r3, r5, r3
10004622:	785a      	ldrb	r2, [r3, #1]
10004624:	428a      	cmp	r2, r1
10004626:	d1f6      	bne.n	10004616 <ph_remove_and_free_node+0x2e>
10004628:	7842      	ldrb	r2, [r0, #1]
1000462a:	705a      	strb	r2, [r3, #1]
1000462c:	2300      	movs	r3, #0
1000462e:	2201      	movs	r2, #1
10004630:	7083      	strb	r3, [r0, #2]
10004632:	7043      	strb	r3, [r0, #1]
10004634:	0020      	movs	r0, r4
10004636:	f7ff fedd 	bl	100043f4 <ph_remove_any_head>
1000463a:	7b61      	ldrb	r1, [r4, #13]
1000463c:	0002      	movs	r2, r0
1000463e:	0020      	movs	r0, r4
10004640:	f7ff fe38 	bl	100042b4 <ph_merge_nodes>
10004644:	7360      	strb	r0, [r4, #13]
10004646:	2001      	movs	r0, #1
10004648:	e000      	b.n	1000464c <ph_remove_and_free_node+0x64>
1000464a:	2000      	movs	r0, #0
1000464c:	bd70      	pop	{r4, r5, r6, pc}
1000464e:	7843      	ldrb	r3, [r0, #1]
10004650:	7033      	strb	r3, [r6, #0]
10004652:	e7eb      	b.n	1000462c <ph_remove_and_free_node+0x44>
10004654:	2201      	movs	r2, #1
10004656:	0019      	movs	r1, r3
10004658:	f7ff fecc 	bl	100043f4 <ph_remove_any_head>
1000465c:	7360      	strb	r0, [r4, #13]
1000465e:	2001      	movs	r0, #1
10004660:	e7f4      	b.n	1000464c <ph_remove_and_free_node+0x64>
10004662:	46c0      	nop			; (mov r8, r8)

10004664 <mutex_init>:
10004664:	b510      	push	{r4, lr}
10004666:	0004      	movs	r4, r0
10004668:	f7fc f80e 	bl	10000688 <next_striped_spin_lock_num>
1000466c:	0001      	movs	r1, r0
1000466e:	0020      	movs	r0, r4
10004670:	f7ff f998 	bl	100039a4 <lock_init>
10004674:	23ff      	movs	r3, #255	; 0xff
10004676:	7123      	strb	r3, [r4, #4]
10004678:	f3bf 8f5f 	dmb	sy
1000467c:	bd10      	pop	{r4, pc}
1000467e:	46c0      	nop			; (mov r8, r8)

10004680 <recursive_mutex_init>:
10004680:	b510      	push	{r4, lr}
10004682:	0004      	movs	r4, r0
10004684:	f7fc f800 	bl	10000688 <next_striped_spin_lock_num>
10004688:	0001      	movs	r1, r0
1000468a:	0020      	movs	r0, r4
1000468c:	f7ff f98a 	bl	100039a4 <lock_init>
10004690:	23ff      	movs	r3, #255	; 0xff
10004692:	80a3      	strh	r3, [r4, #4]
10004694:	f3bf 8f5f 	dmb	sy
10004698:	bd10      	pop	{r4, pc}
1000469a:	46c0      	nop			; (mov r8, r8)

1000469c <uart_init>:
1000469c:	b5f8      	push	{r3, r4, r5, r6, r7, lr}
1000469e:	0004      	movs	r4, r0
100046a0:	2006      	movs	r0, #6
100046a2:	000d      	movs	r5, r1
100046a4:	f000 fa5a 	bl	10004b5c <clock_get_hz>
100046a8:	2800      	cmp	r0, #0
100046aa:	d044      	beq.n	10004736 <uart_init+0x9a>
100046ac:	4b2a      	ldr	r3, [pc, #168]	; (10004758 <uart_init+0xbc>)
100046ae:	492b      	ldr	r1, [pc, #172]	; (1000475c <uart_init+0xc0>)
100046b0:	18e2      	adds	r2, r4, r3
100046b2:	4253      	negs	r3, r2
100046b4:	415a      	adcs	r2, r3
100046b6:	2380      	movs	r3, #128	; 0x80
100046b8:	03db      	lsls	r3, r3, #15
100046ba:	469c      	mov	ip, r3
100046bc:	0592      	lsls	r2, r2, #22
100046be:	4b28      	ldr	r3, [pc, #160]	; (10004760 <uart_init+0xc4>)
100046c0:	4462      	add	r2, ip
100046c2:	601a      	str	r2, [r3, #0]
100046c4:	4b27      	ldr	r3, [pc, #156]	; (10004764 <uart_init+0xc8>)
100046c6:	601a      	str	r2, [r3, #0]
100046c8:	0010      	movs	r0, r2
100046ca:	688b      	ldr	r3, [r1, #8]
100046cc:	4398      	bics	r0, r3
100046ce:	d1fb      	bne.n	100046c8 <uart_init+0x2c>
100046d0:	4b21      	ldr	r3, [pc, #132]	; (10004758 <uart_init+0xbc>)
100046d2:	4a25      	ldr	r2, [pc, #148]	; (10004768 <uart_init+0xcc>)
100046d4:	18e3      	adds	r3, r4, r3
100046d6:	4259      	negs	r1, r3
100046d8:	414b      	adcs	r3, r1
100046da:	2180      	movs	r1, #128	; 0x80
100046dc:	005b      	lsls	r3, r3, #1
100046de:	0049      	lsls	r1, r1, #1
100046e0:	5299      	strh	r1, [r3, r2]
100046e2:	2006      	movs	r0, #6
100046e4:	f000 fa3a 	bl	10004b5c <clock_get_hz>
100046e8:	0029      	movs	r1, r5
100046ea:	00c0      	lsls	r0, r0, #3
100046ec:	f001 fdb6 	bl	1000625c <__wrap___aeabi_uidiv>
100046f0:	09c3      	lsrs	r3, r0, #7
100046f2:	d121      	bne.n	10004738 <uart_init+0x9c>
100046f4:	2740      	movs	r7, #64	; 0x40
100046f6:	2101      	movs	r1, #1
100046f8:	0026      	movs	r6, r4
100046fa:	2580      	movs	r5, #128	; 0x80
100046fc:	6261      	str	r1, [r4, #36]	; 0x24
100046fe:	62a3      	str	r3, [r4, #40]	; 0x28
10004700:	2300      	movs	r3, #0
10004702:	362c      	adds	r6, #44	; 0x2c
10004704:	01ad      	lsls	r5, r5, #6
10004706:	4335      	orrs	r5, r6
10004708:	602b      	str	r3, [r5, #0]
1000470a:	2006      	movs	r0, #6
1000470c:	f000 fa26 	bl	10004b5c <clock_get_hz>
10004710:	0039      	movs	r1, r7
10004712:	0080      	lsls	r0, r0, #2
10004714:	f001 fda2 	bl	1000625c <__wrap___aeabi_uidiv>
10004718:	2260      	movs	r2, #96	; 0x60
1000471a:	6ae3      	ldr	r3, [r4, #44]	; 0x2c
1000471c:	4053      	eors	r3, r2
1000471e:	320e      	adds	r2, #14
10004720:	401a      	ands	r2, r3
10004722:	2380      	movs	r3, #128	; 0x80
10004724:	015b      	lsls	r3, r3, #5
10004726:	4333      	orrs	r3, r6
10004728:	601a      	str	r2, [r3, #0]
1000472a:	4b10      	ldr	r3, [pc, #64]	; (1000476c <uart_init+0xd0>)
1000472c:	6323      	str	r3, [r4, #48]	; 0x30
1000472e:	2310      	movs	r3, #16
10004730:	602b      	str	r3, [r5, #0]
10004732:	3b0d      	subs	r3, #13
10004734:	64a3      	str	r3, [r4, #72]	; 0x48
10004736:	bdf8      	pop	{r3, r4, r5, r6, r7, pc}
10004738:	4a0d      	ldr	r2, [pc, #52]	; (10004770 <uart_init+0xd4>)
1000473a:	4293      	cmp	r3, r2
1000473c:	d903      	bls.n	10004746 <uart_init+0xaa>
1000473e:	2300      	movs	r3, #0
10004740:	4f0c      	ldr	r7, [pc, #48]	; (10004774 <uart_init+0xd8>)
10004742:	490d      	ldr	r1, [pc, #52]	; (10004778 <uart_init+0xdc>)
10004744:	e7d8      	b.n	100046f8 <uart_init+0x5c>
10004746:	227f      	movs	r2, #127	; 0x7f
10004748:	4002      	ands	r2, r0
1000474a:	3201      	adds	r2, #1
1000474c:	0852      	lsrs	r2, r2, #1
1000474e:	019f      	lsls	r7, r3, #6
10004750:	0019      	movs	r1, r3
10004752:	18bf      	adds	r7, r7, r2
10004754:	0013      	movs	r3, r2
10004756:	e7cf      	b.n	100046f8 <uart_init+0x5c>
10004758:	bffc8000 	.word	0xbffc8000
1000475c:	4000c000 	.word	0x4000c000
10004760:	4000e000 	.word	0x4000e000
10004764:	4000f000 	.word	0x4000f000
10004768:	2000ade8 	.word	0x2000ade8
1000476c:	00000301 	.word	0x00000301
10004770:	0000fffe 	.word	0x0000fffe
10004774:	003fffc0 	.word	0x003fffc0
10004778:	0000ffff 	.word	0x0000ffff

1000477c <runtime_init>:
1000477c:	4b2c      	ldr	r3, [pc, #176]	; (10004830 <runtime_init+0xb4>)
1000477e:	4a2d      	ldr	r2, [pc, #180]	; (10004834 <runtime_init+0xb8>)
10004780:	b570      	push	{r4, r5, r6, lr}
10004782:	601a      	str	r2, [r3, #0]
10004784:	4a2c      	ldr	r2, [pc, #176]	; (10004838 <runtime_init+0xbc>)
10004786:	4b2d      	ldr	r3, [pc, #180]	; (1000483c <runtime_init+0xc0>)
10004788:	492d      	ldr	r1, [pc, #180]	; (10004840 <runtime_init+0xc4>)
1000478a:	601a      	str	r2, [r3, #0]
1000478c:	0014      	movs	r4, r2
1000478e:	688b      	ldr	r3, [r1, #8]
10004790:	439c      	bics	r4, r3
10004792:	d1fb      	bne.n	1000478c <runtime_init+0x10>
10004794:	4d2b      	ldr	r5, [pc, #172]	; (10004844 <runtime_init+0xc8>)
10004796:	4e2c      	ldr	r6, [pc, #176]	; (10004848 <runtime_init+0xcc>)
10004798:	42b5      	cmp	r5, r6
1000479a:	d208      	bcs.n	100047ae <runtime_init+0x32>
1000479c:	3e01      	subs	r6, #1
1000479e:	1b76      	subs	r6, r6, r5
100047a0:	08b6      	lsrs	r6, r6, #2
100047a2:	cd08      	ldmia	r5!, {r3}
100047a4:	4798      	blx	r3
100047a6:	0023      	movs	r3, r4
100047a8:	3401      	adds	r4, #1
100047aa:	42b3      	cmp	r3, r6
100047ac:	d1f9      	bne.n	100047a2 <runtime_init+0x26>
100047ae:	f000 f87d 	bl	100048ac <clocks_init>
100047b2:	4a26      	ldr	r2, [pc, #152]	; (1000484c <runtime_init+0xd0>)
100047b4:	4b21      	ldr	r3, [pc, #132]	; (1000483c <runtime_init+0xc0>)
100047b6:	601a      	str	r2, [r3, #0]
100047b8:	4a21      	ldr	r2, [pc, #132]	; (10004840 <runtime_init+0xc4>)
100047ba:	6893      	ldr	r3, [r2, #8]
100047bc:	43db      	mvns	r3, r3
100047be:	01db      	lsls	r3, r3, #7
100047c0:	09dd      	lsrs	r5, r3, #7
100047c2:	2b00      	cmp	r3, #0
100047c4:	d1f9      	bne.n	100047ba <runtime_init+0x3e>
100047c6:	2240      	movs	r2, #64	; 0x40
100047c8:	4b21      	ldr	r3, [pc, #132]	; (10004850 <runtime_init+0xd4>)
100047ca:	4c22      	ldr	r4, [pc, #136]	; (10004854 <runtime_init+0xd8>)
100047cc:	4e22      	ldr	r6, [pc, #136]	; (10004858 <runtime_init+0xdc>)
100047ce:	679a      	str	r2, [r3, #120]	; 0x78
100047d0:	675a      	str	r2, [r3, #116]	; 0x74
100047d2:	671a      	str	r2, [r3, #112]	; 0x70
100047d4:	66da      	str	r2, [r3, #108]	; 0x6c
100047d6:	42b4      	cmp	r4, r6
100047d8:	d208      	bcs.n	100047ec <runtime_init+0x70>
100047da:	6823      	ldr	r3, [r4, #0]
100047dc:	0020      	movs	r0, r4
100047de:	2b00      	cmp	r3, #0
100047e0:	d020      	beq.n	10004824 <runtime_init+0xa8>
100047e2:	3408      	adds	r4, #8
100047e4:	f7ff ff4c 	bl	10004680 <recursive_mutex_init>
100047e8:	42b4      	cmp	r4, r6
100047ea:	d3f6      	bcc.n	100047da <runtime_init+0x5e>
100047ec:	4c1b      	ldr	r4, [pc, #108]	; (1000485c <runtime_init+0xe0>)
100047ee:	4e1c      	ldr	r6, [pc, #112]	; (10004860 <runtime_init+0xe4>)
100047f0:	22c0      	movs	r2, #192	; 0xc0
100047f2:	68b1      	ldr	r1, [r6, #8]
100047f4:	0020      	movs	r0, r4
100047f6:	f002 f90d 	bl	10006a14 <__wrap___aeabi_memcpy>
100047fa:	60b4      	str	r4, [r6, #8]
100047fc:	f7fb ff36 	bl	1000066c <spin_locks_reset>
10004800:	f7ff f8be 	bl	10003980 <irq_init_priorities>
10004804:	f7ff fafc 	bl	10003e00 <alarm_pool_init_default>
10004808:	4c16      	ldr	r4, [pc, #88]	; (10004864 <runtime_init+0xe8>)
1000480a:	4e17      	ldr	r6, [pc, #92]	; (10004868 <runtime_init+0xec>)
1000480c:	42b4      	cmp	r4, r6
1000480e:	d208      	bcs.n	10004822 <runtime_init+0xa6>
10004810:	3e01      	subs	r6, #1
10004812:	1b36      	subs	r6, r6, r4
10004814:	08b6      	lsrs	r6, r6, #2
10004816:	cc08      	ldmia	r4!, {r3}
10004818:	4798      	blx	r3
1000481a:	002b      	movs	r3, r5
1000481c:	3501      	adds	r5, #1
1000481e:	429e      	cmp	r6, r3
10004820:	d1f9      	bne.n	10004816 <runtime_init+0x9a>
10004822:	bd70      	pop	{r4, r5, r6, pc}
10004824:	3408      	adds	r4, #8
10004826:	f7ff ff1d 	bl	10004664 <mutex_init>
1000482a:	42b4      	cmp	r4, r6
1000482c:	d3d5      	bcc.n	100047da <runtime_init+0x5e>
1000482e:	e7dd      	b.n	100047ec <runtime_init+0x70>
10004830:	4000e000 	.word	0x4000e000
10004834:	fefbcdbf 	.word	0xfefbcdbf
10004838:	003c7ffe 	.word	0x003c7ffe
1000483c:	4000f000 	.word	0x4000f000
10004840:	4000c000 	.word	0x4000c000
10004844:	200004a0 	.word	0x200004a0
10004848:	200004b0 	.word	0x200004b0
1000484c:	01ffffff 	.word	0x01ffffff
10004850:	4001f000 	.word	0x4001f000
10004854:	20000498 	.word	0x20000498
10004858:	200004a0 	.word	0x200004a0
1000485c:	20000000 	.word	0x20000000
10004860:	e000ed00 	.word	0xe000ed00
10004864:	200004b0 	.word	0x200004b0
10004868:	200004b8 	.word	0x200004b8

1000486c <exit>:
1000486c:	be00      	bkpt	0x0000
1000486e:	e7fd      	b.n	1000486c <exit>

10004870 <panic>:
10004870:	b40f      	push	{r0, r1, r2, r3}
10004872:	b500      	push	{lr}
10004874:	4808      	ldr	r0, [pc, #32]	; (10004898 <panic+0x28>)
10004876:	b083      	sub	sp, #12
10004878:	f002 fa34 	bl	10006ce4 <__wrap_puts>
1000487c:	9b04      	ldr	r3, [sp, #16]
1000487e:	2b00      	cmp	r3, #0
10004880:	d007      	beq.n	10004892 <panic+0x22>
10004882:	a905      	add	r1, sp, #20
10004884:	0018      	movs	r0, r3
10004886:	9101      	str	r1, [sp, #4]
10004888:	f001 fc9a 	bl	100061c0 <weak_raw_vprintf>
1000488c:	4803      	ldr	r0, [pc, #12]	; (1000489c <panic+0x2c>)
1000488e:	f002 fa29 	bl	10006ce4 <__wrap_puts>
10004892:	be00      	bkpt	0x0000
10004894:	e7fd      	b.n	10004892 <panic+0x22>
10004896:	46c0      	nop			; (mov r8, r8)
10004898:	1000a248 	.word	0x1000a248
1000489c:	10009ad4 	.word	0x10009ad4

100048a0 <hard_assertion_failure>:
100048a0:	b510      	push	{r4, lr}
100048a2:	4801      	ldr	r0, [pc, #4]	; (100048a8 <hard_assertion_failure+0x8>)
100048a4:	f7ff ffe4 	bl	10004870 <panic>
100048a8:	1000a258 	.word	0x1000a258

100048ac <clocks_init>:
100048ac:	b510      	push	{r4, lr}
100048ae:	200c      	movs	r0, #12
100048b0:	b082      	sub	sp, #8
100048b2:	f000 f9ad 	bl	10004c10 <watchdog_start_tick>
100048b6:	f7fb fed1 	bl	1000065c <running_on_fpga>
100048ba:	2800      	cmp	r0, #0
100048bc:	d00e      	beq.n	100048dc <clocks_init+0x30>
100048be:	4b85      	ldr	r3, [pc, #532]	; (10004ad4 <clocks_init+0x228>)
100048c0:	4a85      	ldr	r2, [pc, #532]	; (10004ad8 <clocks_init+0x22c>)
100048c2:	601a      	str	r2, [r3, #0]
100048c4:	605a      	str	r2, [r3, #4]
100048c6:	609a      	str	r2, [r3, #8]
100048c8:	60da      	str	r2, [r3, #12]
100048ca:	611a      	str	r2, [r3, #16]
100048cc:	615a      	str	r2, [r3, #20]
100048ce:	619a      	str	r2, [r3, #24]
100048d0:	61da      	str	r2, [r3, #28]
100048d2:	621a      	str	r2, [r3, #32]
100048d4:	4a81      	ldr	r2, [pc, #516]	; (10004adc <clocks_init+0x230>)
100048d6:	625a      	str	r2, [r3, #36]	; 0x24
100048d8:	b002      	add	sp, #8
100048da:	bd10      	pop	{r4, pc}
100048dc:	4c80      	ldr	r4, [pc, #512]	; (10004ae0 <clocks_init+0x234>)
100048de:	67a0      	str	r0, [r4, #120]	; 0x78
100048e0:	f000 f99e 	bl	10004c20 <xosc_init>
100048e4:	2201      	movs	r2, #1
100048e6:	4b7f      	ldr	r3, [pc, #508]	; (10004ae4 <clocks_init+0x238>)
100048e8:	601a      	str	r2, [r3, #0]
100048ea:	6c63      	ldr	r3, [r4, #68]	; 0x44
100048ec:	2b01      	cmp	r3, #1
100048ee:	d1fc      	bne.n	100048ea <clocks_init+0x3e>
100048f0:	2203      	movs	r2, #3
100048f2:	4b7d      	ldr	r3, [pc, #500]	; (10004ae8 <clocks_init+0x23c>)
100048f4:	601a      	str	r2, [r3, #0]
100048f6:	4a7a      	ldr	r2, [pc, #488]	; (10004ae0 <clocks_init+0x234>)
100048f8:	6b93      	ldr	r3, [r2, #56]	; 0x38
100048fa:	2b01      	cmp	r3, #1
100048fc:	d1fc      	bne.n	100048f8 <clocks_init+0x4c>
100048fe:	3301      	adds	r3, #1
10004900:	2101      	movs	r1, #1
10004902:	4a7a      	ldr	r2, [pc, #488]	; (10004aec <clocks_init+0x240>)
10004904:	487a      	ldr	r0, [pc, #488]	; (10004af0 <clocks_init+0x244>)
10004906:	9300      	str	r3, [sp, #0]
10004908:	3304      	adds	r3, #4
1000490a:	f000 f92d 	bl	10004b68 <pll_init>
1000490e:	2305      	movs	r3, #5
10004910:	4a78      	ldr	r2, [pc, #480]	; (10004af4 <clocks_init+0x248>)
10004912:	9300      	str	r3, [sp, #0]
10004914:	2101      	movs	r1, #1
10004916:	4878      	ldr	r0, [pc, #480]	; (10004af8 <clocks_init+0x24c>)
10004918:	f000 f926 	bl	10004b68 <pll_init>
1000491c:	4b77      	ldr	r3, [pc, #476]	; (10004afc <clocks_init+0x250>)
1000491e:	685a      	ldr	r2, [r3, #4]
10004920:	2aff      	cmp	r2, #255	; 0xff
10004922:	d802      	bhi.n	1000492a <clocks_init+0x7e>
10004924:	2280      	movs	r2, #128	; 0x80
10004926:	0052      	lsls	r2, r2, #1
10004928:	605a      	str	r2, [r3, #4]
1000492a:	2280      	movs	r2, #128	; 0x80
1000492c:	4b6e      	ldr	r3, [pc, #440]	; (10004ae8 <clocks_init+0x23c>)
1000492e:	4c69      	ldr	r4, [pc, #420]	; (10004ad4 <clocks_init+0x228>)
10004930:	0112      	lsls	r2, r2, #4
10004932:	601a      	str	r2, [r3, #0]
10004934:	6921      	ldr	r1, [r4, #16]
10004936:	2900      	cmp	r1, #0
10004938:	d005      	beq.n	10004946 <clocks_init+0x9a>
1000493a:	6960      	ldr	r0, [r4, #20]
1000493c:	f001 fc8e 	bl	1000625c <__wrap___aeabi_uidiv>
10004940:	3001      	adds	r0, #1
10004942:	3801      	subs	r0, #1
10004944:	d1fd      	bne.n	10004942 <clocks_init+0x96>
10004946:	22e0      	movs	r2, #224	; 0xe0
10004948:	4b6c      	ldr	r3, [pc, #432]	; (10004afc <clocks_init+0x250>)
1000494a:	486d      	ldr	r0, [pc, #436]	; (10004b00 <clocks_init+0x254>)
1000494c:	6819      	ldr	r1, [r3, #0]
1000494e:	400a      	ands	r2, r1
10004950:	6002      	str	r2, [r0, #0]
10004952:	2202      	movs	r2, #2
10004954:	6819      	ldr	r1, [r3, #0]
10004956:	4051      	eors	r1, r2
10004958:	3201      	adds	r2, #1
1000495a:	400a      	ands	r2, r1
1000495c:	2104      	movs	r1, #4
1000495e:	6002      	str	r2, [r0, #0]
10004960:	689a      	ldr	r2, [r3, #8]
10004962:	4211      	tst	r1, r2
10004964:	d0fc      	beq.n	10004960 <clocks_init+0xb4>
10004966:	2180      	movs	r1, #128	; 0x80
10004968:	4a66      	ldr	r2, [pc, #408]	; (10004b04 <clocks_init+0x258>)
1000496a:	0109      	lsls	r1, r1, #4
1000496c:	6011      	str	r1, [r2, #0]
1000496e:	2280      	movs	r2, #128	; 0x80
10004970:	0052      	lsls	r2, r2, #1
10004972:	605a      	str	r2, [r3, #4]
10004974:	4b64      	ldr	r3, [pc, #400]	; (10004b08 <clocks_init+0x25c>)
10004976:	6123      	str	r3, [r4, #16]
10004978:	4b64      	ldr	r3, [pc, #400]	; (10004b0c <clocks_init+0x260>)
1000497a:	6859      	ldr	r1, [r3, #4]
1000497c:	29ff      	cmp	r1, #255	; 0xff
1000497e:	d800      	bhi.n	10004982 <clocks_init+0xd6>
10004980:	605a      	str	r2, [r3, #4]
10004982:	2203      	movs	r2, #3
10004984:	2101      	movs	r1, #1
10004986:	4b57      	ldr	r3, [pc, #348]	; (10004ae4 <clocks_init+0x238>)
10004988:	601a      	str	r2, [r3, #0]
1000498a:	4a60      	ldr	r2, [pc, #384]	; (10004b0c <clocks_init+0x260>)
1000498c:	6893      	ldr	r3, [r2, #8]
1000498e:	4219      	tst	r1, r3
10004990:	d0fc      	beq.n	1000498c <clocks_init+0xe0>
10004992:	23e0      	movs	r3, #224	; 0xe0
10004994:	6810      	ldr	r0, [r2, #0]
10004996:	4003      	ands	r3, r0
10004998:	485d      	ldr	r0, [pc, #372]	; (10004b10 <clocks_init+0x264>)
1000499a:	6003      	str	r3, [r0, #0]
1000499c:	6812      	ldr	r2, [r2, #0]
1000499e:	2303      	movs	r3, #3
100049a0:	404a      	eors	r2, r1
100049a2:	2102      	movs	r1, #2
100049a4:	4013      	ands	r3, r2
100049a6:	4a59      	ldr	r2, [pc, #356]	; (10004b0c <clocks_init+0x260>)
100049a8:	6003      	str	r3, [r0, #0]
100049aa:	6893      	ldr	r3, [r2, #8]
100049ac:	4219      	tst	r1, r3
100049ae:	d0fc      	beq.n	100049aa <clocks_init+0xfe>
100049b0:	2180      	movs	r1, #128	; 0x80
100049b2:	4b58      	ldr	r3, [pc, #352]	; (10004b14 <clocks_init+0x268>)
100049b4:	0109      	lsls	r1, r1, #4
100049b6:	6019      	str	r1, [r3, #0]
100049b8:	2180      	movs	r1, #128	; 0x80
100049ba:	4b57      	ldr	r3, [pc, #348]	; (10004b18 <clocks_init+0x26c>)
100049bc:	0049      	lsls	r1, r1, #1
100049be:	6051      	str	r1, [r2, #4]
100049c0:	6163      	str	r3, [r4, #20]
100049c2:	4b56      	ldr	r3, [pc, #344]	; (10004b1c <clocks_init+0x270>)
100049c4:	685a      	ldr	r2, [r3, #4]
100049c6:	2aff      	cmp	r2, #255	; 0xff
100049c8:	d800      	bhi.n	100049cc <clocks_init+0x120>
100049ca:	6059      	str	r1, [r3, #4]
100049cc:	2280      	movs	r2, #128	; 0x80
100049ce:	4b54      	ldr	r3, [pc, #336]	; (10004b20 <clocks_init+0x274>)
100049d0:	0112      	lsls	r2, r2, #4
100049d2:	601a      	str	r2, [r3, #0]
100049d4:	69e1      	ldr	r1, [r4, #28]
100049d6:	2900      	cmp	r1, #0
100049d8:	d005      	beq.n	100049e6 <clocks_init+0x13a>
100049da:	6960      	ldr	r0, [r4, #20]
100049dc:	f001 fc3e 	bl	1000625c <__wrap___aeabi_uidiv>
100049e0:	3001      	adds	r0, #1
100049e2:	3801      	subs	r0, #1
100049e4:	d1fd      	bne.n	100049e2 <clocks_init+0x136>
100049e6:	23e0      	movs	r3, #224	; 0xe0
100049e8:	4a4c      	ldr	r2, [pc, #304]	; (10004b1c <clocks_init+0x270>)
100049ea:	6811      	ldr	r1, [r2, #0]
100049ec:	400b      	ands	r3, r1
100049ee:	494d      	ldr	r1, [pc, #308]	; (10004b24 <clocks_init+0x278>)
100049f0:	600b      	str	r3, [r1, #0]
100049f2:	2180      	movs	r1, #128	; 0x80
100049f4:	4b4c      	ldr	r3, [pc, #304]	; (10004b28 <clocks_init+0x27c>)
100049f6:	0109      	lsls	r1, r1, #4
100049f8:	6019      	str	r1, [r3, #0]
100049fa:	2180      	movs	r1, #128	; 0x80
100049fc:	4b36      	ldr	r3, [pc, #216]	; (10004ad8 <clocks_init+0x22c>)
100049fe:	0049      	lsls	r1, r1, #1
10004a00:	6051      	str	r1, [r2, #4]
10004a02:	61e3      	str	r3, [r4, #28]
10004a04:	4b49      	ldr	r3, [pc, #292]	; (10004b2c <clocks_init+0x280>)
10004a06:	685a      	ldr	r2, [r3, #4]
10004a08:	2aff      	cmp	r2, #255	; 0xff
10004a0a:	d800      	bhi.n	10004a0e <clocks_init+0x162>
10004a0c:	6059      	str	r1, [r3, #4]
10004a0e:	2280      	movs	r2, #128	; 0x80
10004a10:	4b47      	ldr	r3, [pc, #284]	; (10004b30 <clocks_init+0x284>)
10004a12:	0112      	lsls	r2, r2, #4
10004a14:	601a      	str	r2, [r3, #0]
10004a16:	6a21      	ldr	r1, [r4, #32]
10004a18:	2900      	cmp	r1, #0
10004a1a:	d005      	beq.n	10004a28 <clocks_init+0x17c>
10004a1c:	6960      	ldr	r0, [r4, #20]
10004a1e:	f001 fc1d 	bl	1000625c <__wrap___aeabi_uidiv>
10004a22:	3001      	adds	r0, #1
10004a24:	3801      	subs	r0, #1
10004a26:	d1fd      	bne.n	10004a24 <clocks_init+0x178>
10004a28:	23e0      	movs	r3, #224	; 0xe0
10004a2a:	4a40      	ldr	r2, [pc, #256]	; (10004b2c <clocks_init+0x280>)
10004a2c:	6811      	ldr	r1, [r2, #0]
10004a2e:	400b      	ands	r3, r1
10004a30:	4940      	ldr	r1, [pc, #256]	; (10004b34 <clocks_init+0x288>)
10004a32:	600b      	str	r3, [r1, #0]
10004a34:	2180      	movs	r1, #128	; 0x80
10004a36:	4b40      	ldr	r3, [pc, #256]	; (10004b38 <clocks_init+0x28c>)
10004a38:	0109      	lsls	r1, r1, #4
10004a3a:	6019      	str	r1, [r3, #0]
10004a3c:	2380      	movs	r3, #128	; 0x80
10004a3e:	005b      	lsls	r3, r3, #1
10004a40:	6053      	str	r3, [r2, #4]
10004a42:	2280      	movs	r2, #128	; 0x80
10004a44:	4b24      	ldr	r3, [pc, #144]	; (10004ad8 <clocks_init+0x22c>)
10004a46:	02d2      	lsls	r2, r2, #11
10004a48:	6223      	str	r3, [r4, #32]
10004a4a:	4b3c      	ldr	r3, [pc, #240]	; (10004b3c <clocks_init+0x290>)
10004a4c:	6859      	ldr	r1, [r3, #4]
10004a4e:	4291      	cmp	r1, r2
10004a50:	d200      	bcs.n	10004a54 <clocks_init+0x1a8>
10004a52:	605a      	str	r2, [r3, #4]
10004a54:	2280      	movs	r2, #128	; 0x80
10004a56:	4b3a      	ldr	r3, [pc, #232]	; (10004b40 <clocks_init+0x294>)
10004a58:	0112      	lsls	r2, r2, #4
10004a5a:	601a      	str	r2, [r3, #0]
10004a5c:	6a61      	ldr	r1, [r4, #36]	; 0x24
10004a5e:	2900      	cmp	r1, #0
10004a60:	d005      	beq.n	10004a6e <clocks_init+0x1c2>
10004a62:	6960      	ldr	r0, [r4, #20]
10004a64:	f001 fbfa 	bl	1000625c <__wrap___aeabi_uidiv>
10004a68:	3001      	adds	r0, #1
10004a6a:	3801      	subs	r0, #1
10004a6c:	d1fd      	bne.n	10004a6a <clocks_init+0x1be>
10004a6e:	23e0      	movs	r3, #224	; 0xe0
10004a70:	4a32      	ldr	r2, [pc, #200]	; (10004b3c <clocks_init+0x290>)
10004a72:	6811      	ldr	r1, [r2, #0]
10004a74:	400b      	ands	r3, r1
10004a76:	4933      	ldr	r1, [pc, #204]	; (10004b44 <clocks_init+0x298>)
10004a78:	600b      	str	r3, [r1, #0]
10004a7a:	2180      	movs	r1, #128	; 0x80
10004a7c:	4b32      	ldr	r3, [pc, #200]	; (10004b48 <clocks_init+0x29c>)
10004a7e:	0109      	lsls	r1, r1, #4
10004a80:	6019      	str	r1, [r3, #0]
10004a82:	2380      	movs	r3, #128	; 0x80
10004a84:	02db      	lsls	r3, r3, #11
10004a86:	6053      	str	r3, [r2, #4]
10004a88:	4b14      	ldr	r3, [pc, #80]	; (10004adc <clocks_init+0x230>)
10004a8a:	6263      	str	r3, [r4, #36]	; 0x24
10004a8c:	4b2f      	ldr	r3, [pc, #188]	; (10004b4c <clocks_init+0x2a0>)
10004a8e:	685a      	ldr	r2, [r3, #4]
10004a90:	2aff      	cmp	r2, #255	; 0xff
10004a92:	d802      	bhi.n	10004a9a <clocks_init+0x1ee>
10004a94:	2280      	movs	r2, #128	; 0x80
10004a96:	0052      	lsls	r2, r2, #1
10004a98:	605a      	str	r2, [r3, #4]
10004a9a:	2280      	movs	r2, #128	; 0x80
10004a9c:	4b2c      	ldr	r3, [pc, #176]	; (10004b50 <clocks_init+0x2a4>)
10004a9e:	0112      	lsls	r2, r2, #4
10004aa0:	601a      	str	r2, [r3, #0]
10004aa2:	69a1      	ldr	r1, [r4, #24]
10004aa4:	2900      	cmp	r1, #0
10004aa6:	d005      	beq.n	10004ab4 <clocks_init+0x208>
10004aa8:	6960      	ldr	r0, [r4, #20]
10004aaa:	f001 fbd7 	bl	1000625c <__wrap___aeabi_uidiv>
10004aae:	3001      	adds	r0, #1
10004ab0:	3801      	subs	r0, #1
10004ab2:	d1fd      	bne.n	10004ab0 <clocks_init+0x204>
10004ab4:	23e0      	movs	r3, #224	; 0xe0
10004ab6:	4a25      	ldr	r2, [pc, #148]	; (10004b4c <clocks_init+0x2a0>)
10004ab8:	6811      	ldr	r1, [r2, #0]
10004aba:	400b      	ands	r3, r1
10004abc:	4925      	ldr	r1, [pc, #148]	; (10004b54 <clocks_init+0x2a8>)
10004abe:	600b      	str	r3, [r1, #0]
10004ac0:	2180      	movs	r1, #128	; 0x80
10004ac2:	4b25      	ldr	r3, [pc, #148]	; (10004b58 <clocks_init+0x2ac>)
10004ac4:	0109      	lsls	r1, r1, #4
10004ac6:	6019      	str	r1, [r3, #0]
10004ac8:	2380      	movs	r3, #128	; 0x80
10004aca:	005b      	lsls	r3, r3, #1
10004acc:	6053      	str	r3, [r2, #4]
10004ace:	4b12      	ldr	r3, [pc, #72]	; (10004b18 <clocks_init+0x26c>)
10004ad0:	61a3      	str	r3, [r4, #24]
10004ad2:	e701      	b.n	100048d8 <clocks_init+0x2c>
10004ad4:	200008cc 	.word	0x200008cc
10004ad8:	02dc6c00 	.word	0x02dc6c00
10004adc:	0000b71b 	.word	0x0000b71b
10004ae0:	40008000 	.word	0x40008000
10004ae4:	4000b03c 	.word	0x4000b03c
10004ae8:	4000b030 	.word	0x4000b030
10004aec:	59682f00 	.word	0x59682f00
10004af0:	40028000 	.word	0x40028000
10004af4:	47868c00 	.word	0x47868c00
10004af8:	4002c000 	.word	0x4002c000
10004afc:	40008030 	.word	0x40008030
10004b00:	40009030 	.word	0x40009030
10004b04:	4000a030 	.word	0x4000a030
10004b08:	00b71b00 	.word	0x00b71b00
10004b0c:	4000803c 	.word	0x4000803c
10004b10:	4000903c 	.word	0x4000903c
10004b14:	4000a03c 	.word	0x4000a03c
10004b18:	07735940 	.word	0x07735940
10004b1c:	40008054 	.word	0x40008054
10004b20:	4000b054 	.word	0x4000b054
10004b24:	40009054 	.word	0x40009054
10004b28:	4000a054 	.word	0x4000a054
10004b2c:	40008060 	.word	0x40008060
10004b30:	4000b060 	.word	0x4000b060
10004b34:	40009060 	.word	0x40009060
10004b38:	4000a060 	.word	0x4000a060
10004b3c:	4000806c 	.word	0x4000806c
10004b40:	4000b06c 	.word	0x4000b06c
10004b44:	4000906c 	.word	0x4000906c
10004b48:	4000a06c 	.word	0x4000a06c
10004b4c:	40008048 	.word	0x40008048
10004b50:	4000b048 	.word	0x4000b048
10004b54:	40009048 	.word	0x40009048
10004b58:	4000a048 	.word	0x4000a048

10004b5c <clock_get_hz>:
10004b5c:	4b01      	ldr	r3, [pc, #4]	; (10004b64 <clock_get_hz+0x8>)
10004b5e:	0080      	lsls	r0, r0, #2
10004b60:	58c0      	ldr	r0, [r0, r3]
10004b62:	4770      	bx	lr
10004b64:	200008cc 	.word	0x200008cc

10004b68 <pll_init>:
10004b68:	b5f8      	push	{r3, r4, r5, r6, r7, lr}
10004b6a:	0004      	movs	r4, r0
10004b6c:	200c      	movs	r0, #12
10004b6e:	0017      	movs	r7, r2
10004b70:	001d      	movs	r5, r3
10004b72:	000e      	movs	r6, r1
10004b74:	f001 fb72 	bl	1000625c <__wrap___aeabi_uidiv>
10004b78:	0143      	lsls	r3, r0, #5
10004b7a:	1a1b      	subs	r3, r3, r0
10004b7c:	0199      	lsls	r1, r3, #6
10004b7e:	1ac9      	subs	r1, r1, r3
10004b80:	00c9      	lsls	r1, r1, #3
10004b82:	1809      	adds	r1, r1, r0
10004b84:	0189      	lsls	r1, r1, #6
10004b86:	0038      	movs	r0, r7
10004b88:	f001 fb68 	bl	1000625c <__wrap___aeabi_uidiv>
10004b8c:	9b06      	ldr	r3, [sp, #24]
10004b8e:	0429      	lsls	r1, r5, #16
10004b90:	031b      	lsls	r3, r3, #12
10004b92:	4319      	orrs	r1, r3
10004b94:	6823      	ldr	r3, [r4, #0]
10004b96:	2b00      	cmp	r3, #0
10004b98:	db20      	blt.n	10004bdc <pll_init+0x74>
10004b9a:	4b19      	ldr	r3, [pc, #100]	; (10004c00 <pll_init+0x98>)
10004b9c:	4d19      	ldr	r5, [pc, #100]	; (10004c04 <pll_init+0x9c>)
10004b9e:	18e3      	adds	r3, r4, r3
10004ba0:	425a      	negs	r2, r3
10004ba2:	4153      	adcs	r3, r2
10004ba4:	2280      	movs	r2, #128	; 0x80
10004ba6:	0152      	lsls	r2, r2, #5
10004ba8:	4694      	mov	ip, r2
10004baa:	031b      	lsls	r3, r3, #12
10004bac:	4a16      	ldr	r2, [pc, #88]	; (10004c08 <pll_init+0xa0>)
10004bae:	4463      	add	r3, ip
10004bb0:	6013      	str	r3, [r2, #0]
10004bb2:	4a16      	ldr	r2, [pc, #88]	; (10004c0c <pll_init+0xa4>)
10004bb4:	6013      	str	r3, [r2, #0]
10004bb6:	001f      	movs	r7, r3
10004bb8:	68aa      	ldr	r2, [r5, #8]
10004bba:	4397      	bics	r7, r2
10004bbc:	d1fb      	bne.n	10004bb6 <pll_init+0x4e>
10004bbe:	23c0      	movs	r3, #192	; 0xc0
10004bc0:	1d22      	adds	r2, r4, #4
10004bc2:	019b      	lsls	r3, r3, #6
10004bc4:	4313      	orrs	r3, r2
10004bc6:	2221      	movs	r2, #33	; 0x21
10004bc8:	6026      	str	r6, [r4, #0]
10004bca:	60a0      	str	r0, [r4, #8]
10004bcc:	601a      	str	r2, [r3, #0]
10004bce:	6822      	ldr	r2, [r4, #0]
10004bd0:	2a00      	cmp	r2, #0
10004bd2:	dafc      	bge.n	10004bce <pll_init+0x66>
10004bd4:	2208      	movs	r2, #8
10004bd6:	60e1      	str	r1, [r4, #12]
10004bd8:	601a      	str	r2, [r3, #0]
10004bda:	bdf8      	pop	{r3, r4, r5, r6, r7, pc}
10004bdc:	233f      	movs	r3, #63	; 0x3f
10004bde:	6822      	ldr	r2, [r4, #0]
10004be0:	4013      	ands	r3, r2
10004be2:	42b3      	cmp	r3, r6
10004be4:	d1d9      	bne.n	10004b9a <pll_init+0x32>
10004be6:	68a3      	ldr	r3, [r4, #8]
10004be8:	051b      	lsls	r3, r3, #20
10004bea:	0d1b      	lsrs	r3, r3, #20
10004bec:	4283      	cmp	r3, r0
10004bee:	d1d4      	bne.n	10004b9a <pll_init+0x32>
10004bf0:	22ee      	movs	r2, #238	; 0xee
10004bf2:	68e3      	ldr	r3, [r4, #12]
10004bf4:	02d2      	lsls	r2, r2, #11
10004bf6:	4013      	ands	r3, r2
10004bf8:	428b      	cmp	r3, r1
10004bfa:	d1ce      	bne.n	10004b9a <pll_init+0x32>
10004bfc:	e7ed      	b.n	10004bda <pll_init+0x72>
10004bfe:	46c0      	nop			; (mov r8, r8)
10004c00:	bffd4000 	.word	0xbffd4000
10004c04:	4000c000 	.word	0x4000c000
10004c08:	4000e000 	.word	0x4000e000
10004c0c:	4000f000 	.word	0x4000f000

10004c10 <watchdog_start_tick>:
10004c10:	2380      	movs	r3, #128	; 0x80
10004c12:	4a02      	ldr	r2, [pc, #8]	; (10004c1c <watchdog_start_tick+0xc>)
10004c14:	009b      	lsls	r3, r3, #2
10004c16:	4303      	orrs	r3, r0
10004c18:	62d3      	str	r3, [r2, #44]	; 0x2c
10004c1a:	4770      	bx	lr
10004c1c:	40058000 	.word	0x40058000

10004c20 <xosc_init>:
10004c20:	23aa      	movs	r3, #170	; 0xaa
10004c22:	4a06      	ldr	r2, [pc, #24]	; (10004c3c <xosc_init+0x1c>)
10004c24:	011b      	lsls	r3, r3, #4
10004c26:	6013      	str	r3, [r2, #0]
10004c28:	232f      	movs	r3, #47	; 0x2f
10004c2a:	4905      	ldr	r1, [pc, #20]	; (10004c40 <xosc_init+0x20>)
10004c2c:	60d3      	str	r3, [r2, #12]
10004c2e:	4b05      	ldr	r3, [pc, #20]	; (10004c44 <xosc_init+0x24>)
10004c30:	6019      	str	r1, [r3, #0]
10004c32:	6853      	ldr	r3, [r2, #4]
10004c34:	2b00      	cmp	r3, #0
10004c36:	dafc      	bge.n	10004c32 <xosc_init+0x12>
10004c38:	4770      	bx	lr
10004c3a:	46c0      	nop			; (mov r8, r8)
10004c3c:	40024000 	.word	0x40024000
10004c40:	00fab000 	.word	0x00fab000
10004c44:	40026000 	.word	0x40026000

10004c48 <_out_null>:
10004c48:	4770      	bx	lr
10004c4a:	46c0      	nop			; (mov r8, r8)

10004c4c <_out_rev>:
10004c4c:	b5f8      	push	{r3, r4, r5, r6, r7, lr}
10004c4e:	4657      	mov	r7, sl
10004c50:	4645      	mov	r5, r8
10004c52:	46de      	mov	lr, fp
10004c54:	464e      	mov	r6, r9
10004c56:	b5e0      	push	{r5, r6, r7, lr}
10004c58:	4698      	mov	r8, r3
10004c5a:	9b0a      	ldr	r3, [sp, #40]	; 0x28
10004c5c:	0006      	movs	r6, r0
10004c5e:	469a      	mov	sl, r3
10004c60:	9b0d      	ldr	r3, [sp, #52]	; 0x34
10004c62:	000f      	movs	r7, r1
10004c64:	4693      	mov	fp, r2
10004c66:	0015      	movs	r5, r2
10004c68:	079b      	lsls	r3, r3, #30
10004c6a:	d110      	bne.n	10004c8e <_out_rev+0x42>
10004c6c:	9b0b      	ldr	r3, [sp, #44]	; 0x2c
10004c6e:	9a0c      	ldr	r2, [sp, #48]	; 0x30
10004c70:	4293      	cmp	r3, r2
10004c72:	d20c      	bcs.n	10004c8e <_out_rev+0x42>
10004c74:	0013      	movs	r3, r2
10004c76:	465c      	mov	r4, fp
10004c78:	9a0b      	ldr	r2, [sp, #44]	; 0x2c
10004c7a:	1a9d      	subs	r5, r3, r2
10004c7c:	445d      	add	r5, fp
10004c7e:	0022      	movs	r2, r4
10004c80:	4643      	mov	r3, r8
10004c82:	3401      	adds	r4, #1
10004c84:	0039      	movs	r1, r7
10004c86:	2020      	movs	r0, #32
10004c88:	47b0      	blx	r6
10004c8a:	42a5      	cmp	r5, r4
10004c8c:	d1f7      	bne.n	10004c7e <_out_rev+0x32>
10004c8e:	9c0b      	ldr	r4, [sp, #44]	; 0x2c
10004c90:	1963      	adds	r3, r4, r5
10004c92:	2c00      	cmp	r4, #0
10004c94:	d009      	beq.n	10004caa <_out_rev+0x5e>
10004c96:	001d      	movs	r5, r3
10004c98:	4653      	mov	r3, sl
10004c9a:	1b2a      	subs	r2, r5, r4
10004c9c:	3c01      	subs	r4, #1
10004c9e:	5d18      	ldrb	r0, [r3, r4]
10004ca0:	0039      	movs	r1, r7
10004ca2:	4643      	mov	r3, r8
10004ca4:	47b0      	blx	r6
10004ca6:	2c00      	cmp	r4, #0
10004ca8:	d1f6      	bne.n	10004c98 <_out_rev+0x4c>
10004caa:	9b0d      	ldr	r3, [sp, #52]	; 0x34
10004cac:	079b      	lsls	r3, r3, #30
10004cae:	d50e      	bpl.n	10004cce <_out_rev+0x82>
10004cb0:	465b      	mov	r3, fp
10004cb2:	1aec      	subs	r4, r5, r3
10004cb4:	9b0c      	ldr	r3, [sp, #48]	; 0x30
10004cb6:	42a3      	cmp	r3, r4
10004cb8:	d909      	bls.n	10004cce <_out_rev+0x82>
10004cba:	4699      	mov	r9, r3
10004cbc:	002a      	movs	r2, r5
10004cbe:	4643      	mov	r3, r8
10004cc0:	0039      	movs	r1, r7
10004cc2:	2020      	movs	r0, #32
10004cc4:	3401      	adds	r4, #1
10004cc6:	47b0      	blx	r6
10004cc8:	3501      	adds	r5, #1
10004cca:	45a1      	cmp	r9, r4
10004ccc:	d8f6      	bhi.n	10004cbc <_out_rev+0x70>
10004cce:	0028      	movs	r0, r5
10004cd0:	bcf0      	pop	{r4, r5, r6, r7}
10004cd2:	46bb      	mov	fp, r7
10004cd4:	46b2      	mov	sl, r6
10004cd6:	46a9      	mov	r9, r5
10004cd8:	46a0      	mov	r8, r4
10004cda:	bdf8      	pop	{r3, r4, r5, r6, r7, pc}

10004cdc <_ntoa_format>:
10004cdc:	b5f0      	push	{r4, r5, r6, r7, lr}
10004cde:	464f      	mov	r7, r9
10004ce0:	4646      	mov	r6, r8
10004ce2:	46d6      	mov	lr, sl
10004ce4:	b5c0      	push	{r6, r7, lr}
10004ce6:	b084      	sub	sp, #16
10004ce8:	4698      	mov	r8, r3
10004cea:	ab0e      	add	r3, sp, #56	; 0x38
10004cec:	781b      	ldrb	r3, [r3, #0]
10004cee:	9f12      	ldr	r7, [sp, #72]	; 0x48
10004cf0:	4699      	mov	r9, r3
10004cf2:	4694      	mov	ip, r2
10004cf4:	9c0d      	ldr	r4, [sp, #52]	; 0x34
10004cf6:	9b10      	ldr	r3, [sp, #64]	; 0x40
10004cf8:	9e11      	ldr	r6, [sp, #68]	; 0x44
10004cfa:	07ba      	lsls	r2, r7, #30
10004cfc:	d425      	bmi.n	10004d4a <_ntoa_format+0x6e>
10004cfe:	2e00      	cmp	r6, #0
10004d00:	d161      	bne.n	10004dc6 <_ntoa_format+0xea>
10004d02:	429c      	cmp	r4, r3
10004d04:	d300      	bcc.n	10004d08 <_ntoa_format+0x2c>
10004d06:	e0c0      	b.n	10004e8a <_ntoa_format+0x1ae>
10004d08:	2201      	movs	r2, #1
10004d0a:	403a      	ands	r2, r7
10004d0c:	4692      	mov	sl, r2
10004d0e:	2c1f      	cmp	r4, #31
10004d10:	d900      	bls.n	10004d14 <_ntoa_format+0x38>
10004d12:	e0b9      	b.n	10004e88 <_ntoa_format+0x1ac>
10004d14:	9a0c      	ldr	r2, [sp, #48]	; 0x30
10004d16:	1e55      	subs	r5, r2, #1
10004d18:	2230      	movs	r2, #48	; 0x30
10004d1a:	e001      	b.n	10004d20 <_ntoa_format+0x44>
10004d1c:	2c20      	cmp	r4, #32
10004d1e:	d003      	beq.n	10004d28 <_ntoa_format+0x4c>
10004d20:	3401      	adds	r4, #1
10004d22:	552a      	strb	r2, [r5, r4]
10004d24:	42a3      	cmp	r3, r4
10004d26:	d8f9      	bhi.n	10004d1c <_ntoa_format+0x40>
10004d28:	4652      	mov	r2, sl
10004d2a:	2a00      	cmp	r2, #0
10004d2c:	d00d      	beq.n	10004d4a <_ntoa_format+0x6e>
10004d2e:	42a6      	cmp	r6, r4
10004d30:	d90b      	bls.n	10004d4a <_ntoa_format+0x6e>
10004d32:	9a0c      	ldr	r2, [sp, #48]	; 0x30
10004d34:	1e55      	subs	r5, r2, #1
10004d36:	2230      	movs	r2, #48	; 0x30
10004d38:	2c20      	cmp	r4, #32
10004d3a:	d102      	bne.n	10004d42 <_ntoa_format+0x66>
10004d3c:	e055      	b.n	10004dea <_ntoa_format+0x10e>
10004d3e:	2c20      	cmp	r4, #32
10004d40:	d053      	beq.n	10004dea <_ntoa_format+0x10e>
10004d42:	3401      	adds	r4, #1
10004d44:	552a      	strb	r2, [r5, r4]
10004d46:	42b4      	cmp	r4, r6
10004d48:	d1f9      	bne.n	10004d3e <_ntoa_format+0x62>
10004d4a:	06fa      	lsls	r2, r7, #27
10004d4c:	d52d      	bpl.n	10004daa <_ntoa_format+0xce>
10004d4e:	057a      	lsls	r2, r7, #21
10004d50:	d454      	bmi.n	10004dfc <_ntoa_format+0x120>
10004d52:	2c00      	cmp	r4, #0
10004d54:	d14e      	bne.n	10004df4 <_ntoa_format+0x118>
10004d56:	9b0f      	ldr	r3, [sp, #60]	; 0x3c
10004d58:	2b10      	cmp	r3, #16
10004d5a:	d100      	bne.n	10004d5e <_ntoa_format+0x82>
10004d5c:	e088      	b.n	10004e70 <_ntoa_format+0x194>
10004d5e:	9b0f      	ldr	r3, [sp, #60]	; 0x3c
10004d60:	2b02      	cmp	r3, #2
10004d62:	d019      	beq.n	10004d98 <_ntoa_format+0xbc>
10004d64:	2330      	movs	r3, #48	; 0x30
10004d66:	9a0c      	ldr	r2, [sp, #48]	; 0x30
10004d68:	2401      	movs	r4, #1
10004d6a:	7013      	strb	r3, [r2, #0]
10004d6c:	464b      	mov	r3, r9
10004d6e:	2b00      	cmp	r3, #0
10004d70:	d020      	beq.n	10004db4 <_ntoa_format+0xd8>
10004d72:	232d      	movs	r3, #45	; 0x2d
10004d74:	9a0c      	ldr	r2, [sp, #48]	; 0x30
10004d76:	5513      	strb	r3, [r2, r4]
10004d78:	3401      	adds	r4, #1
10004d7a:	9b0c      	ldr	r3, [sp, #48]	; 0x30
10004d7c:	4662      	mov	r2, ip
10004d7e:	9300      	str	r3, [sp, #0]
10004d80:	9703      	str	r7, [sp, #12]
10004d82:	4643      	mov	r3, r8
10004d84:	9602      	str	r6, [sp, #8]
10004d86:	9401      	str	r4, [sp, #4]
10004d88:	f7ff ff60 	bl	10004c4c <_out_rev>
10004d8c:	b004      	add	sp, #16
10004d8e:	bce0      	pop	{r5, r6, r7}
10004d90:	46ba      	mov	sl, r7
10004d92:	46b1      	mov	r9, r6
10004d94:	46a8      	mov	r8, r5
10004d96:	bdf0      	pop	{r4, r5, r6, r7, pc}
10004d98:	2401      	movs	r4, #1
10004d9a:	9a0c      	ldr	r2, [sp, #48]	; 0x30
10004d9c:	3360      	adds	r3, #96	; 0x60
10004d9e:	7013      	strb	r3, [r2, #0]
10004da0:	2230      	movs	r2, #48	; 0x30
10004da2:	9b0c      	ldr	r3, [sp, #48]	; 0x30
10004da4:	191b      	adds	r3, r3, r4
10004da6:	701a      	strb	r2, [r3, #0]
10004da8:	3401      	adds	r4, #1
10004daa:	2c20      	cmp	r4, #32
10004dac:	d0e5      	beq.n	10004d7a <_ntoa_format+0x9e>
10004dae:	464b      	mov	r3, r9
10004db0:	2b00      	cmp	r3, #0
10004db2:	d1de      	bne.n	10004d72 <_ntoa_format+0x96>
10004db4:	077b      	lsls	r3, r7, #29
10004db6:	d430      	bmi.n	10004e1a <_ntoa_format+0x13e>
10004db8:	073b      	lsls	r3, r7, #28
10004dba:	d5de      	bpl.n	10004d7a <_ntoa_format+0x9e>
10004dbc:	2320      	movs	r3, #32
10004dbe:	9a0c      	ldr	r2, [sp, #48]	; 0x30
10004dc0:	5513      	strb	r3, [r2, r4]
10004dc2:	3401      	adds	r4, #1
10004dc4:	e7d9      	b.n	10004d7a <_ntoa_format+0x9e>
10004dc6:	2201      	movs	r2, #1
10004dc8:	0015      	movs	r5, r2
10004dca:	403d      	ands	r5, r7
10004dcc:	46aa      	mov	sl, r5
10004dce:	423a      	tst	r2, r7
10004dd0:	d01c      	beq.n	10004e0c <_ntoa_format+0x130>
10004dd2:	464a      	mov	r2, r9
10004dd4:	2a00      	cmp	r2, #0
10004dd6:	d12b      	bne.n	10004e30 <_ntoa_format+0x154>
10004dd8:	320c      	adds	r2, #12
10004dda:	423a      	tst	r2, r7
10004ddc:	d128      	bne.n	10004e30 <_ntoa_format+0x154>
10004dde:	429c      	cmp	r4, r3
10004de0:	d2a5      	bcs.n	10004d2e <_ntoa_format+0x52>
10004de2:	2c1f      	cmp	r4, #31
10004de4:	d996      	bls.n	10004d14 <_ntoa_format+0x38>
10004de6:	2e20      	cmp	r6, #32
10004de8:	d915      	bls.n	10004e16 <_ntoa_format+0x13a>
10004dea:	2420      	movs	r4, #32
10004dec:	06fa      	lsls	r2, r7, #27
10004dee:	d5c4      	bpl.n	10004d7a <_ntoa_format+0x9e>
10004df0:	057a      	lsls	r2, r7, #21
10004df2:	d403      	bmi.n	10004dfc <_ntoa_format+0x120>
10004df4:	42a3      	cmp	r3, r4
10004df6:	d01d      	beq.n	10004e34 <_ntoa_format+0x158>
10004df8:	42b4      	cmp	r4, r6
10004dfa:	d01b      	beq.n	10004e34 <_ntoa_format+0x158>
10004dfc:	9b0f      	ldr	r3, [sp, #60]	; 0x3c
10004dfe:	2b10      	cmp	r3, #16
10004e00:	d023      	beq.n	10004e4a <_ntoa_format+0x16e>
10004e02:	2b02      	cmp	r3, #2
10004e04:	d00e      	beq.n	10004e24 <_ntoa_format+0x148>
10004e06:	2c20      	cmp	r4, #32
10004e08:	d0b7      	beq.n	10004d7a <_ntoa_format+0x9e>
10004e0a:	e7c9      	b.n	10004da0 <_ntoa_format+0xc4>
10004e0c:	429c      	cmp	r4, r3
10004e0e:	d29c      	bcs.n	10004d4a <_ntoa_format+0x6e>
10004e10:	2c1f      	cmp	r4, #31
10004e12:	d800      	bhi.n	10004e16 <_ntoa_format+0x13a>
10004e14:	e77e      	b.n	10004d14 <_ntoa_format+0x38>
10004e16:	2420      	movs	r4, #32
10004e18:	e797      	b.n	10004d4a <_ntoa_format+0x6e>
10004e1a:	232b      	movs	r3, #43	; 0x2b
10004e1c:	9a0c      	ldr	r2, [sp, #48]	; 0x30
10004e1e:	5513      	strb	r3, [r2, r4]
10004e20:	3401      	adds	r4, #1
10004e22:	e7aa      	b.n	10004d7a <_ntoa_format+0x9e>
10004e24:	2c20      	cmp	r4, #32
10004e26:	d0a8      	beq.n	10004d7a <_ntoa_format+0x9e>
10004e28:	9b0c      	ldr	r3, [sp, #48]	; 0x30
10004e2a:	191b      	adds	r3, r3, r4
10004e2c:	3401      	adds	r4, #1
10004e2e:	e038      	b.n	10004ea2 <_ntoa_format+0x1c6>
10004e30:	3e01      	subs	r6, #1
10004e32:	e7d4      	b.n	10004dde <_ntoa_format+0x102>
10004e34:	1e63      	subs	r3, r4, #1
10004e36:	2c01      	cmp	r4, #1
10004e38:	d100      	bne.n	10004e3c <_ntoa_format+0x160>
10004e3a:	e78c      	b.n	10004d56 <_ntoa_format+0x7a>
10004e3c:	9a0f      	ldr	r2, [sp, #60]	; 0x3c
10004e3e:	2a10      	cmp	r2, #16
10004e40:	d025      	beq.n	10004e8e <_ntoa_format+0x1b2>
10004e42:	2a02      	cmp	r2, #2
10004e44:	d02a      	beq.n	10004e9c <_ntoa_format+0x1c0>
10004e46:	001c      	movs	r4, r3
10004e48:	e7aa      	b.n	10004da0 <_ntoa_format+0xc4>
10004e4a:	06bb      	lsls	r3, r7, #26
10004e4c:	d407      	bmi.n	10004e5e <_ntoa_format+0x182>
10004e4e:	2c20      	cmp	r4, #32
10004e50:	d093      	beq.n	10004d7a <_ntoa_format+0x9e>
10004e52:	9b0c      	ldr	r3, [sp, #48]	; 0x30
10004e54:	191a      	adds	r2, r3, r4
10004e56:	3401      	adds	r4, #1
10004e58:	2378      	movs	r3, #120	; 0x78
10004e5a:	7013      	strb	r3, [r2, #0]
10004e5c:	e7d3      	b.n	10004e06 <_ntoa_format+0x12a>
10004e5e:	2c20      	cmp	r4, #32
10004e60:	d100      	bne.n	10004e64 <_ntoa_format+0x188>
10004e62:	e78a      	b.n	10004d7a <_ntoa_format+0x9e>
10004e64:	2258      	movs	r2, #88	; 0x58
10004e66:	9b0c      	ldr	r3, [sp, #48]	; 0x30
10004e68:	191b      	adds	r3, r3, r4
10004e6a:	701a      	strb	r2, [r3, #0]
10004e6c:	3401      	adds	r4, #1
10004e6e:	e7ca      	b.n	10004e06 <_ntoa_format+0x12a>
10004e70:	06bb      	lsls	r3, r7, #26
10004e72:	d404      	bmi.n	10004e7e <_ntoa_format+0x1a2>
10004e74:	2378      	movs	r3, #120	; 0x78
10004e76:	9a0c      	ldr	r2, [sp, #48]	; 0x30
10004e78:	2401      	movs	r4, #1
10004e7a:	7013      	strb	r3, [r2, #0]
10004e7c:	e790      	b.n	10004da0 <_ntoa_format+0xc4>
10004e7e:	2358      	movs	r3, #88	; 0x58
10004e80:	9a0c      	ldr	r2, [sp, #48]	; 0x30
10004e82:	2401      	movs	r4, #1
10004e84:	7013      	strb	r3, [r2, #0]
10004e86:	e78b      	b.n	10004da0 <_ntoa_format+0xc4>
10004e88:	2420      	movs	r4, #32
10004e8a:	2600      	movs	r6, #0
10004e8c:	e75d      	b.n	10004d4a <_ntoa_format+0x6e>
10004e8e:	3c02      	subs	r4, #2
10004e90:	06ba      	lsls	r2, r7, #26
10004e92:	d4e7      	bmi.n	10004e64 <_ntoa_format+0x188>
10004e94:	9a0c      	ldr	r2, [sp, #48]	; 0x30
10004e96:	1912      	adds	r2, r2, r4
10004e98:	001c      	movs	r4, r3
10004e9a:	e7dd      	b.n	10004e58 <_ntoa_format+0x17c>
10004e9c:	9a0c      	ldr	r2, [sp, #48]	; 0x30
10004e9e:	4692      	mov	sl, r2
10004ea0:	4453      	add	r3, sl
10004ea2:	2262      	movs	r2, #98	; 0x62
10004ea4:	701a      	strb	r2, [r3, #0]
10004ea6:	e7ae      	b.n	10004e06 <_ntoa_format+0x12a>

10004ea8 <_out_char>:
10004ea8:	b510      	push	{r4, lr}
10004eaa:	2800      	cmp	r0, #0
10004eac:	d100      	bne.n	10004eb0 <_out_char+0x8>
10004eae:	bd10      	pop	{r4, pc}
10004eb0:	f001 fec8 	bl	10006c44 <__wrap_putchar>
10004eb4:	e7fb      	b.n	10004eae <_out_char+0x6>
10004eb6:	46c0      	nop			; (mov r8, r8)

10004eb8 <_out_fct>:
10004eb8:	000b      	movs	r3, r1
10004eba:	b510      	push	{r4, lr}
10004ebc:	2800      	cmp	r0, #0
10004ebe:	d002      	beq.n	10004ec6 <_out_fct+0xe>
10004ec0:	6849      	ldr	r1, [r1, #4]
10004ec2:	681b      	ldr	r3, [r3, #0]
10004ec4:	4798      	blx	r3
10004ec6:	bd10      	pop	{r4, pc}

10004ec8 <_etoa>:
10004ec8:	b5f0      	push	{r4, r5, r6, r7, lr}
10004eca:	46de      	mov	lr, fp
10004ecc:	4657      	mov	r7, sl
10004ece:	464e      	mov	r6, r9
10004ed0:	4645      	mov	r5, r8
10004ed2:	b5e0      	push	{r5, r6, r7, lr}
10004ed4:	b09b      	sub	sp, #108	; 0x6c
10004ed6:	469b      	mov	fp, r3
10004ed8:	9b24      	ldr	r3, [sp, #144]	; 0x90
10004eda:	4689      	mov	r9, r1
10004edc:	4698      	mov	r8, r3
10004ede:	9b25      	ldr	r3, [sp, #148]	; 0x94
10004ee0:	900b      	str	r0, [sp, #44]	; 0x2c
10004ee2:	920c      	str	r2, [sp, #48]	; 0x30
10004ee4:	4640      	mov	r0, r8
10004ee6:	4642      	mov	r2, r8
10004ee8:	0019      	movs	r1, r3
10004eea:	469a      	mov	sl, r3
10004eec:	f001 fc77 	bl	100067de <__wrap___aeabi_dcmpun>
10004ef0:	2800      	cmp	r0, #0
10004ef2:	d000      	beq.n	10004ef6 <_etoa+0x2e>
10004ef4:	e0d8      	b.n	100050a8 <_etoa+0x1e0>
10004ef6:	2201      	movs	r2, #1
10004ef8:	4640      	mov	r0, r8
10004efa:	4651      	mov	r1, sl
10004efc:	4b77      	ldr	r3, [pc, #476]	; (100050dc <_etoa+0x214>)
10004efe:	4252      	negs	r2, r2
10004f00:	f001 fc68 	bl	100067d4 <__wrap___aeabi_dcmpgt>
10004f04:	2800      	cmp	r0, #0
10004f06:	d000      	beq.n	10004f0a <_etoa+0x42>
10004f08:	e0ce      	b.n	100050a8 <_etoa+0x1e0>
10004f0a:	2201      	movs	r2, #1
10004f0c:	4640      	mov	r0, r8
10004f0e:	4651      	mov	r1, sl
10004f10:	4b73      	ldr	r3, [pc, #460]	; (100050e0 <_etoa+0x218>)
10004f12:	4252      	negs	r2, r2
10004f14:	f001 fc48 	bl	100067a8 <__wrap___aeabi_dcmplt>
10004f18:	2800      	cmp	r0, #0
10004f1a:	d000      	beq.n	10004f1e <_etoa+0x56>
10004f1c:	e0c4      	b.n	100050a8 <_etoa+0x1e0>
10004f1e:	2200      	movs	r2, #0
10004f20:	2300      	movs	r3, #0
10004f22:	4640      	mov	r0, r8
10004f24:	4651      	mov	r1, sl
10004f26:	f001 fc3f 	bl	100067a8 <__wrap___aeabi_dcmplt>
10004f2a:	2800      	cmp	r0, #0
10004f2c:	d000      	beq.n	10004f30 <_etoa+0x68>
10004f2e:	e1b9      	b.n	100052a4 <_etoa+0x3dc>
10004f30:	4642      	mov	r2, r8
10004f32:	4653      	mov	r3, sl
10004f34:	920a      	str	r2, [sp, #40]	; 0x28
10004f36:	9309      	str	r3, [sp, #36]	; 0x24
10004f38:	2380      	movs	r3, #128	; 0x80
10004f3a:	9a28      	ldr	r2, [sp, #160]	; 0xa0
10004f3c:	00db      	lsls	r3, r3, #3
10004f3e:	401a      	ands	r2, r3
10004f40:	920e      	str	r2, [sp, #56]	; 0x38
10004f42:	9a28      	ldr	r2, [sp, #160]	; 0xa0
10004f44:	421a      	tst	r2, r3
10004f46:	d101      	bne.n	10004f4c <_etoa+0x84>
10004f48:	2306      	movs	r3, #6
10004f4a:	9326      	str	r3, [sp, #152]	; 0x98
10004f4c:	9a0a      	ldr	r2, [sp, #40]	; 0x28
10004f4e:	9b09      	ldr	r3, [sp, #36]	; 0x24
10004f50:	0016      	movs	r6, r2
10004f52:	4313      	orrs	r3, r2
10004f54:	d000      	beq.n	10004f58 <_etoa+0x90>
10004f56:	e0c7      	b.n	100050e8 <_etoa+0x220>
10004f58:	9b28      	ldr	r3, [sp, #160]	; 0xa0
10004f5a:	2500      	movs	r5, #0
10004f5c:	2600      	movs	r6, #0
10004f5e:	051b      	lsls	r3, r3, #20
10004f60:	d400      	bmi.n	10004f64 <_etoa+0x9c>
10004f62:	e19b      	b.n	1000529c <_etoa+0x3d4>
10004f64:	2300      	movs	r3, #0
10004f66:	930d      	str	r3, [sp, #52]	; 0x34
10004f68:	9a26      	ldr	r2, [sp, #152]	; 0x98
10004f6a:	9b0d      	ldr	r3, [sp, #52]	; 0x34
10004f6c:	429a      	cmp	r2, r3
10004f6e:	dc00      	bgt.n	10004f72 <_etoa+0xaa>
10004f70:	e19f      	b.n	100052b2 <_etoa+0x3ea>
10004f72:	1ad3      	subs	r3, r2, r3
10004f74:	3b01      	subs	r3, #1
10004f76:	9326      	str	r3, [sp, #152]	; 0x98
10004f78:	2380      	movs	r3, #128	; 0x80
10004f7a:	9a28      	ldr	r2, [sp, #160]	; 0xa0
10004f7c:	00db      	lsls	r3, r3, #3
10004f7e:	431a      	orrs	r2, r3
10004f80:	2300      	movs	r3, #0
10004f82:	2700      	movs	r7, #0
10004f84:	9228      	str	r2, [sp, #160]	; 0xa0
10004f86:	930d      	str	r3, [sp, #52]	; 0x34
10004f88:	9b27      	ldr	r3, [sp, #156]	; 0x9c
10004f8a:	2400      	movs	r4, #0
10004f8c:	42bb      	cmp	r3, r7
10004f8e:	d900      	bls.n	10004f92 <_etoa+0xca>
10004f90:	1bdc      	subs	r4, r3, r7
10004f92:	2302      	movs	r3, #2
10004f94:	9a28      	ldr	r2, [sp, #160]	; 0xa0
10004f96:	401a      	ands	r2, r3
10004f98:	920e      	str	r2, [sp, #56]	; 0x38
10004f9a:	9a28      	ldr	r2, [sp, #160]	; 0xa0
10004f9c:	4213      	tst	r3, r2
10004f9e:	d003      	beq.n	10004fa8 <_etoa+0xe0>
10004fa0:	427b      	negs	r3, r7
10004fa2:	417b      	adcs	r3, r7
10004fa4:	425b      	negs	r3, r3
10004fa6:	401c      	ands	r4, r3
10004fa8:	9b0d      	ldr	r3, [sp, #52]	; 0x34
10004faa:	2b00      	cmp	r3, #0
10004fac:	d007      	beq.n	10004fbe <_etoa+0xf6>
10004fae:	980a      	ldr	r0, [sp, #40]	; 0x28
10004fb0:	9909      	ldr	r1, [sp, #36]	; 0x24
10004fb2:	002a      	movs	r2, r5
10004fb4:	0033      	movs	r3, r6
10004fb6:	f001 fb9e 	bl	100066f6 <__wrap___aeabi_ddiv>
10004fba:	900a      	str	r0, [sp, #40]	; 0x28
10004fbc:	9109      	str	r1, [sp, #36]	; 0x24
10004fbe:	2200      	movs	r2, #0
10004fc0:	2300      	movs	r3, #0
10004fc2:	4640      	mov	r0, r8
10004fc4:	4651      	mov	r1, sl
10004fc6:	f001 fbef 	bl	100067a8 <__wrap___aeabi_dcmplt>
10004fca:	2800      	cmp	r0, #0
10004fcc:	d005      	beq.n	10004fda <_etoa+0x112>
10004fce:	2080      	movs	r0, #128	; 0x80
10004fd0:	0600      	lsls	r0, r0, #24
10004fd2:	4684      	mov	ip, r0
10004fd4:	9909      	ldr	r1, [sp, #36]	; 0x24
10004fd6:	4461      	add	r1, ip
10004fd8:	9109      	str	r1, [sp, #36]	; 0x24
10004fda:	9a28      	ldr	r2, [sp, #160]	; 0xa0
10004fdc:	4b41      	ldr	r3, [pc, #260]	; (100050e4 <_etoa+0x21c>)
10004fde:	9d0b      	ldr	r5, [sp, #44]	; 0x2c
10004fe0:	4013      	ands	r3, r2
10004fe2:	9304      	str	r3, [sp, #16]
10004fe4:	9b26      	ldr	r3, [sp, #152]	; 0x98
10004fe6:	9a0a      	ldr	r2, [sp, #40]	; 0x28
10004fe8:	9302      	str	r3, [sp, #8]
10004fea:	9b09      	ldr	r3, [sp, #36]	; 0x24
10004fec:	9403      	str	r4, [sp, #12]
10004fee:	9200      	str	r2, [sp, #0]
10004ff0:	9301      	str	r3, [sp, #4]
10004ff2:	4649      	mov	r1, r9
10004ff4:	465b      	mov	r3, fp
10004ff6:	0028      	movs	r0, r5
10004ff8:	9a0c      	ldr	r2, [sp, #48]	; 0x30
10004ffa:	f000 f98b 	bl	10005314 <_ftoa>
10004ffe:	0004      	movs	r4, r0
10005000:	2f00      	cmp	r7, #0
10005002:	d062      	beq.n	100050ca <_etoa+0x202>
10005004:	9b28      	ldr	r3, [sp, #160]	; 0xa0
10005006:	0022      	movs	r2, r4
10005008:	0698      	lsls	r0, r3, #26
1000500a:	231f      	movs	r3, #31
1000500c:	17c0      	asrs	r0, r0, #31
1000500e:	4398      	bics	r0, r3
10005010:	1c63      	adds	r3, r4, #1
10005012:	4698      	mov	r8, r3
10005014:	4649      	mov	r1, r9
10005016:	465b      	mov	r3, fp
10005018:	3065      	adds	r0, #101	; 0x65
1000501a:	47a8      	blx	r5
1000501c:	9a0d      	ldr	r2, [sp, #52]	; 0x34
1000501e:	2500      	movs	r5, #0
10005020:	17d3      	asrs	r3, r2, #31
10005022:	18d4      	adds	r4, r2, r3
10005024:	405c      	eors	r4, r3
10005026:	0fd3      	lsrs	r3, r2, #31
10005028:	469a      	mov	sl, r3
1000502a:	3f01      	subs	r7, #1
1000502c:	e001      	b.n	10005032 <_etoa+0x16a>
1000502e:	2d20      	cmp	r5, #32
10005030:	d013      	beq.n	1000505a <_etoa+0x192>
10005032:	aa0a      	add	r2, sp, #40	; 0x28
10005034:	4694      	mov	ip, r2
10005036:	231f      	movs	r3, #31
10005038:	0020      	movs	r0, r4
1000503a:	4463      	add	r3, ip
1000503c:	210a      	movs	r1, #10
1000503e:	3501      	adds	r5, #1
10005040:	195e      	adds	r6, r3, r5
10005042:	f001 f90b 	bl	1000625c <__wrap___aeabi_uidiv>
10005046:	3130      	adds	r1, #48	; 0x30
10005048:	7031      	strb	r1, [r6, #0]
1000504a:	0020      	movs	r0, r4
1000504c:	210a      	movs	r1, #10
1000504e:	f001 f905 	bl	1000625c <__wrap___aeabi_uidiv>
10005052:	0026      	movs	r6, r4
10005054:	0004      	movs	r4, r0
10005056:	2e09      	cmp	r6, #9
10005058:	d8e9      	bhi.n	1000502e <_etoa+0x166>
1000505a:	2305      	movs	r3, #5
1000505c:	9306      	str	r3, [sp, #24]
1000505e:	2300      	movs	r3, #0
10005060:	9304      	str	r3, [sp, #16]
10005062:	330a      	adds	r3, #10
10005064:	9303      	str	r3, [sp, #12]
10005066:	4653      	mov	r3, sl
10005068:	9705      	str	r7, [sp, #20]
1000506a:	9f0b      	ldr	r7, [sp, #44]	; 0x2c
1000506c:	9302      	str	r3, [sp, #8]
1000506e:	ab12      	add	r3, sp, #72	; 0x48
10005070:	9300      	str	r3, [sp, #0]
10005072:	4642      	mov	r2, r8
10005074:	465b      	mov	r3, fp
10005076:	4649      	mov	r1, r9
10005078:	0038      	movs	r0, r7
1000507a:	9501      	str	r5, [sp, #4]
1000507c:	f7ff fe2e 	bl	10004cdc <_ntoa_format>
10005080:	9b0e      	ldr	r3, [sp, #56]	; 0x38
10005082:	0004      	movs	r4, r0
10005084:	2b00      	cmp	r3, #0
10005086:	d020      	beq.n	100050ca <_etoa+0x202>
10005088:	9b0c      	ldr	r3, [sp, #48]	; 0x30
1000508a:	1ac5      	subs	r5, r0, r3
1000508c:	9b27      	ldr	r3, [sp, #156]	; 0x9c
1000508e:	42ab      	cmp	r3, r5
10005090:	d91b      	bls.n	100050ca <_etoa+0x202>
10005092:	001e      	movs	r6, r3
10005094:	0022      	movs	r2, r4
10005096:	465b      	mov	r3, fp
10005098:	4649      	mov	r1, r9
1000509a:	2020      	movs	r0, #32
1000509c:	3501      	adds	r5, #1
1000509e:	47b8      	blx	r7
100050a0:	3401      	adds	r4, #1
100050a2:	42ae      	cmp	r6, r5
100050a4:	d8f6      	bhi.n	10005094 <_etoa+0x1cc>
100050a6:	e010      	b.n	100050ca <_etoa+0x202>
100050a8:	9b28      	ldr	r3, [sp, #160]	; 0xa0
100050aa:	4642      	mov	r2, r8
100050ac:	9304      	str	r3, [sp, #16]
100050ae:	9b27      	ldr	r3, [sp, #156]	; 0x9c
100050b0:	4649      	mov	r1, r9
100050b2:	9303      	str	r3, [sp, #12]
100050b4:	9b26      	ldr	r3, [sp, #152]	; 0x98
100050b6:	980b      	ldr	r0, [sp, #44]	; 0x2c
100050b8:	9302      	str	r3, [sp, #8]
100050ba:	4653      	mov	r3, sl
100050bc:	9200      	str	r2, [sp, #0]
100050be:	9301      	str	r3, [sp, #4]
100050c0:	465b      	mov	r3, fp
100050c2:	9a0c      	ldr	r2, [sp, #48]	; 0x30
100050c4:	f000 f926 	bl	10005314 <_ftoa>
100050c8:	0004      	movs	r4, r0
100050ca:	0020      	movs	r0, r4
100050cc:	b01b      	add	sp, #108	; 0x6c
100050ce:	bcf0      	pop	{r4, r5, r6, r7}
100050d0:	46bb      	mov	fp, r7
100050d2:	46b2      	mov	sl, r6
100050d4:	46a9      	mov	r9, r5
100050d6:	46a0      	mov	r8, r4
100050d8:	bdf0      	pop	{r4, r5, r6, r7, pc}
100050da:	46c0      	nop			; (mov r8, r8)
100050dc:	7fefffff 	.word	0x7fefffff
100050e0:	ffefffff 	.word	0xffefffff
100050e4:	fffff7ff 	.word	0xfffff7ff
100050e8:	4b73      	ldr	r3, [pc, #460]	; (100052b8 <_etoa+0x3f0>)
100050ea:	9f09      	ldr	r7, [sp, #36]	; 0x24
100050ec:	469c      	mov	ip, r3
100050ee:	0078      	lsls	r0, r7, #1
100050f0:	0d40      	lsrs	r0, r0, #21
100050f2:	4460      	add	r0, ip
100050f4:	f001 fb86 	bl	10006804 <__wrap___aeabi_i2d>
100050f8:	4a70      	ldr	r2, [pc, #448]	; (100052bc <_etoa+0x3f4>)
100050fa:	4b71      	ldr	r3, [pc, #452]	; (100052c0 <_etoa+0x3f8>)
100050fc:	f001 fb15 	bl	1000672a <__wrap___aeabi_dmul>
10005100:	4a70      	ldr	r2, [pc, #448]	; (100052c4 <_etoa+0x3fc>)
10005102:	4b71      	ldr	r3, [pc, #452]	; (100052c8 <_etoa+0x400>)
10005104:	f001 faf2 	bl	100066ec <__wrap___aeabi_dadd>
10005108:	033b      	lsls	r3, r7, #12
1000510a:	4a70      	ldr	r2, [pc, #448]	; (100052cc <_etoa+0x404>)
1000510c:	0b1b      	lsrs	r3, r3, #12
1000510e:	431a      	orrs	r2, r3
10005110:	0004      	movs	r4, r0
10005112:	000d      	movs	r5, r1
10005114:	0030      	movs	r0, r6
10005116:	0011      	movs	r1, r2
10005118:	4b6d      	ldr	r3, [pc, #436]	; (100052d0 <_etoa+0x408>)
1000511a:	2200      	movs	r2, #0
1000511c:	f001 fae1 	bl	100066e2 <__wrap___aeabi_dsub>
10005120:	4a6c      	ldr	r2, [pc, #432]	; (100052d4 <_etoa+0x40c>)
10005122:	4b6d      	ldr	r3, [pc, #436]	; (100052d8 <_etoa+0x410>)
10005124:	f001 fb01 	bl	1000672a <__wrap___aeabi_dmul>
10005128:	0002      	movs	r2, r0
1000512a:	000b      	movs	r3, r1
1000512c:	0020      	movs	r0, r4
1000512e:	0029      	movs	r1, r5
10005130:	f001 fadc 	bl	100066ec <__wrap___aeabi_dadd>
10005134:	f001 fb7e 	bl	10006834 <__wrap___aeabi_d2iz>
10005138:	900d      	str	r0, [sp, #52]	; 0x34
1000513a:	f001 fb63 	bl	10006804 <__wrap___aeabi_i2d>
1000513e:	4a67      	ldr	r2, [pc, #412]	; (100052dc <_etoa+0x414>)
10005140:	4b67      	ldr	r3, [pc, #412]	; (100052e0 <_etoa+0x418>)
10005142:	0004      	movs	r4, r0
10005144:	000d      	movs	r5, r1
10005146:	f001 faf0 	bl	1000672a <__wrap___aeabi_dmul>
1000514a:	2200      	movs	r2, #0
1000514c:	4b65      	ldr	r3, [pc, #404]	; (100052e4 <_etoa+0x41c>)
1000514e:	f001 facd 	bl	100066ec <__wrap___aeabi_dadd>
10005152:	f001 fb6f 	bl	10006834 <__wrap___aeabi_d2iz>
10005156:	4a64      	ldr	r2, [pc, #400]	; (100052e8 <_etoa+0x420>)
10005158:	0006      	movs	r6, r0
1000515a:	4b64      	ldr	r3, [pc, #400]	; (100052ec <_etoa+0x424>)
1000515c:	0020      	movs	r0, r4
1000515e:	0029      	movs	r1, r5
10005160:	f001 fae3 	bl	1000672a <__wrap___aeabi_dmul>
10005164:	0004      	movs	r4, r0
10005166:	0030      	movs	r0, r6
10005168:	000d      	movs	r5, r1
1000516a:	960f      	str	r6, [sp, #60]	; 0x3c
1000516c:	f001 fb4a 	bl	10006804 <__wrap___aeabi_i2d>
10005170:	4a5f      	ldr	r2, [pc, #380]	; (100052f0 <_etoa+0x428>)
10005172:	4b60      	ldr	r3, [pc, #384]	; (100052f4 <_etoa+0x42c>)
10005174:	f001 fad9 	bl	1000672a <__wrap___aeabi_dmul>
10005178:	0002      	movs	r2, r0
1000517a:	000b      	movs	r3, r1
1000517c:	0020      	movs	r0, r4
1000517e:	0029      	movs	r1, r5
10005180:	f001 faaf 	bl	100066e2 <__wrap___aeabi_dsub>
10005184:	0002      	movs	r2, r0
10005186:	000b      	movs	r3, r1
10005188:	0006      	movs	r6, r0
1000518a:	000f      	movs	r7, r1
1000518c:	f001 facd 	bl	1000672a <__wrap___aeabi_dmul>
10005190:	0032      	movs	r2, r6
10005192:	0004      	movs	r4, r0
10005194:	000d      	movs	r5, r1
10005196:	003b      	movs	r3, r7
10005198:	0030      	movs	r0, r6
1000519a:	0039      	movs	r1, r7
1000519c:	f001 faa6 	bl	100066ec <__wrap___aeabi_dadd>
100051a0:	2200      	movs	r2, #0
100051a2:	9010      	str	r0, [sp, #64]	; 0x40
100051a4:	9111      	str	r1, [sp, #68]	; 0x44
100051a6:	4b54      	ldr	r3, [pc, #336]	; (100052f8 <_etoa+0x430>)
100051a8:	0020      	movs	r0, r4
100051aa:	0029      	movs	r1, r5
100051ac:	f001 faa3 	bl	100066f6 <__wrap___aeabi_ddiv>
100051b0:	2200      	movs	r2, #0
100051b2:	4b52      	ldr	r3, [pc, #328]	; (100052fc <_etoa+0x434>)
100051b4:	f001 fa9a 	bl	100066ec <__wrap___aeabi_dadd>
100051b8:	0002      	movs	r2, r0
100051ba:	000b      	movs	r3, r1
100051bc:	0020      	movs	r0, r4
100051be:	0029      	movs	r1, r5
100051c0:	f001 fa99 	bl	100066f6 <__wrap___aeabi_ddiv>
100051c4:	2200      	movs	r2, #0
100051c6:	4b4e      	ldr	r3, [pc, #312]	; (10005300 <_etoa+0x438>)
100051c8:	f001 fa90 	bl	100066ec <__wrap___aeabi_dadd>
100051cc:	0002      	movs	r2, r0
100051ce:	000b      	movs	r3, r1
100051d0:	0020      	movs	r0, r4
100051d2:	0029      	movs	r1, r5
100051d4:	f001 fa8f 	bl	100066f6 <__wrap___aeabi_ddiv>
100051d8:	000d      	movs	r5, r1
100051da:	2180      	movs	r1, #128	; 0x80
100051dc:	0004      	movs	r4, r0
100051de:	0032      	movs	r2, r6
100051e0:	003b      	movs	r3, r7
100051e2:	2000      	movs	r0, #0
100051e4:	05c9      	lsls	r1, r1, #23
100051e6:	f001 fa7c 	bl	100066e2 <__wrap___aeabi_dsub>
100051ea:	0002      	movs	r2, r0
100051ec:	000b      	movs	r3, r1
100051ee:	0020      	movs	r0, r4
100051f0:	0029      	movs	r1, r5
100051f2:	f001 fa7b 	bl	100066ec <__wrap___aeabi_dadd>
100051f6:	0002      	movs	r2, r0
100051f8:	000b      	movs	r3, r1
100051fa:	9810      	ldr	r0, [sp, #64]	; 0x40
100051fc:	9911      	ldr	r1, [sp, #68]	; 0x44
100051fe:	f001 fa7a 	bl	100066f6 <__wrap___aeabi_ddiv>
10005202:	2200      	movs	r2, #0
10005204:	4b31      	ldr	r3, [pc, #196]	; (100052cc <_etoa+0x404>)
10005206:	f001 fa71 	bl	100066ec <__wrap___aeabi_dadd>
1000520a:	4b3e      	ldr	r3, [pc, #248]	; (10005304 <_etoa+0x43c>)
1000520c:	9c0f      	ldr	r4, [sp, #60]	; 0x3c
1000520e:	469c      	mov	ip, r3
10005210:	4464      	add	r4, ip
10005212:	2200      	movs	r2, #0
10005214:	0523      	lsls	r3, r4, #20
10005216:	f001 fa88 	bl	1000672a <__wrap___aeabi_dmul>
1000521a:	0005      	movs	r5, r0
1000521c:	000e      	movs	r6, r1
1000521e:	0002      	movs	r2, r0
10005220:	000b      	movs	r3, r1
10005222:	980a      	ldr	r0, [sp, #40]	; 0x28
10005224:	9909      	ldr	r1, [sp, #36]	; 0x24
10005226:	f001 fabf 	bl	100067a8 <__wrap___aeabi_dcmplt>
1000522a:	2800      	cmp	r0, #0
1000522c:	d00a      	beq.n	10005244 <_etoa+0x37c>
1000522e:	9b0d      	ldr	r3, [sp, #52]	; 0x34
10005230:	0028      	movs	r0, r5
10005232:	3b01      	subs	r3, #1
10005234:	0031      	movs	r1, r6
10005236:	930d      	str	r3, [sp, #52]	; 0x34
10005238:	2200      	movs	r2, #0
1000523a:	4b30      	ldr	r3, [pc, #192]	; (100052fc <_etoa+0x434>)
1000523c:	f001 fa5b 	bl	100066f6 <__wrap___aeabi_ddiv>
10005240:	0005      	movs	r5, r0
10005242:	000e      	movs	r6, r1
10005244:	27c6      	movs	r7, #198	; 0xc6
10005246:	990d      	ldr	r1, [sp, #52]	; 0x34
10005248:	002b      	movs	r3, r5
1000524a:	3163      	adds	r1, #99	; 0x63
1000524c:	428f      	cmp	r7, r1
1000524e:	41bf      	sbcs	r7, r7
10005250:	9928      	ldr	r1, [sp, #160]	; 0xa0
10005252:	427f      	negs	r7, r7
10005254:	3704      	adds	r7, #4
10005256:	0509      	lsls	r1, r1, #20
10005258:	d400      	bmi.n	1000525c <_etoa+0x394>
1000525a:	e695      	b.n	10004f88 <_etoa+0xc0>
1000525c:	4333      	orrs	r3, r6
1000525e:	d100      	bne.n	10005262 <_etoa+0x39a>
10005260:	e682      	b.n	10004f68 <_etoa+0xa0>
10005262:	9c09      	ldr	r4, [sp, #36]	; 0x24
10005264:	4a28      	ldr	r2, [pc, #160]	; (10005308 <_etoa+0x440>)
10005266:	0021      	movs	r1, r4
10005268:	4b28      	ldr	r3, [pc, #160]	; (1000530c <_etoa+0x444>)
1000526a:	980a      	ldr	r0, [sp, #40]	; 0x28
1000526c:	f001 faaa 	bl	100067c4 <__wrap___aeabi_dcmpge>
10005270:	2800      	cmp	r0, #0
10005272:	d008      	beq.n	10005286 <_etoa+0x3be>
10005274:	2200      	movs	r2, #0
10005276:	0021      	movs	r1, r4
10005278:	4b25      	ldr	r3, [pc, #148]	; (10005310 <_etoa+0x448>)
1000527a:	980a      	ldr	r0, [sp, #40]	; 0x28
1000527c:	f001 fa94 	bl	100067a8 <__wrap___aeabi_dcmplt>
10005280:	2800      	cmp	r0, #0
10005282:	d000      	beq.n	10005286 <_etoa+0x3be>
10005284:	e670      	b.n	10004f68 <_etoa+0xa0>
10005286:	9b26      	ldr	r3, [sp, #152]	; 0x98
10005288:	2b00      	cmp	r3, #0
1000528a:	d100      	bne.n	1000528e <_etoa+0x3c6>
1000528c:	e67c      	b.n	10004f88 <_etoa+0xc0>
1000528e:	9b0e      	ldr	r3, [sp, #56]	; 0x38
10005290:	1e5a      	subs	r2, r3, #1
10005292:	4193      	sbcs	r3, r2
10005294:	9a26      	ldr	r2, [sp, #152]	; 0x98
10005296:	1ad3      	subs	r3, r2, r3
10005298:	9326      	str	r3, [sp, #152]	; 0x98
1000529a:	e675      	b.n	10004f88 <_etoa+0xc0>
1000529c:	2300      	movs	r3, #0
1000529e:	2704      	movs	r7, #4
100052a0:	930d      	str	r3, [sp, #52]	; 0x34
100052a2:	e671      	b.n	10004f88 <_etoa+0xc0>
100052a4:	4643      	mov	r3, r8
100052a6:	930a      	str	r3, [sp, #40]	; 0x28
100052a8:	2380      	movs	r3, #128	; 0x80
100052aa:	061b      	lsls	r3, r3, #24
100052ac:	4453      	add	r3, sl
100052ae:	9309      	str	r3, [sp, #36]	; 0x24
100052b0:	e642      	b.n	10004f38 <_etoa+0x70>
100052b2:	2300      	movs	r3, #0
100052b4:	9326      	str	r3, [sp, #152]	; 0x98
100052b6:	e65f      	b.n	10004f78 <_etoa+0xb0>
100052b8:	fffffc01 	.word	0xfffffc01
100052bc:	509f79fb 	.word	0x509f79fb
100052c0:	3fd34413 	.word	0x3fd34413
100052c4:	8b60c8b3 	.word	0x8b60c8b3
100052c8:	3fc68a28 	.word	0x3fc68a28
100052cc:	3ff00000 	.word	0x3ff00000
100052d0:	3ff80000 	.word	0x3ff80000
100052d4:	636f4361 	.word	0x636f4361
100052d8:	3fd287a7 	.word	0x3fd287a7
100052dc:	0979a371 	.word	0x0979a371
100052e0:	400a934f 	.word	0x400a934f
100052e4:	3fe00000 	.word	0x3fe00000
100052e8:	bbb55516 	.word	0xbbb55516
100052ec:	40026bb1 	.word	0x40026bb1
100052f0:	fefa39ef 	.word	0xfefa39ef
100052f4:	3fe62e42 	.word	0x3fe62e42
100052f8:	402c0000 	.word	0x402c0000
100052fc:	40240000 	.word	0x40240000
10005300:	40180000 	.word	0x40180000
10005304:	000003ff 	.word	0x000003ff
10005308:	eb1c432d 	.word	0xeb1c432d
1000530c:	3f1a36e2 	.word	0x3f1a36e2
10005310:	412e8480 	.word	0x412e8480

10005314 <_ftoa>:
10005314:	b5f0      	push	{r4, r5, r6, r7, lr}
10005316:	464e      	mov	r6, r9
10005318:	46de      	mov	lr, fp
1000531a:	4657      	mov	r7, sl
1000531c:	4645      	mov	r5, r8
1000531e:	b5e0      	push	{r5, r6, r7, lr}
10005320:	b097      	sub	sp, #92	; 0x5c
10005322:	4699      	mov	r9, r3
10005324:	9e20      	ldr	r6, [sp, #128]	; 0x80
10005326:	9f21      	ldr	r7, [sp, #132]	; 0x84
10005328:	9b22      	ldr	r3, [sp, #136]	; 0x88
1000532a:	4683      	mov	fp, r0
1000532c:	4698      	mov	r8, r3
1000532e:	9107      	str	r1, [sp, #28]
10005330:	920c      	str	r2, [sp, #48]	; 0x30
10005332:	003b      	movs	r3, r7
10005334:	0032      	movs	r2, r6
10005336:	0030      	movs	r0, r6
10005338:	0039      	movs	r1, r7
1000533a:	f001 fa50 	bl	100067de <__wrap___aeabi_dcmpun>
1000533e:	2800      	cmp	r0, #0
10005340:	d000      	beq.n	10005344 <_ftoa+0x30>
10005342:	e1ad      	b.n	100056a0 <_ftoa+0x38c>
10005344:	2201      	movs	r2, #1
10005346:	0030      	movs	r0, r6
10005348:	0039      	movs	r1, r7
1000534a:	4bcc      	ldr	r3, [pc, #816]	; (1000567c <_ftoa+0x368>)
1000534c:	4252      	negs	r2, r2
1000534e:	f001 fa2b 	bl	100067a8 <__wrap___aeabi_dcmplt>
10005352:	2800      	cmp	r0, #0
10005354:	d000      	beq.n	10005358 <_ftoa+0x44>
10005356:	e103      	b.n	10005560 <_ftoa+0x24c>
10005358:	2201      	movs	r2, #1
1000535a:	0030      	movs	r0, r6
1000535c:	0039      	movs	r1, r7
1000535e:	4bc8      	ldr	r3, [pc, #800]	; (10005680 <_ftoa+0x36c>)
10005360:	4252      	negs	r2, r2
10005362:	f001 fa37 	bl	100067d4 <__wrap___aeabi_dcmpgt>
10005366:	2800      	cmp	r0, #0
10005368:	d000      	beq.n	1000536c <_ftoa+0x58>
1000536a:	e0d9      	b.n	10005520 <_ftoa+0x20c>
1000536c:	2200      	movs	r2, #0
1000536e:	0030      	movs	r0, r6
10005370:	0039      	movs	r1, r7
10005372:	4bc4      	ldr	r3, [pc, #784]	; (10005684 <_ftoa+0x370>)
10005374:	f001 fa2e 	bl	100067d4 <__wrap___aeabi_dcmpgt>
10005378:	2800      	cmp	r0, #0
1000537a:	d000      	beq.n	1000537e <_ftoa+0x6a>
1000537c:	e0bb      	b.n	100054f6 <_ftoa+0x1e2>
1000537e:	2200      	movs	r2, #0
10005380:	0030      	movs	r0, r6
10005382:	0039      	movs	r1, r7
10005384:	4bc0      	ldr	r3, [pc, #768]	; (10005688 <_ftoa+0x374>)
10005386:	f001 fa0f 	bl	100067a8 <__wrap___aeabi_dcmplt>
1000538a:	2800      	cmp	r0, #0
1000538c:	d000      	beq.n	10005390 <_ftoa+0x7c>
1000538e:	e0b2      	b.n	100054f6 <_ftoa+0x1e2>
10005390:	2200      	movs	r2, #0
10005392:	2300      	movs	r3, #0
10005394:	0030      	movs	r0, r6
10005396:	0039      	movs	r1, r7
10005398:	f001 fa06 	bl	100067a8 <__wrap___aeabi_dcmplt>
1000539c:	2800      	cmp	r0, #0
1000539e:	d000      	beq.n	100053a2 <_ftoa+0x8e>
100053a0:	e0d3      	b.n	1000554a <_ftoa+0x236>
100053a2:	2300      	movs	r3, #0
100053a4:	930d      	str	r3, [sp, #52]	; 0x34
100053a6:	9b24      	ldr	r3, [sp, #144]	; 0x90
100053a8:	055b      	lsls	r3, r3, #21
100053aa:	d401      	bmi.n	100053b0 <_ftoa+0x9c>
100053ac:	2306      	movs	r3, #6
100053ae:	4698      	mov	r8, r3
100053b0:	ab08      	add	r3, sp, #32
100053b2:	469c      	mov	ip, r3
100053b4:	2217      	movs	r2, #23
100053b6:	2400      	movs	r4, #0
100053b8:	2330      	movs	r3, #48	; 0x30
100053ba:	4641      	mov	r1, r8
100053bc:	4462      	add	r2, ip
100053be:	e004      	b.n	100053ca <_ftoa+0xb6>
100053c0:	3401      	adds	r4, #1
100053c2:	5513      	strb	r3, [r2, r4]
100053c4:	3901      	subs	r1, #1
100053c6:	2c20      	cmp	r4, #32
100053c8:	d001      	beq.n	100053ce <_ftoa+0xba>
100053ca:	2909      	cmp	r1, #9
100053cc:	d8f8      	bhi.n	100053c0 <_ftoa+0xac>
100053ce:	4688      	mov	r8, r1
100053d0:	0030      	movs	r0, r6
100053d2:	0039      	movs	r1, r7
100053d4:	f001 fa2e 	bl	10006834 <__wrap___aeabi_d2iz>
100053d8:	4642      	mov	r2, r8
100053da:	4bac      	ldr	r3, [pc, #688]	; (1000568c <_ftoa+0x378>)
100053dc:	00d2      	lsls	r2, r2, #3
100053de:	189b      	adds	r3, r3, r2
100053e0:	681a      	ldr	r2, [r3, #0]
100053e2:	685b      	ldr	r3, [r3, #4]
100053e4:	0005      	movs	r5, r0
100053e6:	9208      	str	r2, [sp, #32]
100053e8:	9309      	str	r3, [sp, #36]	; 0x24
100053ea:	f001 fa0b 	bl	10006804 <__wrap___aeabi_i2d>
100053ee:	0002      	movs	r2, r0
100053f0:	000b      	movs	r3, r1
100053f2:	0030      	movs	r0, r6
100053f4:	0039      	movs	r1, r7
100053f6:	f001 f974 	bl	100066e2 <__wrap___aeabi_dsub>
100053fa:	9a08      	ldr	r2, [sp, #32]
100053fc:	9b09      	ldr	r3, [sp, #36]	; 0x24
100053fe:	f001 f994 	bl	1000672a <__wrap___aeabi_dmul>
10005402:	900a      	str	r0, [sp, #40]	; 0x28
10005404:	910b      	str	r1, [sp, #44]	; 0x2c
10005406:	f001 fa39 	bl	1000687c <__wrap___aeabi_d2uiz>
1000540a:	4682      	mov	sl, r0
1000540c:	f001 f9f6 	bl	100067fc <__wrap___aeabi_ui2d>
10005410:	0002      	movs	r2, r0
10005412:	000b      	movs	r3, r1
10005414:	980a      	ldr	r0, [sp, #40]	; 0x28
10005416:	990b      	ldr	r1, [sp, #44]	; 0x2c
10005418:	f001 f963 	bl	100066e2 <__wrap___aeabi_dsub>
1000541c:	2200      	movs	r2, #0
1000541e:	4b9c      	ldr	r3, [pc, #624]	; (10005690 <_ftoa+0x37c>)
10005420:	900a      	str	r0, [sp, #40]	; 0x28
10005422:	910b      	str	r1, [sp, #44]	; 0x2c
10005424:	f001 f9d6 	bl	100067d4 <__wrap___aeabi_dcmpgt>
10005428:	2800      	cmp	r0, #0
1000542a:	d100      	bne.n	1000542e <_ftoa+0x11a>
1000542c:	e0e2      	b.n	100055f4 <_ftoa+0x2e0>
1000542e:	2301      	movs	r3, #1
10005430:	469c      	mov	ip, r3
10005432:	44e2      	add	sl, ip
10005434:	4650      	mov	r0, sl
10005436:	f001 f9e1 	bl	100067fc <__wrap___aeabi_ui2d>
1000543a:	0002      	movs	r2, r0
1000543c:	000b      	movs	r3, r1
1000543e:	9808      	ldr	r0, [sp, #32]
10005440:	9909      	ldr	r1, [sp, #36]	; 0x24
10005442:	f001 f9b7 	bl	100067b4 <__wrap___aeabi_dcmple>
10005446:	2800      	cmp	r0, #0
10005448:	d002      	beq.n	10005450 <_ftoa+0x13c>
1000544a:	2300      	movs	r3, #0
1000544c:	469a      	mov	sl, r3
1000544e:	3501      	adds	r5, #1
10005450:	4643      	mov	r3, r8
10005452:	2b00      	cmp	r3, #0
10005454:	d100      	bne.n	10005458 <_ftoa+0x144>
10005456:	e08b      	b.n	10005570 <_ftoa+0x25c>
10005458:	ab08      	add	r3, sp, #32
1000545a:	2617      	movs	r6, #23
1000545c:	469c      	mov	ip, r3
1000545e:	9508      	str	r5, [sp, #32]
10005460:	4466      	add	r6, ip
10005462:	4655      	mov	r5, sl
10005464:	e014      	b.n	10005490 <_ftoa+0x17c>
10005466:	2301      	movs	r3, #1
10005468:	425b      	negs	r3, r3
1000546a:	4443      	add	r3, r8
1000546c:	210a      	movs	r1, #10
1000546e:	0028      	movs	r0, r5
10005470:	469a      	mov	sl, r3
10005472:	f000 fef3 	bl	1000625c <__wrap___aeabi_uidiv>
10005476:	3401      	adds	r4, #1
10005478:	3130      	adds	r1, #48	; 0x30
1000547a:	1937      	adds	r7, r6, r4
1000547c:	7039      	strb	r1, [r7, #0]
1000547e:	0028      	movs	r0, r5
10005480:	210a      	movs	r1, #10
10005482:	f000 feeb 	bl	1000625c <__wrap___aeabi_uidiv>
10005486:	2d09      	cmp	r5, #9
10005488:	d800      	bhi.n	1000548c <_ftoa+0x178>
1000548a:	e0d0      	b.n	1000562e <_ftoa+0x31a>
1000548c:	46d0      	mov	r8, sl
1000548e:	0005      	movs	r5, r0
10005490:	2c20      	cmp	r4, #32
10005492:	d1e8      	bne.n	10005466 <_ftoa+0x152>
10005494:	ab0e      	add	r3, sp, #56	; 0x38
10005496:	4698      	mov	r8, r3
10005498:	2303      	movs	r3, #3
1000549a:	9a24      	ldr	r2, [sp, #144]	; 0x90
1000549c:	4013      	ands	r3, r2
1000549e:	2b01      	cmp	r3, #1
100054a0:	d000      	beq.n	100054a4 <_ftoa+0x190>
100054a2:	e0e8      	b.n	10005676 <_ftoa+0x362>
100054a4:	9a23      	ldr	r2, [sp, #140]	; 0x8c
100054a6:	2320      	movs	r3, #32
100054a8:	2a00      	cmp	r2, #0
100054aa:	d01d      	beq.n	100054e8 <_ftoa+0x1d4>
100054ac:	9a0d      	ldr	r2, [sp, #52]	; 0x34
100054ae:	2a00      	cmp	r2, #0
100054b0:	d000      	beq.n	100054b4 <_ftoa+0x1a0>
100054b2:	e0fd      	b.n	100056b0 <_ftoa+0x39c>
100054b4:	9924      	ldr	r1, [sp, #144]	; 0x90
100054b6:	320c      	adds	r2, #12
100054b8:	420a      	tst	r2, r1
100054ba:	d015      	beq.n	100054e8 <_ftoa+0x1d4>
100054bc:	9a23      	ldr	r2, [sp, #140]	; 0x8c
100054be:	3a01      	subs	r2, #1
100054c0:	9223      	str	r2, [sp, #140]	; 0x8c
100054c2:	9a23      	ldr	r2, [sp, #140]	; 0x8c
100054c4:	429a      	cmp	r2, r3
100054c6:	d800      	bhi.n	100054ca <_ftoa+0x1b6>
100054c8:	e105      	b.n	100056d6 <_ftoa+0x3c2>
100054ca:	aa08      	add	r2, sp, #32
100054cc:	4694      	mov	ip, r2
100054ce:	2117      	movs	r1, #23
100054d0:	2230      	movs	r2, #48	; 0x30
100054d2:	4461      	add	r1, ip
100054d4:	2b20      	cmp	r3, #32
100054d6:	d007      	beq.n	100054e8 <_ftoa+0x1d4>
100054d8:	9823      	ldr	r0, [sp, #140]	; 0x8c
100054da:	3301      	adds	r3, #1
100054dc:	54ca      	strb	r2, [r1, r3]
100054de:	4283      	cmp	r3, r0
100054e0:	d100      	bne.n	100054e4 <_ftoa+0x1d0>
100054e2:	e0e9      	b.n	100056b8 <_ftoa+0x3a4>
100054e4:	2b20      	cmp	r3, #32
100054e6:	d1f7      	bne.n	100054d8 <_ftoa+0x1c4>
100054e8:	9a24      	ldr	r2, [sp, #144]	; 0x90
100054ea:	9301      	str	r3, [sp, #4]
100054ec:	9203      	str	r2, [sp, #12]
100054ee:	9a23      	ldr	r2, [sp, #140]	; 0x8c
100054f0:	4643      	mov	r3, r8
100054f2:	9202      	str	r2, [sp, #8]
100054f4:	e01e      	b.n	10005534 <_ftoa+0x220>
100054f6:	9b24      	ldr	r3, [sp, #144]	; 0x90
100054f8:	4658      	mov	r0, fp
100054fa:	9304      	str	r3, [sp, #16]
100054fc:	9b23      	ldr	r3, [sp, #140]	; 0x8c
100054fe:	9600      	str	r6, [sp, #0]
10005500:	9701      	str	r7, [sp, #4]
10005502:	9303      	str	r3, [sp, #12]
10005504:	4643      	mov	r3, r8
10005506:	9a0c      	ldr	r2, [sp, #48]	; 0x30
10005508:	9302      	str	r3, [sp, #8]
1000550a:	9907      	ldr	r1, [sp, #28]
1000550c:	464b      	mov	r3, r9
1000550e:	f7ff fcdb 	bl	10004ec8 <_etoa>
10005512:	b017      	add	sp, #92	; 0x5c
10005514:	bcf0      	pop	{r4, r5, r6, r7}
10005516:	46bb      	mov	fp, r7
10005518:	46b2      	mov	sl, r6
1000551a:	46a9      	mov	r9, r5
1000551c:	46a0      	mov	r8, r4
1000551e:	bdf0      	pop	{r4, r5, r6, r7, pc}
10005520:	9b24      	ldr	r3, [sp, #144]	; 0x90
10005522:	075b      	lsls	r3, r3, #29
10005524:	d40e      	bmi.n	10005544 <_ftoa+0x230>
10005526:	2203      	movs	r2, #3
10005528:	4b5a      	ldr	r3, [pc, #360]	; (10005694 <_ftoa+0x380>)
1000552a:	9924      	ldr	r1, [sp, #144]	; 0x90
1000552c:	9201      	str	r2, [sp, #4]
1000552e:	9103      	str	r1, [sp, #12]
10005530:	9923      	ldr	r1, [sp, #140]	; 0x8c
10005532:	9102      	str	r1, [sp, #8]
10005534:	9300      	str	r3, [sp, #0]
10005536:	4658      	mov	r0, fp
10005538:	464b      	mov	r3, r9
1000553a:	9a0c      	ldr	r2, [sp, #48]	; 0x30
1000553c:	9907      	ldr	r1, [sp, #28]
1000553e:	f7ff fb85 	bl	10004c4c <_out_rev>
10005542:	e7e6      	b.n	10005512 <_ftoa+0x1fe>
10005544:	2204      	movs	r2, #4
10005546:	4b54      	ldr	r3, [pc, #336]	; (10005698 <_ftoa+0x384>)
10005548:	e7ef      	b.n	1000552a <_ftoa+0x216>
1000554a:	003b      	movs	r3, r7
1000554c:	0032      	movs	r2, r6
1000554e:	2000      	movs	r0, #0
10005550:	2100      	movs	r1, #0
10005552:	f001 f8c6 	bl	100066e2 <__wrap___aeabi_dsub>
10005556:	2301      	movs	r3, #1
10005558:	0006      	movs	r6, r0
1000555a:	000f      	movs	r7, r1
1000555c:	930d      	str	r3, [sp, #52]	; 0x34
1000555e:	e722      	b.n	100053a6 <_ftoa+0x92>
10005560:	9b24      	ldr	r3, [sp, #144]	; 0x90
10005562:	9303      	str	r3, [sp, #12]
10005564:	9b23      	ldr	r3, [sp, #140]	; 0x8c
10005566:	9302      	str	r3, [sp, #8]
10005568:	2304      	movs	r3, #4
1000556a:	9301      	str	r3, [sp, #4]
1000556c:	4b4b      	ldr	r3, [pc, #300]	; (1000569c <_ftoa+0x388>)
1000556e:	e7e1      	b.n	10005534 <_ftoa+0x220>
10005570:	0028      	movs	r0, r5
10005572:	f001 f947 	bl	10006804 <__wrap___aeabi_i2d>
10005576:	0002      	movs	r2, r0
10005578:	000b      	movs	r3, r1
1000557a:	0030      	movs	r0, r6
1000557c:	0039      	movs	r1, r7
1000557e:	f001 f8b0 	bl	100066e2 <__wrap___aeabi_dsub>
10005582:	4b43      	ldr	r3, [pc, #268]	; (10005690 <_ftoa+0x37c>)
10005584:	2200      	movs	r2, #0
10005586:	0006      	movs	r6, r0
10005588:	000f      	movs	r7, r1
1000558a:	f001 f90d 	bl	100067a8 <__wrap___aeabi_dcmplt>
1000558e:	ab0e      	add	r3, sp, #56	; 0x38
10005590:	4698      	mov	r8, r3
10005592:	2800      	cmp	r0, #0
10005594:	d10a      	bne.n	100055ac <_ftoa+0x298>
10005596:	2200      	movs	r2, #0
10005598:	0030      	movs	r0, r6
1000559a:	0039      	movs	r1, r7
1000559c:	4b3c      	ldr	r3, [pc, #240]	; (10005690 <_ftoa+0x37c>)
1000559e:	f001 f919 	bl	100067d4 <__wrap___aeabi_dcmpgt>
100055a2:	2800      	cmp	r0, #0
100055a4:	d102      	bne.n	100055ac <_ftoa+0x298>
100055a6:	07eb      	lsls	r3, r5, #31
100055a8:	d500      	bpl.n	100055ac <_ftoa+0x298>
100055aa:	3501      	adds	r5, #1
100055ac:	2c20      	cmp	r4, #32
100055ae:	d100      	bne.n	100055b2 <_ftoa+0x29e>
100055b0:	e772      	b.n	10005498 <_ftoa+0x184>
100055b2:	aa08      	add	r2, sp, #32
100055b4:	4694      	mov	ip, r2
100055b6:	2317      	movs	r3, #23
100055b8:	0028      	movs	r0, r5
100055ba:	4463      	add	r3, ip
100055bc:	210a      	movs	r1, #10
100055be:	3401      	adds	r4, #1
100055c0:	191e      	adds	r6, r3, r4
100055c2:	f000 fe23 	bl	1000620c <__wrap___aeabi_idiv>
100055c6:	3130      	adds	r1, #48	; 0x30
100055c8:	0028      	movs	r0, r5
100055ca:	7031      	strb	r1, [r6, #0]
100055cc:	210a      	movs	r1, #10
100055ce:	f000 fe1d 	bl	1000620c <__wrap___aeabi_idiv>
100055d2:	1e05      	subs	r5, r0, #0
100055d4:	d1ea      	bne.n	100055ac <_ftoa+0x298>
100055d6:	2303      	movs	r3, #3
100055d8:	9a24      	ldr	r2, [sp, #144]	; 0x90
100055da:	4013      	ands	r3, r2
100055dc:	2b01      	cmp	r3, #1
100055de:	d06d      	beq.n	100056bc <_ftoa+0x3a8>
100055e0:	2c20      	cmp	r4, #32
100055e2:	d048      	beq.n	10005676 <_ftoa+0x362>
100055e4:	9b0d      	ldr	r3, [sp, #52]	; 0x34
100055e6:	2b00      	cmp	r3, #0
100055e8:	d014      	beq.n	10005614 <_ftoa+0x300>
100055ea:	222d      	movs	r2, #45	; 0x2d
100055ec:	4641      	mov	r1, r8
100055ee:	1c63      	adds	r3, r4, #1
100055f0:	550a      	strb	r2, [r1, r4]
100055f2:	e779      	b.n	100054e8 <_ftoa+0x1d4>
100055f4:	2200      	movs	r2, #0
100055f6:	980a      	ldr	r0, [sp, #40]	; 0x28
100055f8:	990b      	ldr	r1, [sp, #44]	; 0x2c
100055fa:	4b25      	ldr	r3, [pc, #148]	; (10005690 <_ftoa+0x37c>)
100055fc:	f001 f8d4 	bl	100067a8 <__wrap___aeabi_dcmplt>
10005600:	2800      	cmp	r0, #0
10005602:	d000      	beq.n	10005606 <_ftoa+0x2f2>
10005604:	e724      	b.n	10005450 <_ftoa+0x13c>
10005606:	4653      	mov	r3, sl
10005608:	2b00      	cmp	r3, #0
1000560a:	d130      	bne.n	1000566e <_ftoa+0x35a>
1000560c:	2301      	movs	r3, #1
1000560e:	469c      	mov	ip, r3
10005610:	44e2      	add	sl, ip
10005612:	e71d      	b.n	10005450 <_ftoa+0x13c>
10005614:	9b24      	ldr	r3, [sp, #144]	; 0x90
10005616:	075b      	lsls	r3, r3, #29
10005618:	d424      	bmi.n	10005664 <_ftoa+0x350>
1000561a:	9a24      	ldr	r2, [sp, #144]	; 0x90
1000561c:	0023      	movs	r3, r4
1000561e:	0712      	lsls	r2, r2, #28
10005620:	d400      	bmi.n	10005624 <_ftoa+0x310>
10005622:	e761      	b.n	100054e8 <_ftoa+0x1d4>
10005624:	2220      	movs	r2, #32
10005626:	4641      	mov	r1, r8
10005628:	3301      	adds	r3, #1
1000562a:	550a      	strb	r2, [r1, r4]
1000562c:	e75c      	b.n	100054e8 <_ftoa+0x1d4>
1000562e:	4657      	mov	r7, sl
10005630:	9d08      	ldr	r5, [sp, #32]
10005632:	2c20      	cmp	r4, #32
10005634:	d100      	bne.n	10005638 <_ftoa+0x324>
10005636:	e72d      	b.n	10005494 <_ftoa+0x180>
10005638:	0022      	movs	r2, r4
1000563a:	2130      	movs	r1, #48	; 0x30
1000563c:	4640      	mov	r0, r8
1000563e:	2f00      	cmp	r7, #0
10005640:	d009      	beq.n	10005656 <_ftoa+0x342>
10005642:	3201      	adds	r2, #1
10005644:	54b1      	strb	r1, [r6, r2]
10005646:	2a20      	cmp	r2, #32
10005648:	d100      	bne.n	1000564c <_ftoa+0x338>
1000564a:	e723      	b.n	10005494 <_ftoa+0x180>
1000564c:	1a83      	subs	r3, r0, r2
1000564e:	3b01      	subs	r3, #1
10005650:	18e3      	adds	r3, r4, r3
10005652:	2b00      	cmp	r3, #0
10005654:	d1f5      	bne.n	10005642 <_ftoa+0x32e>
10005656:	ab0e      	add	r3, sp, #56	; 0x38
10005658:	4698      	mov	r8, r3
1000565a:	232e      	movs	r3, #46	; 0x2e
1000565c:	4641      	mov	r1, r8
1000565e:	1c54      	adds	r4, r2, #1
10005660:	548b      	strb	r3, [r1, r2]
10005662:	e7a3      	b.n	100055ac <_ftoa+0x298>
10005664:	222b      	movs	r2, #43	; 0x2b
10005666:	4641      	mov	r1, r8
10005668:	1c63      	adds	r3, r4, #1
1000566a:	550a      	strb	r2, [r1, r4]
1000566c:	e73c      	b.n	100054e8 <_ftoa+0x1d4>
1000566e:	07db      	lsls	r3, r3, #31
10005670:	d400      	bmi.n	10005674 <_ftoa+0x360>
10005672:	e6ed      	b.n	10005450 <_ftoa+0x13c>
10005674:	e7ca      	b.n	1000560c <_ftoa+0x2f8>
10005676:	2320      	movs	r3, #32
10005678:	e736      	b.n	100054e8 <_ftoa+0x1d4>
1000567a:	46c0      	nop			; (mov r8, r8)
1000567c:	ffefffff 	.word	0xffefffff
10005680:	7fefffff 	.word	0x7fefffff
10005684:	41cdcd65 	.word	0x41cdcd65
10005688:	c1cdcd65 	.word	0xc1cdcd65
1000568c:	1000a418 	.word	0x1000a418
10005690:	3fe00000 	.word	0x3fe00000
10005694:	1000a26c 	.word	0x1000a26c
10005698:	1000a264 	.word	0x1000a264
1000569c:	1000a274 	.word	0x1000a274
100056a0:	9b24      	ldr	r3, [sp, #144]	; 0x90
100056a2:	9303      	str	r3, [sp, #12]
100056a4:	9b23      	ldr	r3, [sp, #140]	; 0x8c
100056a6:	9302      	str	r3, [sp, #8]
100056a8:	2303      	movs	r3, #3
100056aa:	9301      	str	r3, [sp, #4]
100056ac:	4b0c      	ldr	r3, [pc, #48]	; (100056e0 <_ftoa+0x3cc>)
100056ae:	e741      	b.n	10005534 <_ftoa+0x220>
100056b0:	9a23      	ldr	r2, [sp, #140]	; 0x8c
100056b2:	3a01      	subs	r2, #1
100056b4:	9223      	str	r2, [sp, #140]	; 0x8c
100056b6:	e717      	b.n	100054e8 <_ftoa+0x1d4>
100056b8:	0004      	movs	r4, r0
100056ba:	e791      	b.n	100055e0 <_ftoa+0x2cc>
100056bc:	9b23      	ldr	r3, [sp, #140]	; 0x8c
100056be:	2b00      	cmp	r3, #0
100056c0:	d08e      	beq.n	100055e0 <_ftoa+0x2cc>
100056c2:	9b0d      	ldr	r3, [sp, #52]	; 0x34
100056c4:	2b00      	cmp	r3, #0
100056c6:	d108      	bne.n	100056da <_ftoa+0x3c6>
100056c8:	220c      	movs	r2, #12
100056ca:	9924      	ldr	r1, [sp, #144]	; 0x90
100056cc:	0023      	movs	r3, r4
100056ce:	4211      	tst	r1, r2
100056d0:	d100      	bne.n	100056d4 <_ftoa+0x3c0>
100056d2:	e6f6      	b.n	100054c2 <_ftoa+0x1ae>
100056d4:	e6f2      	b.n	100054bc <_ftoa+0x1a8>
100056d6:	001c      	movs	r4, r3
100056d8:	e782      	b.n	100055e0 <_ftoa+0x2cc>
100056da:	0023      	movs	r3, r4
100056dc:	e6ee      	b.n	100054bc <_ftoa+0x1a8>
100056de:	46c0      	nop			; (mov r8, r8)
100056e0:	1000a270 	.word	0x1000a270

100056e4 <_vsnprintf>:
100056e4:	b5f0      	push	{r4, r5, r6, r7, lr}
100056e6:	46de      	mov	lr, fp
100056e8:	4657      	mov	r7, sl
100056ea:	464e      	mov	r6, r9
100056ec:	4645      	mov	r5, r8
100056ee:	b5e0      	push	{r5, r6, r7, lr}
100056f0:	b0a1      	sub	sp, #132	; 0x84
100056f2:	001c      	movs	r4, r3
100056f4:	9b2a      	ldr	r3, [sp, #168]	; 0xa8
100056f6:	4692      	mov	sl, r2
100056f8:	9309      	str	r3, [sp, #36]	; 0x24
100056fa:	4ab9      	ldr	r2, [pc, #740]	; (100059e0 <_vsnprintf+0x2fc>)
100056fc:	4bb9      	ldr	r3, [pc, #740]	; (100059e4 <_vsnprintf+0x300>)
100056fe:	4681      	mov	r9, r0
10005700:	468b      	mov	fp, r1
10005702:	601a      	str	r2, [r3, #0]
10005704:	2900      	cmp	r1, #0
10005706:	d100      	bne.n	1000570a <_vsnprintf+0x26>
10005708:	e12b      	b.n	10005962 <_vsnprintf+0x27e>
1000570a:	7820      	ldrb	r0, [r4, #0]
1000570c:	2700      	movs	r7, #0
1000570e:	2800      	cmp	r0, #0
10005710:	d100      	bne.n	10005714 <_vsnprintf+0x30>
10005712:	e12d      	b.n	10005970 <_vsnprintf+0x28c>
10005714:	4bb4      	ldr	r3, [pc, #720]	; (100059e8 <_vsnprintf+0x304>)
10005716:	465e      	mov	r6, fp
10005718:	9308      	str	r3, [sp, #32]
1000571a:	4bb4      	ldr	r3, [pc, #720]	; (100059ec <_vsnprintf+0x308>)
1000571c:	930c      	str	r3, [sp, #48]	; 0x30
1000571e:	e009      	b.n	10005734 <_vsnprintf+0x50>
10005720:	003a      	movs	r2, r7
10005722:	4653      	mov	r3, sl
10005724:	0031      	movs	r1, r6
10005726:	1c7d      	adds	r5, r7, #1
10005728:	47c8      	blx	r9
1000572a:	002f      	movs	r7, r5
1000572c:	3401      	adds	r4, #1
1000572e:	7820      	ldrb	r0, [r4, #0]
10005730:	2800      	cmp	r0, #0
10005732:	d071      	beq.n	10005818 <_vsnprintf+0x134>
10005734:	2825      	cmp	r0, #37	; 0x25
10005736:	d1f3      	bne.n	10005720 <_vsnprintf+0x3c>
10005738:	2310      	movs	r3, #16
1000573a:	469b      	mov	fp, r3
1000573c:	3b0c      	subs	r3, #12
1000573e:	4698      	mov	r8, r3
10005740:	3b02      	subs	r3, #2
10005742:	2200      	movs	r2, #0
10005744:	469c      	mov	ip, r3
10005746:	3401      	adds	r4, #1
10005748:	7820      	ldrb	r0, [r4, #0]
1000574a:	0025      	movs	r5, r4
1000574c:	0003      	movs	r3, r0
1000574e:	3b20      	subs	r3, #32
10005750:	b2db      	uxtb	r3, r3
10005752:	2b10      	cmp	r3, #16
10005754:	d803      	bhi.n	1000575e <_vsnprintf+0x7a>
10005756:	9908      	ldr	r1, [sp, #32]
10005758:	009b      	lsls	r3, r3, #2
1000575a:	58cb      	ldr	r3, [r1, r3]
1000575c:	469f      	mov	pc, r3
1000575e:	0003      	movs	r3, r0
10005760:	3b30      	subs	r3, #48	; 0x30
10005762:	2b09      	cmp	r3, #9
10005764:	d96b      	bls.n	1000583e <_vsnprintf+0x15a>
10005766:	2300      	movs	r3, #0
10005768:	4698      	mov	r8, r3
1000576a:	282a      	cmp	r0, #42	; 0x2a
1000576c:	d100      	bne.n	10005770 <_vsnprintf+0x8c>
1000576e:	e08a      	b.n	10005886 <_vsnprintf+0x1a2>
10005770:	2300      	movs	r3, #0
10005772:	930a      	str	r3, [sp, #40]	; 0x28
10005774:	282e      	cmp	r0, #46	; 0x2e
10005776:	d100      	bne.n	1000577a <_vsnprintf+0x96>
10005778:	e076      	b.n	10005868 <_vsnprintf+0x184>
1000577a:	0003      	movs	r3, r0
1000577c:	3b68      	subs	r3, #104	; 0x68
1000577e:	b2db      	uxtb	r3, r3
10005780:	2b12      	cmp	r3, #18
10005782:	d81c      	bhi.n	100057be <_vsnprintf+0xda>
10005784:	499a      	ldr	r1, [pc, #616]	; (100059f0 <_vsnprintf+0x30c>)
10005786:	009b      	lsls	r3, r3, #2
10005788:	58cb      	ldr	r3, [r1, r3]
1000578a:	469f      	mov	pc, r3
1000578c:	2301      	movs	r3, #1
1000578e:	3401      	adds	r4, #1
10005790:	431a      	orrs	r2, r3
10005792:	e7d9      	b.n	10005748 <_vsnprintf+0x64>
10005794:	4663      	mov	r3, ip
10005796:	3401      	adds	r4, #1
10005798:	431a      	orrs	r2, r3
1000579a:	e7d5      	b.n	10005748 <_vsnprintf+0x64>
1000579c:	4643      	mov	r3, r8
1000579e:	3401      	adds	r4, #1
100057a0:	431a      	orrs	r2, r3
100057a2:	e7d1      	b.n	10005748 <_vsnprintf+0x64>
100057a4:	465b      	mov	r3, fp
100057a6:	3401      	adds	r4, #1
100057a8:	431a      	orrs	r2, r3
100057aa:	e7cd      	b.n	10005748 <_vsnprintf+0x64>
100057ac:	2308      	movs	r3, #8
100057ae:	3401      	adds	r4, #1
100057b0:	431a      	orrs	r2, r3
100057b2:	e7c9      	b.n	10005748 <_vsnprintf+0x64>
100057b4:	2380      	movs	r3, #128	; 0x80
100057b6:	005b      	lsls	r3, r3, #1
100057b8:	7868      	ldrb	r0, [r5, #1]
100057ba:	431a      	orrs	r2, r3
100057bc:	3501      	adds	r5, #1
100057be:	2867      	cmp	r0, #103	; 0x67
100057c0:	d80a      	bhi.n	100057d8 <_vsnprintf+0xf4>
100057c2:	2824      	cmp	r0, #36	; 0x24
100057c4:	d91d      	bls.n	10005802 <_vsnprintf+0x11e>
100057c6:	0003      	movs	r3, r0
100057c8:	3b25      	subs	r3, #37	; 0x25
100057ca:	b2db      	uxtb	r3, r3
100057cc:	2b42      	cmp	r3, #66	; 0x42
100057ce:	d818      	bhi.n	10005802 <_vsnprintf+0x11e>
100057d0:	990c      	ldr	r1, [sp, #48]	; 0x30
100057d2:	009b      	lsls	r3, r3, #2
100057d4:	58cb      	ldr	r3, [r1, r3]
100057d6:	469f      	mov	pc, r3
100057d8:	0003      	movs	r3, r0
100057da:	3b69      	subs	r3, #105	; 0x69
100057dc:	b2db      	uxtb	r3, r3
100057de:	2b0f      	cmp	r3, #15
100057e0:	d80f      	bhi.n	10005802 <_vsnprintf+0x11e>
100057e2:	2101      	movs	r1, #1
100057e4:	4c83      	ldr	r4, [pc, #524]	; (100059f4 <_vsnprintf+0x310>)
100057e6:	4099      	lsls	r1, r3
100057e8:	46a4      	mov	ip, r4
100057ea:	400c      	ands	r4, r1
100057ec:	940b      	str	r4, [sp, #44]	; 0x2c
100057ee:	4664      	mov	r4, ip
100057f0:	4221      	tst	r1, r4
100057f2:	d000      	beq.n	100057f6 <_vsnprintf+0x112>
100057f4:	e202      	b.n	10005bfc <_vsnprintf+0x518>
100057f6:	2b0a      	cmp	r3, #10
100057f8:	d100      	bne.n	100057fc <_vsnprintf+0x118>
100057fa:	e0e1      	b.n	100059c0 <_vsnprintf+0x2dc>
100057fc:	2b07      	cmp	r3, #7
100057fe:	d100      	bne.n	10005802 <_vsnprintf+0x11e>
10005800:	e0b8      	b.n	10005974 <_vsnprintf+0x290>
10005802:	1c7b      	adds	r3, r7, #1
10005804:	4698      	mov	r8, r3
10005806:	003a      	movs	r2, r7
10005808:	4653      	mov	r3, sl
1000580a:	0031      	movs	r1, r6
1000580c:	1c6c      	adds	r4, r5, #1
1000580e:	47c8      	blx	r9
10005810:	7820      	ldrb	r0, [r4, #0]
10005812:	4647      	mov	r7, r8
10005814:	2800      	cmp	r0, #0
10005816:	d18d      	bne.n	10005734 <_vsnprintf+0x50>
10005818:	46b3      	mov	fp, r6
1000581a:	003c      	movs	r4, r7
1000581c:	45ba      	cmp	sl, r7
1000581e:	d801      	bhi.n	10005824 <_vsnprintf+0x140>
10005820:	4653      	mov	r3, sl
10005822:	1e5f      	subs	r7, r3, #1
10005824:	4653      	mov	r3, sl
10005826:	003a      	movs	r2, r7
10005828:	4659      	mov	r1, fp
1000582a:	2000      	movs	r0, #0
1000582c:	47c8      	blx	r9
1000582e:	0020      	movs	r0, r4
10005830:	b021      	add	sp, #132	; 0x84
10005832:	bcf0      	pop	{r4, r5, r6, r7}
10005834:	46bb      	mov	fp, r7
10005836:	46b2      	mov	sl, r6
10005838:	46a9      	mov	r9, r5
1000583a:	46a0      	mov	r8, r4
1000583c:	bdf0      	pop	{r4, r5, r6, r7, pc}
1000583e:	2300      	movs	r3, #0
10005840:	0001      	movs	r1, r0
10005842:	0098      	lsls	r0, r3, #2
10005844:	18c0      	adds	r0, r0, r3
10005846:	3501      	adds	r5, #1
10005848:	0040      	lsls	r0, r0, #1
1000584a:	1840      	adds	r0, r0, r1
1000584c:	7829      	ldrb	r1, [r5, #0]
1000584e:	0003      	movs	r3, r0
10005850:	0008      	movs	r0, r1
10005852:	3830      	subs	r0, #48	; 0x30
10005854:	3b30      	subs	r3, #48	; 0x30
10005856:	2809      	cmp	r0, #9
10005858:	d9f3      	bls.n	10005842 <_vsnprintf+0x15e>
1000585a:	4698      	mov	r8, r3
1000585c:	2300      	movs	r3, #0
1000585e:	0008      	movs	r0, r1
10005860:	930a      	str	r3, [sp, #40]	; 0x28
10005862:	282e      	cmp	r0, #46	; 0x2e
10005864:	d000      	beq.n	10005868 <_vsnprintf+0x184>
10005866:	e788      	b.n	1000577a <_vsnprintf+0x96>
10005868:	2380      	movs	r3, #128	; 0x80
1000586a:	7868      	ldrb	r0, [r5, #1]
1000586c:	00db      	lsls	r3, r3, #3
1000586e:	431a      	orrs	r2, r3
10005870:	0003      	movs	r3, r0
10005872:	3b30      	subs	r3, #48	; 0x30
10005874:	1c69      	adds	r1, r5, #1
10005876:	2b09      	cmp	r3, #9
10005878:	d800      	bhi.n	1000587c <_vsnprintf+0x198>
1000587a:	e107      	b.n	10005a8c <_vsnprintf+0x3a8>
1000587c:	282a      	cmp	r0, #42	; 0x2a
1000587e:	d100      	bne.n	10005882 <_vsnprintf+0x19e>
10005880:	e116      	b.n	10005ab0 <_vsnprintf+0x3cc>
10005882:	000d      	movs	r5, r1
10005884:	e779      	b.n	1000577a <_vsnprintf+0x96>
10005886:	9b09      	ldr	r3, [sp, #36]	; 0x24
10005888:	cb02      	ldmia	r3!, {r1}
1000588a:	4688      	mov	r8, r1
1000588c:	2900      	cmp	r1, #0
1000588e:	db03      	blt.n	10005898 <_vsnprintf+0x1b4>
10005890:	7860      	ldrb	r0, [r4, #1]
10005892:	9309      	str	r3, [sp, #36]	; 0x24
10005894:	1c65      	adds	r5, r4, #1
10005896:	e76b      	b.n	10005770 <_vsnprintf+0x8c>
10005898:	2102      	movs	r1, #2
1000589a:	430a      	orrs	r2, r1
1000589c:	4641      	mov	r1, r8
1000589e:	4249      	negs	r1, r1
100058a0:	4688      	mov	r8, r1
100058a2:	7860      	ldrb	r0, [r4, #1]
100058a4:	9309      	str	r3, [sp, #36]	; 0x24
100058a6:	1c65      	adds	r5, r4, #1
100058a8:	e762      	b.n	10005770 <_vsnprintf+0x8c>
100058aa:	7868      	ldrb	r0, [r5, #1]
100058ac:	286c      	cmp	r0, #108	; 0x6c
100058ae:	d100      	bne.n	100058b2 <_vsnprintf+0x1ce>
100058b0:	e223      	b.n	10005cfa <_vsnprintf+0x616>
100058b2:	2380      	movs	r3, #128	; 0x80
100058b4:	005b      	lsls	r3, r3, #1
100058b6:	431a      	orrs	r2, r3
100058b8:	3501      	adds	r5, #1
100058ba:	e780      	b.n	100057be <_vsnprintf+0xda>
100058bc:	2380      	movs	r3, #128	; 0x80
100058be:	009b      	lsls	r3, r3, #2
100058c0:	7868      	ldrb	r0, [r5, #1]
100058c2:	431a      	orrs	r2, r3
100058c4:	3501      	adds	r5, #1
100058c6:	e77a      	b.n	100057be <_vsnprintf+0xda>
100058c8:	7868      	ldrb	r0, [r5, #1]
100058ca:	2868      	cmp	r0, #104	; 0x68
100058cc:	d100      	bne.n	100058d0 <_vsnprintf+0x1ec>
100058ce:	e21a      	b.n	10005d06 <_vsnprintf+0x622>
100058d0:	2380      	movs	r3, #128	; 0x80
100058d2:	3501      	adds	r5, #1
100058d4:	431a      	orrs	r2, r3
100058d6:	e772      	b.n	100057be <_vsnprintf+0xda>
100058d8:	2846      	cmp	r0, #70	; 0x46
100058da:	d100      	bne.n	100058de <_vsnprintf+0x1fa>
100058dc:	e18b      	b.n	10005bf6 <_vsnprintf+0x512>
100058de:	2107      	movs	r1, #7
100058e0:	9b09      	ldr	r3, [sp, #36]	; 0x24
100058e2:	9204      	str	r2, [sp, #16]
100058e4:	4642      	mov	r2, r8
100058e6:	3307      	adds	r3, #7
100058e8:	438b      	bics	r3, r1
100058ea:	0019      	movs	r1, r3
100058ec:	9203      	str	r2, [sp, #12]
100058ee:	9a0a      	ldr	r2, [sp, #40]	; 0x28
100058f0:	4648      	mov	r0, r9
100058f2:	9202      	str	r2, [sp, #8]
100058f4:	c90c      	ldmia	r1!, {r2, r3}
100058f6:	9200      	str	r2, [sp, #0]
100058f8:	9301      	str	r3, [sp, #4]
100058fa:	9109      	str	r1, [sp, #36]	; 0x24
100058fc:	003a      	movs	r2, r7
100058fe:	4653      	mov	r3, sl
10005900:	0031      	movs	r1, r6
10005902:	f7ff fd07 	bl	10005314 <_ftoa>
10005906:	1c6c      	adds	r4, r5, #1
10005908:	0007      	movs	r7, r0
1000590a:	e710      	b.n	1000572e <_vsnprintf+0x4a>
1000590c:	1c7b      	adds	r3, r7, #1
1000590e:	4698      	mov	r8, r3
10005910:	003a      	movs	r2, r7
10005912:	4653      	mov	r3, sl
10005914:	0031      	movs	r1, r6
10005916:	2025      	movs	r0, #37	; 0x25
10005918:	47c8      	blx	r9
1000591a:	4647      	mov	r7, r8
1000591c:	1c6c      	adds	r4, r5, #1
1000591e:	e706      	b.n	1000572e <_vsnprintf+0x4a>
10005920:	0792      	lsls	r2, r2, #30
10005922:	d400      	bmi.n	10005926 <_vsnprintf+0x242>
10005924:	e231      	b.n	10005d8a <_vsnprintf+0x6a6>
10005926:	9b09      	ldr	r3, [sp, #36]	; 0x24
10005928:	003a      	movs	r2, r7
1000592a:	cb01      	ldmia	r3!, {r0}
1000592c:	0031      	movs	r1, r6
1000592e:	469b      	mov	fp, r3
10005930:	b2c0      	uxtb	r0, r0
10005932:	4653      	mov	r3, sl
10005934:	47c8      	blx	r9
10005936:	4643      	mov	r3, r8
10005938:	1c7c      	adds	r4, r7, #1
1000593a:	4447      	add	r7, r8
1000593c:	2b01      	cmp	r3, #1
1000593e:	d800      	bhi.n	10005942 <_vsnprintf+0x25e>
10005940:	e2fb      	b.n	10005f3a <_vsnprintf+0x856>
10005942:	46a8      	mov	r8, r5
10005944:	464d      	mov	r5, r9
10005946:	0022      	movs	r2, r4
10005948:	4653      	mov	r3, sl
1000594a:	3401      	adds	r4, #1
1000594c:	0031      	movs	r1, r6
1000594e:	2020      	movs	r0, #32
10005950:	47a8      	blx	r5
10005952:	42bc      	cmp	r4, r7
10005954:	d1f7      	bne.n	10005946 <_vsnprintf+0x262>
10005956:	46a9      	mov	r9, r5
10005958:	465b      	mov	r3, fp
1000595a:	4645      	mov	r5, r8
1000595c:	9309      	str	r3, [sp, #36]	; 0x24
1000595e:	1c6c      	adds	r4, r5, #1
10005960:	e6e5      	b.n	1000572e <_vsnprintf+0x4a>
10005962:	4b25      	ldr	r3, [pc, #148]	; (100059f8 <_vsnprintf+0x314>)
10005964:	7820      	ldrb	r0, [r4, #0]
10005966:	4699      	mov	r9, r3
10005968:	2700      	movs	r7, #0
1000596a:	2800      	cmp	r0, #0
1000596c:	d000      	beq.n	10005970 <_vsnprintf+0x28c>
1000596e:	e6d1      	b.n	10005714 <_vsnprintf+0x30>
10005970:	2400      	movs	r4, #0
10005972:	e753      	b.n	1000581c <_vsnprintf+0x138>
10005974:	9b09      	ldr	r3, [sp, #36]	; 0x24
10005976:	0019      	movs	r1, r3
10005978:	c908      	ldmia	r1!, {r3}
1000597a:	4688      	mov	r8, r1
1000597c:	2b00      	cmp	r3, #0
1000597e:	d100      	bne.n	10005982 <_vsnprintf+0x29e>
10005980:	e0a6      	b.n	10005ad0 <_vsnprintf+0x3ec>
10005982:	2121      	movs	r1, #33	; 0x21
10005984:	430a      	orrs	r2, r1
10005986:	4693      	mov	fp, r2
10005988:	a910      	add	r1, sp, #64	; 0x40
1000598a:	468c      	mov	ip, r1
1000598c:	221f      	movs	r2, #31
1000598e:	210f      	movs	r1, #15
10005990:	4462      	add	r2, ip
10005992:	9509      	str	r5, [sp, #36]	; 0x24
10005994:	468c      	mov	ip, r1
10005996:	0015      	movs	r5, r2
10005998:	9c0b      	ldr	r4, [sp, #44]	; 0x2c
1000599a:	e002      	b.n	100059a2 <_vsnprintf+0x2be>
1000599c:	2c20      	cmp	r4, #32
1000599e:	d00c      	beq.n	100059ba <_vsnprintf+0x2d6>
100059a0:	0013      	movs	r3, r2
100059a2:	4660      	mov	r0, ip
100059a4:	4018      	ands	r0, r3
100059a6:	0001      	movs	r1, r0
100059a8:	3137      	adds	r1, #55	; 0x37
100059aa:	2809      	cmp	r0, #9
100059ac:	d800      	bhi.n	100059b0 <_vsnprintf+0x2cc>
100059ae:	3907      	subs	r1, #7
100059b0:	3401      	adds	r4, #1
100059b2:	5529      	strb	r1, [r5, r4]
100059b4:	091a      	lsrs	r2, r3, #4
100059b6:	2b0f      	cmp	r3, #15
100059b8:	d8f0      	bhi.n	1000599c <_vsnprintf+0x2b8>
100059ba:	9d09      	ldr	r5, [sp, #36]	; 0x24
100059bc:	940b      	str	r4, [sp, #44]	; 0x2c
100059be:	e090      	b.n	10005ae2 <_vsnprintf+0x3fe>
100059c0:	9b09      	ldr	r3, [sp, #36]	; 0x24
100059c2:	cb02      	ldmia	r3!, {r1}
100059c4:	9312      	str	r3, [sp, #72]	; 0x48
100059c6:	9b0a      	ldr	r3, [sp, #40]	; 0x28
100059c8:	468b      	mov	fp, r1
100059ca:	2b00      	cmp	r3, #0
100059cc:	d17a      	bne.n	10005ac4 <_vsnprintf+0x3e0>
100059ce:	7808      	ldrb	r0, [r1, #0]
100059d0:	2102      	movs	r1, #2
100059d2:	4249      	negs	r1, r1
100059d4:	2800      	cmp	r0, #0
100059d6:	d01a      	beq.n	10005a0e <_vsnprintf+0x32a>
100059d8:	3101      	adds	r1, #1
100059da:	465c      	mov	r4, fp
100059dc:	4459      	add	r1, fp
100059de:	e00f      	b.n	10005a00 <_vsnprintf+0x31c>
100059e0:	100056e5 	.word	0x100056e5
100059e4:	200012e8 	.word	0x200012e8
100059e8:	1000a27c 	.word	0x1000a27c
100059ec:	1000a30c 	.word	0x1000a30c
100059f0:	1000a2c0 	.word	0x1000a2c0
100059f4:	00009041 	.word	0x00009041
100059f8:	10004c49 	.word	0x10004c49
100059fc:	428c      	cmp	r4, r1
100059fe:	d003      	beq.n	10005a08 <_vsnprintf+0x324>
10005a00:	7863      	ldrb	r3, [r4, #1]
10005a02:	3401      	adds	r4, #1
10005a04:	2b00      	cmp	r3, #0
10005a06:	d1f9      	bne.n	100059fc <_vsnprintf+0x318>
10005a08:	465b      	mov	r3, fp
10005a0a:	1ae3      	subs	r3, r4, r3
10005a0c:	930b      	str	r3, [sp, #44]	; 0x2c
10005a0e:	2380      	movs	r3, #128	; 0x80
10005a10:	0011      	movs	r1, r2
10005a12:	00db      	lsls	r3, r3, #3
10005a14:	4019      	ands	r1, r3
10005a16:	9109      	str	r1, [sp, #36]	; 0x24
10005a18:	421a      	tst	r2, r3
10005a1a:	d004      	beq.n	10005a26 <_vsnprintf+0x342>
10005a1c:	9b0a      	ldr	r3, [sp, #40]	; 0x28
10005a1e:	990b      	ldr	r1, [sp, #44]	; 0x2c
10005a20:	4299      	cmp	r1, r3
10005a22:	d900      	bls.n	10005a26 <_vsnprintf+0x342>
10005a24:	930b      	str	r3, [sp, #44]	; 0x2c
10005a26:	2302      	movs	r3, #2
10005a28:	0019      	movs	r1, r3
10005a2a:	4011      	ands	r1, r2
10005a2c:	910d      	str	r1, [sp, #52]	; 0x34
10005a2e:	4213      	tst	r3, r2
10005a30:	d100      	bne.n	10005a34 <_vsnprintf+0x350>
10005a32:	e18b      	b.n	10005d4c <_vsnprintf+0x668>
10005a34:	2800      	cmp	r0, #0
10005a36:	d100      	bne.n	10005a3a <_vsnprintf+0x356>
10005a38:	e173      	b.n	10005d22 <_vsnprintf+0x63e>
10005a3a:	9b09      	ldr	r3, [sp, #36]	; 0x24
10005a3c:	2b00      	cmp	r3, #0
10005a3e:	d100      	bne.n	10005a42 <_vsnprintf+0x35e>
10005a40:	e142      	b.n	10005cc8 <_vsnprintf+0x5e4>
10005a42:	9b0a      	ldr	r3, [sp, #40]	; 0x28
10005a44:	003a      	movs	r2, r7
10005a46:	469c      	mov	ip, r3
10005a48:	465b      	mov	r3, fp
10005a4a:	44bc      	add	ip, r7
10005a4c:	1bdb      	subs	r3, r3, r7
10005a4e:	4664      	mov	r4, ip
10005a50:	469b      	mov	fp, r3
10005a52:	464b      	mov	r3, r9
10005a54:	9409      	str	r4, [sp, #36]	; 0x24
10005a56:	46a9      	mov	r9, r5
10005a58:	001d      	movs	r5, r3
10005a5a:	e009      	b.n	10005a70 <_vsnprintf+0x38c>
10005a5c:	4653      	mov	r3, sl
10005a5e:	0031      	movs	r1, r6
10005a60:	1c57      	adds	r7, r2, #1
10005a62:	47a8      	blx	r5
10005a64:	465b      	mov	r3, fp
10005a66:	5dd8      	ldrb	r0, [r3, r7]
10005a68:	2800      	cmp	r0, #0
10005a6a:	d100      	bne.n	10005a6e <_vsnprintf+0x38a>
10005a6c:	e155      	b.n	10005d1a <_vsnprintf+0x636>
10005a6e:	003a      	movs	r2, r7
10005a70:	4294      	cmp	r4, r2
10005a72:	d1f3      	bne.n	10005a5c <_vsnprintf+0x378>
10005a74:	002b      	movs	r3, r5
10005a76:	464d      	mov	r5, r9
10005a78:	4699      	mov	r9, r3
10005a7a:	9f09      	ldr	r7, [sp, #36]	; 0x24
10005a7c:	9b0d      	ldr	r3, [sp, #52]	; 0x34
10005a7e:	2b00      	cmp	r3, #0
10005a80:	d000      	beq.n	10005a84 <_vsnprintf+0x3a0>
10005a82:	e14e      	b.n	10005d22 <_vsnprintf+0x63e>
10005a84:	9b12      	ldr	r3, [sp, #72]	; 0x48
10005a86:	1c6c      	adds	r4, r5, #1
10005a88:	9309      	str	r3, [sp, #36]	; 0x24
10005a8a:	e650      	b.n	1000572e <_vsnprintf+0x4a>
10005a8c:	2300      	movs	r3, #0
10005a8e:	0004      	movs	r4, r0
10005a90:	0098      	lsls	r0, r3, #2
10005a92:	18c0      	adds	r0, r0, r3
10005a94:	3101      	adds	r1, #1
10005a96:	0040      	lsls	r0, r0, #1
10005a98:	1900      	adds	r0, r0, r4
10005a9a:	780c      	ldrb	r4, [r1, #0]
10005a9c:	0003      	movs	r3, r0
10005a9e:	0020      	movs	r0, r4
10005aa0:	3830      	subs	r0, #48	; 0x30
10005aa2:	3b30      	subs	r3, #48	; 0x30
10005aa4:	2809      	cmp	r0, #9
10005aa6:	d9f3      	bls.n	10005a90 <_vsnprintf+0x3ac>
10005aa8:	0020      	movs	r0, r4
10005aaa:	000d      	movs	r5, r1
10005aac:	930a      	str	r3, [sp, #40]	; 0x28
10005aae:	e664      	b.n	1000577a <_vsnprintf+0x96>
10005ab0:	9b09      	ldr	r3, [sp, #36]	; 0x24
10005ab2:	3502      	adds	r5, #2
10005ab4:	cb01      	ldmia	r3!, {r0}
10005ab6:	43c1      	mvns	r1, r0
10005ab8:	17c9      	asrs	r1, r1, #31
10005aba:	4008      	ands	r0, r1
10005abc:	900a      	str	r0, [sp, #40]	; 0x28
10005abe:	9309      	str	r3, [sp, #36]	; 0x24
10005ac0:	7828      	ldrb	r0, [r5, #0]
10005ac2:	e65a      	b.n	1000577a <_vsnprintf+0x96>
10005ac4:	7808      	ldrb	r0, [r1, #0]
10005ac6:	2800      	cmp	r0, #0
10005ac8:	d0a1      	beq.n	10005a0e <_vsnprintf+0x32a>
10005aca:	9b0a      	ldr	r3, [sp, #40]	; 0x28
10005acc:	1e59      	subs	r1, r3, #1
10005ace:	e783      	b.n	100059d8 <_vsnprintf+0x2f4>
10005ad0:	2110      	movs	r1, #16
10005ad2:	0010      	movs	r0, r2
10005ad4:	4388      	bics	r0, r1
10005ad6:	3111      	adds	r1, #17
10005ad8:	4308      	orrs	r0, r1
10005ada:	4683      	mov	fp, r0
10005adc:	0552      	lsls	r2, r2, #21
10005ade:	d400      	bmi.n	10005ae2 <_vsnprintf+0x3fe>
10005ae0:	e752      	b.n	10005988 <_vsnprintf+0x2a4>
10005ae2:	465b      	mov	r3, fp
10005ae4:	9306      	str	r3, [sp, #24]
10005ae6:	2308      	movs	r3, #8
10005ae8:	9305      	str	r3, [sp, #20]
10005aea:	9b0a      	ldr	r3, [sp, #40]	; 0x28
10005aec:	003a      	movs	r2, r7
10005aee:	9304      	str	r3, [sp, #16]
10005af0:	2310      	movs	r3, #16
10005af2:	9303      	str	r3, [sp, #12]
10005af4:	2300      	movs	r3, #0
10005af6:	9302      	str	r3, [sp, #8]
10005af8:	9b0b      	ldr	r3, [sp, #44]	; 0x2c
10005afa:	0031      	movs	r1, r6
10005afc:	9301      	str	r3, [sp, #4]
10005afe:	ab18      	add	r3, sp, #96	; 0x60
10005b00:	9300      	str	r3, [sp, #0]
10005b02:	4648      	mov	r0, r9
10005b04:	4653      	mov	r3, sl
10005b06:	f7ff f8e9 	bl	10004cdc <_ntoa_format>
10005b0a:	4643      	mov	r3, r8
10005b0c:	0007      	movs	r7, r0
10005b0e:	1c6c      	adds	r4, r5, #1
10005b10:	9309      	str	r3, [sp, #36]	; 0x24
10005b12:	e60c      	b.n	1000572e <_vsnprintf+0x4a>
10005b14:	2320      	movs	r3, #32
10005b16:	0001      	movs	r1, r0
10005b18:	4399      	bics	r1, r3
10005b1a:	2947      	cmp	r1, #71	; 0x47
10005b1c:	d104      	bne.n	10005b28 <_vsnprintf+0x444>
10005b1e:	2380      	movs	r3, #128	; 0x80
10005b20:	011b      	lsls	r3, r3, #4
10005b22:	431a      	orrs	r2, r3
10005b24:	2302      	movs	r3, #2
10005b26:	4398      	bics	r0, r3
10005b28:	2845      	cmp	r0, #69	; 0x45
10005b2a:	d101      	bne.n	10005b30 <_vsnprintf+0x44c>
10005b2c:	2320      	movs	r3, #32
10005b2e:	431a      	orrs	r2, r3
10005b30:	2107      	movs	r1, #7
10005b32:	9b09      	ldr	r3, [sp, #36]	; 0x24
10005b34:	9204      	str	r2, [sp, #16]
10005b36:	4642      	mov	r2, r8
10005b38:	3307      	adds	r3, #7
10005b3a:	438b      	bics	r3, r1
10005b3c:	0019      	movs	r1, r3
10005b3e:	9203      	str	r2, [sp, #12]
10005b40:	9a0a      	ldr	r2, [sp, #40]	; 0x28
10005b42:	4648      	mov	r0, r9
10005b44:	9202      	str	r2, [sp, #8]
10005b46:	c90c      	ldmia	r1!, {r2, r3}
10005b48:	9200      	str	r2, [sp, #0]
10005b4a:	9301      	str	r3, [sp, #4]
10005b4c:	9109      	str	r1, [sp, #36]	; 0x24
10005b4e:	003a      	movs	r2, r7
10005b50:	4653      	mov	r3, sl
10005b52:	0031      	movs	r1, r6
10005b54:	f7ff f9b8 	bl	10004ec8 <_etoa>
10005b58:	1c6c      	adds	r4, r5, #1
10005b5a:	0007      	movs	r7, r0
10005b5c:	e5e7      	b.n	1000572e <_vsnprintf+0x4a>
10005b5e:	2862      	cmp	r0, #98	; 0x62
10005b60:	d100      	bne.n	10005b64 <_vsnprintf+0x480>
10005b62:	e1f6      	b.n	10005f52 <_vsnprintf+0x86e>
10005b64:	286f      	cmp	r0, #111	; 0x6f
10005b66:	d100      	bne.n	10005b6a <_vsnprintf+0x486>
10005b68:	e132      	b.n	10005dd0 <_vsnprintf+0x6ec>
10005b6a:	2858      	cmp	r0, #88	; 0x58
10005b6c:	d100      	bne.n	10005b70 <_vsnprintf+0x48c>
10005b6e:	e0cf      	b.n	10005d10 <_vsnprintf+0x62c>
10005b70:	2310      	movs	r3, #16
10005b72:	439a      	bics	r2, r3
10005b74:	3b06      	subs	r3, #6
10005b76:	930d      	str	r3, [sp, #52]	; 0x34
10005b78:	2869      	cmp	r0, #105	; 0x69
10005b7a:	d000      	beq.n	10005b7e <_vsnprintf+0x49a>
10005b7c:	e124      	b.n	10005dc8 <_vsnprintf+0x6e4>
10005b7e:	920b      	str	r2, [sp, #44]	; 0x2c
10005b80:	0553      	lsls	r3, r2, #21
10005b82:	d546      	bpl.n	10005c12 <_vsnprintf+0x52e>
10005b84:	2301      	movs	r3, #1
10005b86:	9a0b      	ldr	r2, [sp, #44]	; 0x2c
10005b88:	439a      	bics	r2, r3
10005b8a:	920b      	str	r2, [sp, #44]	; 0x2c
10005b8c:	2869      	cmp	r0, #105	; 0x69
10005b8e:	d040      	beq.n	10005c12 <_vsnprintf+0x52e>
10005b90:	2864      	cmp	r0, #100	; 0x64
10005b92:	d03e      	beq.n	10005c12 <_vsnprintf+0x52e>
10005b94:	9a0b      	ldr	r2, [sp, #44]	; 0x2c
10005b96:	2380      	movs	r3, #128	; 0x80
10005b98:	0011      	movs	r1, r2
10005b9a:	009b      	lsls	r3, r3, #2
10005b9c:	4019      	ands	r1, r3
10005b9e:	468b      	mov	fp, r1
10005ba0:	421a      	tst	r2, r3
10005ba2:	d000      	beq.n	10005ba6 <_vsnprintf+0x4c2>
10005ba4:	e1dc      	b.n	10005f60 <_vsnprintf+0x87c>
10005ba6:	2380      	movs	r3, #128	; 0x80
10005ba8:	0014      	movs	r4, r2
10005baa:	005b      	lsls	r3, r3, #1
10005bac:	401c      	ands	r4, r3
10005bae:	421a      	tst	r2, r3
10005bb0:	d000      	beq.n	10005bb4 <_vsnprintf+0x4d0>
10005bb2:	e27b      	b.n	100060ac <_vsnprintf+0x9c8>
10005bb4:	0013      	movs	r3, r2
10005bb6:	065b      	lsls	r3, r3, #25
10005bb8:	d400      	bmi.n	10005bbc <_vsnprintf+0x4d8>
10005bba:	e18b      	b.n	10005ed4 <_vsnprintf+0x7f0>
10005bbc:	22ff      	movs	r2, #255	; 0xff
10005bbe:	9b09      	ldr	r3, [sp, #36]	; 0x24
10005bc0:	cb02      	ldmia	r3!, {r1}
10005bc2:	4011      	ands	r1, r2
10005bc4:	468b      	mov	fp, r1
10005bc6:	9309      	str	r3, [sp, #36]	; 0x24
10005bc8:	465b      	mov	r3, fp
10005bca:	2b00      	cmp	r3, #0
10005bcc:	d000      	beq.n	10005bd0 <_vsnprintf+0x4ec>
10005bce:	e18c      	b.n	10005eea <_vsnprintf+0x806>
10005bd0:	9a0b      	ldr	r2, [sp, #44]	; 0x2c
10005bd2:	3310      	adds	r3, #16
10005bd4:	0011      	movs	r1, r2
10005bd6:	4399      	bics	r1, r3
10005bd8:	910b      	str	r1, [sp, #44]	; 0x2c
10005bda:	0552      	lsls	r2, r2, #21
10005bdc:	d400      	bmi.n	10005be0 <_vsnprintf+0x4fc>
10005bde:	e184      	b.n	10005eea <_vsnprintf+0x806>
10005be0:	2400      	movs	r4, #0
10005be2:	9b0b      	ldr	r3, [sp, #44]	; 0x2c
10005be4:	9306      	str	r3, [sp, #24]
10005be6:	4643      	mov	r3, r8
10005be8:	9305      	str	r3, [sp, #20]
10005bea:	9b0a      	ldr	r3, [sp, #40]	; 0x28
10005bec:	9304      	str	r3, [sp, #16]
10005bee:	9b0d      	ldr	r3, [sp, #52]	; 0x34
10005bf0:	9303      	str	r3, [sp, #12]
10005bf2:	2300      	movs	r3, #0
10005bf4:	e161      	b.n	10005eba <_vsnprintf+0x7d6>
10005bf6:	2320      	movs	r3, #32
10005bf8:	431a      	orrs	r2, r3
10005bfa:	e670      	b.n	100058de <_vsnprintf+0x1fa>
10005bfc:	2310      	movs	r3, #16
10005bfe:	930d      	str	r3, [sp, #52]	; 0x34
10005c00:	2878      	cmp	r0, #120	; 0x78
10005c02:	d1ac      	bne.n	10005b5e <_vsnprintf+0x47a>
10005c04:	230c      	movs	r3, #12
10005c06:	0011      	movs	r1, r2
10005c08:	4399      	bics	r1, r3
10005c0a:	910b      	str	r1, [sp, #44]	; 0x2c
10005c0c:	0552      	lsls	r2, r2, #21
10005c0e:	d4b9      	bmi.n	10005b84 <_vsnprintf+0x4a0>
10005c10:	e7bc      	b.n	10005b8c <_vsnprintf+0x4a8>
10005c12:	9a0b      	ldr	r2, [sp, #44]	; 0x2c
10005c14:	2380      	movs	r3, #128	; 0x80
10005c16:	0011      	movs	r1, r2
10005c18:	009b      	lsls	r3, r3, #2
10005c1a:	4019      	ands	r1, r3
10005c1c:	468b      	mov	fp, r1
10005c1e:	421a      	tst	r2, r3
10005c20:	d000      	beq.n	10005c24 <_vsnprintf+0x540>
10005c22:	e0d8      	b.n	10005dd6 <_vsnprintf+0x6f2>
10005c24:	2380      	movs	r3, #128	; 0x80
10005c26:	0014      	movs	r4, r2
10005c28:	005b      	lsls	r3, r3, #1
10005c2a:	401c      	ands	r4, r3
10005c2c:	421a      	tst	r2, r3
10005c2e:	d000      	beq.n	10005c32 <_vsnprintf+0x54e>
10005c30:	e1e2      	b.n	10005ff8 <_vsnprintf+0x914>
10005c32:	0013      	movs	r3, r2
10005c34:	065b      	lsls	r3, r3, #25
10005c36:	d500      	bpl.n	10005c3a <_vsnprintf+0x556>
10005c38:	e127      	b.n	10005e8a <_vsnprintf+0x7a6>
10005c3a:	0013      	movs	r3, r2
10005c3c:	9909      	ldr	r1, [sp, #36]	; 0x24
10005c3e:	061b      	lsls	r3, r3, #24
10005c40:	d400      	bmi.n	10005c44 <_vsnprintf+0x560>
10005c42:	e295      	b.n	10006170 <_vsnprintf+0xa8c>
10005c44:	c908      	ldmia	r1!, {r3}
10005c46:	b21b      	sxth	r3, r3
10005c48:	17d8      	asrs	r0, r3, #31
10005c4a:	181a      	adds	r2, r3, r0
10005c4c:	4042      	eors	r2, r0
10005c4e:	b292      	uxth	r2, r2
10005c50:	9109      	str	r1, [sp, #36]	; 0x24
10005c52:	4693      	mov	fp, r2
10005c54:	0fda      	lsrs	r2, r3, #31
10005c56:	9213      	str	r2, [sp, #76]	; 0x4c
10005c58:	2b00      	cmp	r3, #0
10005c5a:	d109      	bne.n	10005c70 <_vsnprintf+0x58c>
10005c5c:	2380      	movs	r3, #128	; 0x80
10005c5e:	2210      	movs	r2, #16
10005c60:	990b      	ldr	r1, [sp, #44]	; 0x2c
10005c62:	00db      	lsls	r3, r3, #3
10005c64:	400b      	ands	r3, r1
10005c66:	4391      	bics	r1, r2
10005c68:	910b      	str	r1, [sp, #44]	; 0x2c
10005c6a:	2b00      	cmp	r3, #0
10005c6c:	d000      	beq.n	10005c70 <_vsnprintf+0x58c>
10005c6e:	e11b      	b.n	10005ea8 <_vsnprintf+0x7c4>
10005c70:	9a0b      	ldr	r2, [sp, #44]	; 0x2c
10005c72:	2361      	movs	r3, #97	; 0x61
10005c74:	0692      	lsls	r2, r2, #26
10005c76:	d500      	bpl.n	10005c7a <_vsnprintf+0x596>
10005c78:	2341      	movs	r3, #65	; 0x41
10005c7a:	b2db      	uxtb	r3, r3
10005c7c:	a910      	add	r1, sp, #64	; 0x40
10005c7e:	3b0a      	subs	r3, #10
10005c80:	221f      	movs	r2, #31
10005c82:	468c      	mov	ip, r1
10005c84:	9312      	str	r3, [sp, #72]	; 0x48
10005c86:	4643      	mov	r3, r8
10005c88:	4462      	add	r2, ip
10005c8a:	46a8      	mov	r8, r5
10005c8c:	9714      	str	r7, [sp, #80]	; 0x50
10005c8e:	9d0d      	ldr	r5, [sp, #52]	; 0x34
10005c90:	465f      	mov	r7, fp
10005c92:	9315      	str	r3, [sp, #84]	; 0x54
10005c94:	46b3      	mov	fp, r6
10005c96:	0016      	movs	r6, r2
10005c98:	e00a      	b.n	10005cb0 <_vsnprintf+0x5cc>
10005c9a:	3330      	adds	r3, #48	; 0x30
10005c9c:	b2db      	uxtb	r3, r3
10005c9e:	3401      	adds	r4, #1
10005ca0:	5533      	strb	r3, [r6, r4]
10005ca2:	42af      	cmp	r7, r5
10005ca4:	d200      	bcs.n	10005ca8 <_vsnprintf+0x5c4>
10005ca6:	e14e      	b.n	10005f46 <_vsnprintf+0x862>
10005ca8:	2c20      	cmp	r4, #32
10005caa:	d100      	bne.n	10005cae <_vsnprintf+0x5ca>
10005cac:	e14b      	b.n	10005f46 <_vsnprintf+0x862>
10005cae:	0007      	movs	r7, r0
10005cb0:	0029      	movs	r1, r5
10005cb2:	0038      	movs	r0, r7
10005cb4:	f000 fad2 	bl	1000625c <__wrap___aeabi_uidiv>
10005cb8:	b2cb      	uxtb	r3, r1
10005cba:	2909      	cmp	r1, #9
10005cbc:	d9ed      	bls.n	10005c9a <_vsnprintf+0x5b6>
10005cbe:	9a12      	ldr	r2, [sp, #72]	; 0x48
10005cc0:	4694      	mov	ip, r2
10005cc2:	4463      	add	r3, ip
10005cc4:	b2db      	uxtb	r3, r3
10005cc6:	e7ea      	b.n	10005c9e <_vsnprintf+0x5ba>
10005cc8:	465b      	mov	r3, fp
10005cca:	1bdb      	subs	r3, r3, r7
10005ccc:	469b      	mov	fp, r3
10005cce:	9b0b      	ldr	r3, [sp, #44]	; 0x2c
10005cd0:	464c      	mov	r4, r9
10005cd2:	4699      	mov	r9, r3
10005cd4:	4653      	mov	r3, sl
10005cd6:	46aa      	mov	sl, r5
10005cd8:	001d      	movs	r5, r3
10005cda:	003a      	movs	r2, r7
10005cdc:	002b      	movs	r3, r5
10005cde:	0031      	movs	r1, r6
10005ce0:	47a0      	blx	r4
10005ce2:	465b      	mov	r3, fp
10005ce4:	3701      	adds	r7, #1
10005ce6:	5dd8      	ldrb	r0, [r3, r7]
10005ce8:	2800      	cmp	r0, #0
10005cea:	d1f6      	bne.n	10005cda <_vsnprintf+0x5f6>
10005cec:	464b      	mov	r3, r9
10005cee:	930b      	str	r3, [sp, #44]	; 0x2c
10005cf0:	002b      	movs	r3, r5
10005cf2:	46a1      	mov	r9, r4
10005cf4:	4655      	mov	r5, sl
10005cf6:	469a      	mov	sl, r3
10005cf8:	e6c0      	b.n	10005a7c <_vsnprintf+0x398>
10005cfa:	23c0      	movs	r3, #192	; 0xc0
10005cfc:	009b      	lsls	r3, r3, #2
10005cfe:	78a8      	ldrb	r0, [r5, #2]
10005d00:	431a      	orrs	r2, r3
10005d02:	3502      	adds	r5, #2
10005d04:	e55b      	b.n	100057be <_vsnprintf+0xda>
10005d06:	23c0      	movs	r3, #192	; 0xc0
10005d08:	78a8      	ldrb	r0, [r5, #2]
10005d0a:	431a      	orrs	r2, r3
10005d0c:	3502      	adds	r5, #2
10005d0e:	e556      	b.n	100057be <_vsnprintf+0xda>
10005d10:	2320      	movs	r3, #32
10005d12:	431a      	orrs	r2, r3
10005d14:	3b10      	subs	r3, #16
10005d16:	930d      	str	r3, [sp, #52]	; 0x34
10005d18:	e774      	b.n	10005c04 <_vsnprintf+0x520>
10005d1a:	002b      	movs	r3, r5
10005d1c:	464d      	mov	r5, r9
10005d1e:	4699      	mov	r9, r3
10005d20:	e6ac      	b.n	10005a7c <_vsnprintf+0x398>
10005d22:	9b0b      	ldr	r3, [sp, #44]	; 0x2c
10005d24:	46bb      	mov	fp, r7
10005d26:	4598      	cmp	r8, r3
10005d28:	d800      	bhi.n	10005d2c <_vsnprintf+0x648>
10005d2a:	e6ab      	b.n	10005a84 <_vsnprintf+0x3a0>
10005d2c:	4447      	add	r7, r8
10005d2e:	465c      	mov	r4, fp
10005d30:	46a8      	mov	r8, r5
10005d32:	464d      	mov	r5, r9
10005d34:	1aff      	subs	r7, r7, r3
10005d36:	0022      	movs	r2, r4
10005d38:	4653      	mov	r3, sl
10005d3a:	3401      	adds	r4, #1
10005d3c:	0031      	movs	r1, r6
10005d3e:	2020      	movs	r0, #32
10005d40:	47a8      	blx	r5
10005d42:	42bc      	cmp	r4, r7
10005d44:	d1f7      	bne.n	10005d36 <_vsnprintf+0x652>
10005d46:	46a9      	mov	r9, r5
10005d48:	4645      	mov	r5, r8
10005d4a:	e69b      	b.n	10005a84 <_vsnprintf+0x3a0>
10005d4c:	9a0b      	ldr	r2, [sp, #44]	; 0x2c
10005d4e:	1c53      	adds	r3, r2, #1
10005d50:	4590      	cmp	r8, r2
10005d52:	d800      	bhi.n	10005d56 <_vsnprintf+0x672>
10005d54:	e222      	b.n	1000619c <_vsnprintf+0xab8>
10005d56:	4643      	mov	r3, r8
10005d58:	19db      	adds	r3, r3, r7
10005d5a:	1a9c      	subs	r4, r3, r2
10005d5c:	464b      	mov	r3, r9
10005d5e:	46a9      	mov	r9, r5
10005d60:	001d      	movs	r5, r3
10005d62:	003a      	movs	r2, r7
10005d64:	4653      	mov	r3, sl
10005d66:	3701      	adds	r7, #1
10005d68:	0031      	movs	r1, r6
10005d6a:	2020      	movs	r0, #32
10005d6c:	47a8      	blx	r5
10005d6e:	42a7      	cmp	r7, r4
10005d70:	d1f7      	bne.n	10005d62 <_vsnprintf+0x67e>
10005d72:	002b      	movs	r3, r5
10005d74:	464d      	mov	r5, r9
10005d76:	4699      	mov	r9, r3
10005d78:	4643      	mov	r3, r8
10005d7a:	3301      	adds	r3, #1
10005d7c:	930b      	str	r3, [sp, #44]	; 0x2c
10005d7e:	465b      	mov	r3, fp
10005d80:	7818      	ldrb	r0, [r3, #0]
10005d82:	2800      	cmp	r0, #0
10005d84:	d000      	beq.n	10005d88 <_vsnprintf+0x6a4>
10005d86:	e658      	b.n	10005a3a <_vsnprintf+0x356>
10005d88:	e67c      	b.n	10005a84 <_vsnprintf+0x3a0>
10005d8a:	4643      	mov	r3, r8
10005d8c:	2b01      	cmp	r3, #1
10005d8e:	d800      	bhi.n	10005d92 <_vsnprintf+0x6ae>
10005d90:	e202      	b.n	10006198 <_vsnprintf+0xab4>
10005d92:	1e7c      	subs	r4, r7, #1
10005d94:	4444      	add	r4, r8
10005d96:	46a8      	mov	r8, r5
10005d98:	464d      	mov	r5, r9
10005d9a:	003a      	movs	r2, r7
10005d9c:	4653      	mov	r3, sl
10005d9e:	3701      	adds	r7, #1
10005da0:	0031      	movs	r1, r6
10005da2:	2020      	movs	r0, #32
10005da4:	47a8      	blx	r5
10005da6:	42a7      	cmp	r7, r4
10005da8:	d1f7      	bne.n	10005d9a <_vsnprintf+0x6b6>
10005daa:	46a9      	mov	r9, r5
10005dac:	4645      	mov	r5, r8
10005dae:	9b09      	ldr	r3, [sp, #36]	; 0x24
10005db0:	0022      	movs	r2, r4
10005db2:	cb01      	ldmia	r3!, {r0}
10005db4:	0031      	movs	r1, r6
10005db6:	4698      	mov	r8, r3
10005db8:	b2c0      	uxtb	r0, r0
10005dba:	4653      	mov	r3, sl
10005dbc:	47c8      	blx	r9
10005dbe:	4643      	mov	r3, r8
10005dc0:	1c67      	adds	r7, r4, #1
10005dc2:	9309      	str	r3, [sp, #36]	; 0x24
10005dc4:	1c6c      	adds	r4, r5, #1
10005dc6:	e4b2      	b.n	1000572e <_vsnprintf+0x4a>
10005dc8:	2864      	cmp	r0, #100	; 0x64
10005dca:	d100      	bne.n	10005dce <_vsnprintf+0x6ea>
10005dcc:	e6d7      	b.n	10005b7e <_vsnprintf+0x49a>
10005dce:	e719      	b.n	10005c04 <_vsnprintf+0x520>
10005dd0:	2308      	movs	r3, #8
10005dd2:	930d      	str	r3, [sp, #52]	; 0x34
10005dd4:	e716      	b.n	10005c04 <_vsnprintf+0x520>
10005dd6:	2207      	movs	r2, #7
10005dd8:	9b09      	ldr	r3, [sp, #36]	; 0x24
10005dda:	3307      	adds	r3, #7
10005ddc:	4393      	bics	r3, r2
10005dde:	3201      	adds	r2, #1
10005de0:	4694      	mov	ip, r2
10005de2:	449c      	add	ip, r3
10005de4:	4662      	mov	r2, ip
10005de6:	9209      	str	r2, [sp, #36]	; 0x24
10005de8:	cb0c      	ldmia	r3, {r2, r3}
10005dea:	469c      	mov	ip, r3
10005dec:	17db      	asrs	r3, r3, #31
10005dee:	9310      	str	r3, [sp, #64]	; 0x40
10005df0:	9311      	str	r3, [sp, #68]	; 0x44
10005df2:	9810      	ldr	r0, [sp, #64]	; 0x40
10005df4:	9911      	ldr	r1, [sp, #68]	; 0x44
10005df6:	0003      	movs	r3, r0
10005df8:	4053      	eors	r3, r2
10005dfa:	930e      	str	r3, [sp, #56]	; 0x38
10005dfc:	4664      	mov	r4, ip
10005dfe:	000b      	movs	r3, r1
10005e00:	4063      	eors	r3, r4
10005e02:	930f      	str	r3, [sp, #60]	; 0x3c
10005e04:	9b0e      	ldr	r3, [sp, #56]	; 0x38
10005e06:	9c0f      	ldr	r4, [sp, #60]	; 0x3c
10005e08:	1a1b      	subs	r3, r3, r0
10005e0a:	418c      	sbcs	r4, r1
10005e0c:	930e      	str	r3, [sp, #56]	; 0x38
10005e0e:	940f      	str	r4, [sp, #60]	; 0x3c
10005e10:	4663      	mov	r3, ip
10005e12:	0fdb      	lsrs	r3, r3, #31
10005e14:	9313      	str	r3, [sp, #76]	; 0x4c
10005e16:	2300      	movs	r3, #0
10005e18:	469b      	mov	fp, r3
10005e1a:	4663      	mov	r3, ip
10005e1c:	431a      	orrs	r2, r3
10005e1e:	d03b      	beq.n	10005e98 <_vsnprintf+0x7b4>
10005e20:	9a0b      	ldr	r2, [sp, #44]	; 0x2c
10005e22:	2361      	movs	r3, #97	; 0x61
10005e24:	0692      	lsls	r2, r2, #26
10005e26:	d500      	bpl.n	10005e2a <_vsnprintf+0x746>
10005e28:	2341      	movs	r3, #65	; 0x41
10005e2a:	b2db      	uxtb	r3, r3
10005e2c:	3b0a      	subs	r3, #10
10005e2e:	9312      	str	r3, [sp, #72]	; 0x48
10005e30:	4643      	mov	r3, r8
10005e32:	a910      	add	r1, sp, #64	; 0x40
10005e34:	221f      	movs	r2, #31
10005e36:	468c      	mov	ip, r1
10005e38:	2400      	movs	r4, #0
10005e3a:	9315      	str	r3, [sp, #84]	; 0x54
10005e3c:	464b      	mov	r3, r9
10005e3e:	4462      	add	r2, ip
10005e40:	46b1      	mov	r9, r6
10005e42:	9714      	str	r7, [sp, #80]	; 0x50
10005e44:	9516      	str	r5, [sp, #88]	; 0x58
10005e46:	0027      	movs	r7, r4
10005e48:	9c0e      	ldr	r4, [sp, #56]	; 0x38
10005e4a:	9d0f      	ldr	r5, [sp, #60]	; 0x3c
10005e4c:	4690      	mov	r8, r2
10005e4e:	9e0d      	ldr	r6, [sp, #52]	; 0x34
10005e50:	9317      	str	r3, [sp, #92]	; 0x5c
10005e52:	e00c      	b.n	10005e6e <_vsnprintf+0x78a>
10005e54:	3230      	adds	r2, #48	; 0x30
10005e56:	b2d2      	uxtb	r2, r2
10005e58:	4643      	mov	r3, r8
10005e5a:	3701      	adds	r7, #1
10005e5c:	55da      	strb	r2, [r3, r7]
10005e5e:	45ab      	cmp	fp, r5
10005e60:	d100      	bne.n	10005e64 <_vsnprintf+0x780>
10005e62:	e177      	b.n	10006154 <_vsnprintf+0xa70>
10005e64:	2f20      	cmp	r7, #32
10005e66:	d100      	bne.n	10005e6a <_vsnprintf+0x786>
10005e68:	e177      	b.n	1000615a <_vsnprintf+0xa76>
10005e6a:	0004      	movs	r4, r0
10005e6c:	000d      	movs	r5, r1
10005e6e:	0032      	movs	r2, r6
10005e70:	2300      	movs	r3, #0
10005e72:	0020      	movs	r0, r4
10005e74:	0029      	movs	r1, r5
10005e76:	f000 fa33 	bl	100062e0 <__wrap___aeabi_uldivmod>
10005e7a:	b2d2      	uxtb	r2, r2
10005e7c:	2a09      	cmp	r2, #9
10005e7e:	d9e9      	bls.n	10005e54 <_vsnprintf+0x770>
10005e80:	9b12      	ldr	r3, [sp, #72]	; 0x48
10005e82:	469c      	mov	ip, r3
10005e84:	4462      	add	r2, ip
10005e86:	b2d2      	uxtb	r2, r2
10005e88:	e7e6      	b.n	10005e58 <_vsnprintf+0x774>
10005e8a:	22ff      	movs	r2, #255	; 0xff
10005e8c:	9909      	ldr	r1, [sp, #36]	; 0x24
10005e8e:	c908      	ldmia	r1!, {r3}
10005e90:	4013      	ands	r3, r2
10005e92:	001a      	movs	r2, r3
10005e94:	9109      	str	r1, [sp, #36]	; 0x24
10005e96:	e6dc      	b.n	10005c52 <_vsnprintf+0x56e>
10005e98:	9a0b      	ldr	r2, [sp, #44]	; 0x2c
10005e9a:	2310      	movs	r3, #16
10005e9c:	0011      	movs	r1, r2
10005e9e:	4399      	bics	r1, r3
10005ea0:	2400      	movs	r4, #0
10005ea2:	910b      	str	r1, [sp, #44]	; 0x2c
10005ea4:	0552      	lsls	r2, r2, #21
10005ea6:	d5bb      	bpl.n	10005e20 <_vsnprintf+0x73c>
10005ea8:	9b0b      	ldr	r3, [sp, #44]	; 0x2c
10005eaa:	9306      	str	r3, [sp, #24]
10005eac:	4643      	mov	r3, r8
10005eae:	9305      	str	r3, [sp, #20]
10005eb0:	9b0a      	ldr	r3, [sp, #40]	; 0x28
10005eb2:	9304      	str	r3, [sp, #16]
10005eb4:	9b0d      	ldr	r3, [sp, #52]	; 0x34
10005eb6:	9303      	str	r3, [sp, #12]
10005eb8:	9b13      	ldr	r3, [sp, #76]	; 0x4c
10005eba:	9302      	str	r3, [sp, #8]
10005ebc:	ab18      	add	r3, sp, #96	; 0x60
10005ebe:	003a      	movs	r2, r7
10005ec0:	9401      	str	r4, [sp, #4]
10005ec2:	9300      	str	r3, [sp, #0]
10005ec4:	0031      	movs	r1, r6
10005ec6:	4653      	mov	r3, sl
10005ec8:	4648      	mov	r0, r9
10005eca:	f7fe ff07 	bl	10004cdc <_ntoa_format>
10005ece:	1c6c      	adds	r4, r5, #1
10005ed0:	0007      	movs	r7, r0
10005ed2:	e42c      	b.n	1000572e <_vsnprintf+0x4a>
10005ed4:	0013      	movs	r3, r2
10005ed6:	061b      	lsls	r3, r3, #24
10005ed8:	d400      	bmi.n	10005edc <_vsnprintf+0x7f8>
10005eda:	e158      	b.n	1000618e <_vsnprintf+0xaaa>
10005edc:	9b09      	ldr	r3, [sp, #36]	; 0x24
10005ede:	cb04      	ldmia	r3!, {r2}
10005ee0:	0412      	lsls	r2, r2, #16
10005ee2:	0c12      	lsrs	r2, r2, #16
10005ee4:	4693      	mov	fp, r2
10005ee6:	9309      	str	r3, [sp, #36]	; 0x24
10005ee8:	e66e      	b.n	10005bc8 <_vsnprintf+0x4e4>
10005eea:	9a0b      	ldr	r2, [sp, #44]	; 0x2c
10005eec:	2361      	movs	r3, #97	; 0x61
10005eee:	0692      	lsls	r2, r2, #26
10005ef0:	d500      	bpl.n	10005ef4 <_vsnprintf+0x810>
10005ef2:	2341      	movs	r3, #65	; 0x41
10005ef4:	a910      	add	r1, sp, #64	; 0x40
10005ef6:	221f      	movs	r2, #31
10005ef8:	468c      	mov	ip, r1
10005efa:	b2db      	uxtb	r3, r3
10005efc:	4462      	add	r2, ip
10005efe:	3b0a      	subs	r3, #10
10005f00:	9713      	str	r7, [sp, #76]	; 0x4c
10005f02:	9614      	str	r6, [sp, #80]	; 0x50
10005f04:	465f      	mov	r7, fp
10005f06:	0016      	movs	r6, r2
10005f08:	46ab      	mov	fp, r5
10005f0a:	9312      	str	r3, [sp, #72]	; 0x48
10005f0c:	9d0d      	ldr	r5, [sp, #52]	; 0x34
10005f0e:	e008      	b.n	10005f22 <_vsnprintf+0x83e>
10005f10:	3330      	adds	r3, #48	; 0x30
10005f12:	b2db      	uxtb	r3, r3
10005f14:	3401      	adds	r4, #1
10005f16:	5533      	strb	r3, [r6, r4]
10005f18:	42af      	cmp	r7, r5
10005f1a:	d31d      	bcc.n	10005f58 <_vsnprintf+0x874>
10005f1c:	2c20      	cmp	r4, #32
10005f1e:	d01b      	beq.n	10005f58 <_vsnprintf+0x874>
10005f20:	0007      	movs	r7, r0
10005f22:	0029      	movs	r1, r5
10005f24:	0038      	movs	r0, r7
10005f26:	f000 f999 	bl	1000625c <__wrap___aeabi_uidiv>
10005f2a:	b2cb      	uxtb	r3, r1
10005f2c:	2909      	cmp	r1, #9
10005f2e:	d9ef      	bls.n	10005f10 <_vsnprintf+0x82c>
10005f30:	9a12      	ldr	r2, [sp, #72]	; 0x48
10005f32:	4694      	mov	ip, r2
10005f34:	4463      	add	r3, ip
10005f36:	b2db      	uxtb	r3, r3
10005f38:	e7ec      	b.n	10005f14 <_vsnprintf+0x830>
10005f3a:	465b      	mov	r3, fp
10005f3c:	0027      	movs	r7, r4
10005f3e:	9309      	str	r3, [sp, #36]	; 0x24
10005f40:	1c6c      	adds	r4, r5, #1
10005f42:	f7ff fbf4 	bl	1000572e <_vsnprintf+0x4a>
10005f46:	9b15      	ldr	r3, [sp, #84]	; 0x54
10005f48:	4645      	mov	r5, r8
10005f4a:	465e      	mov	r6, fp
10005f4c:	4698      	mov	r8, r3
10005f4e:	9f14      	ldr	r7, [sp, #80]	; 0x50
10005f50:	e7aa      	b.n	10005ea8 <_vsnprintf+0x7c4>
10005f52:	2302      	movs	r3, #2
10005f54:	930d      	str	r3, [sp, #52]	; 0x34
10005f56:	e655      	b.n	10005c04 <_vsnprintf+0x520>
10005f58:	465d      	mov	r5, fp
10005f5a:	9f13      	ldr	r7, [sp, #76]	; 0x4c
10005f5c:	9e14      	ldr	r6, [sp, #80]	; 0x50
10005f5e:	e640      	b.n	10005be2 <_vsnprintf+0x4fe>
10005f60:	2207      	movs	r2, #7
10005f62:	9b09      	ldr	r3, [sp, #36]	; 0x24
10005f64:	3307      	adds	r3, #7
10005f66:	4393      	bics	r3, r2
10005f68:	3201      	adds	r2, #1
10005f6a:	4694      	mov	ip, r2
10005f6c:	449c      	add	ip, r3
10005f6e:	4662      	mov	r2, ip
10005f70:	9209      	str	r2, [sp, #36]	; 0x24
10005f72:	681a      	ldr	r2, [r3, #0]
10005f74:	685b      	ldr	r3, [r3, #4]
10005f76:	0010      	movs	r0, r2
10005f78:	469b      	mov	fp, r3
10005f7a:	0013      	movs	r3, r2
10005f7c:	465a      	mov	r2, fp
10005f7e:	4313      	orrs	r3, r2
10005f80:	d107      	bne.n	10005f92 <_vsnprintf+0x8ae>
10005f82:	9a0b      	ldr	r2, [sp, #44]	; 0x2c
10005f84:	3310      	adds	r3, #16
10005f86:	0011      	movs	r1, r2
10005f88:	4399      	bics	r1, r3
10005f8a:	910b      	str	r1, [sp, #44]	; 0x2c
10005f8c:	0552      	lsls	r2, r2, #21
10005f8e:	d500      	bpl.n	10005f92 <_vsnprintf+0x8ae>
10005f90:	e626      	b.n	10005be0 <_vsnprintf+0x4fc>
10005f92:	9a0b      	ldr	r2, [sp, #44]	; 0x2c
10005f94:	2361      	movs	r3, #97	; 0x61
10005f96:	0692      	lsls	r2, r2, #26
10005f98:	d500      	bpl.n	10005f9c <_vsnprintf+0x8b8>
10005f9a:	2341      	movs	r3, #65	; 0x41
10005f9c:	b2db      	uxtb	r3, r3
10005f9e:	a910      	add	r1, sp, #64	; 0x40
10005fa0:	3b0a      	subs	r3, #10
10005fa2:	221f      	movs	r2, #31
10005fa4:	468c      	mov	ip, r1
10005fa6:	9312      	str	r3, [sp, #72]	; 0x48
10005fa8:	4643      	mov	r3, r8
10005faa:	4462      	add	r2, ip
10005fac:	9713      	str	r7, [sp, #76]	; 0x4c
10005fae:	9515      	str	r5, [sp, #84]	; 0x54
10005fb0:	2400      	movs	r4, #0
10005fb2:	465d      	mov	r5, fp
10005fb4:	0007      	movs	r7, r0
10005fb6:	46b3      	mov	fp, r6
10005fb8:	4690      	mov	r8, r2
10005fba:	9e0d      	ldr	r6, [sp, #52]	; 0x34
10005fbc:	9314      	str	r3, [sp, #80]	; 0x50
10005fbe:	e00d      	b.n	10005fdc <_vsnprintf+0x8f8>
10005fc0:	3230      	adds	r2, #48	; 0x30
10005fc2:	b2d2      	uxtb	r2, r2
10005fc4:	4643      	mov	r3, r8
10005fc6:	3401      	adds	r4, #1
10005fc8:	551a      	strb	r2, [r3, r4]
10005fca:	2300      	movs	r3, #0
10005fcc:	42ab      	cmp	r3, r5
10005fce:	d100      	bne.n	10005fd2 <_vsnprintf+0x8ee>
10005fd0:	e0d4      	b.n	1000617c <_vsnprintf+0xa98>
10005fd2:	2c20      	cmp	r4, #32
10005fd4:	d100      	bne.n	10005fd8 <_vsnprintf+0x8f4>
10005fd6:	e0d4      	b.n	10006182 <_vsnprintf+0xa9e>
10005fd8:	0007      	movs	r7, r0
10005fda:	000d      	movs	r5, r1
10005fdc:	0032      	movs	r2, r6
10005fde:	2300      	movs	r3, #0
10005fe0:	0038      	movs	r0, r7
10005fe2:	0029      	movs	r1, r5
10005fe4:	f000 f97c 	bl	100062e0 <__wrap___aeabi_uldivmod>
10005fe8:	b2d2      	uxtb	r2, r2
10005fea:	2a09      	cmp	r2, #9
10005fec:	d9e8      	bls.n	10005fc0 <_vsnprintf+0x8dc>
10005fee:	9b12      	ldr	r3, [sp, #72]	; 0x48
10005ff0:	469c      	mov	ip, r3
10005ff2:	4462      	add	r2, ip
10005ff4:	b2d2      	uxtb	r2, r2
10005ff6:	e7e5      	b.n	10005fc4 <_vsnprintf+0x8e0>
10005ff8:	9b09      	ldr	r3, [sp, #36]	; 0x24
10005ffa:	001a      	movs	r2, r3
10005ffc:	ca08      	ldmia	r2!, {r3}
10005ffe:	9215      	str	r2, [sp, #84]	; 0x54
10006000:	17da      	asrs	r2, r3, #31
10006002:	189c      	adds	r4, r3, r2
10006004:	4054      	eors	r4, r2
10006006:	0fda      	lsrs	r2, r3, #31
10006008:	9214      	str	r2, [sp, #80]	; 0x50
1000600a:	2b00      	cmp	r3, #0
1000600c:	d108      	bne.n	10006020 <_vsnprintf+0x93c>
1000600e:	2380      	movs	r3, #128	; 0x80
10006010:	2210      	movs	r2, #16
10006012:	990b      	ldr	r1, [sp, #44]	; 0x2c
10006014:	00db      	lsls	r3, r3, #3
10006016:	400b      	ands	r3, r1
10006018:	4391      	bics	r1, r2
1000601a:	910b      	str	r1, [sp, #44]	; 0x2c
1000601c:	2b00      	cmp	r3, #0
1000601e:	d12b      	bne.n	10006078 <_vsnprintf+0x994>
10006020:	9a0b      	ldr	r2, [sp, #44]	; 0x2c
10006022:	2361      	movs	r3, #97	; 0x61
10006024:	0692      	lsls	r2, r2, #26
10006026:	d500      	bpl.n	1000602a <_vsnprintf+0x946>
10006028:	2341      	movs	r3, #65	; 0x41
1000602a:	a910      	add	r1, sp, #64	; 0x40
1000602c:	221f      	movs	r2, #31
1000602e:	468c      	mov	ip, r1
10006030:	b2db      	uxtb	r3, r3
10006032:	4462      	add	r2, ip
10006034:	3b0a      	subs	r3, #10
10006036:	9712      	str	r7, [sp, #72]	; 0x48
10006038:	9613      	str	r6, [sp, #76]	; 0x4c
1000603a:	465f      	mov	r7, fp
1000603c:	0016      	movs	r6, r2
1000603e:	46ab      	mov	fp, r5
10006040:	9309      	str	r3, [sp, #36]	; 0x24
10006042:	9d0d      	ldr	r5, [sp, #52]	; 0x34
10006044:	e008      	b.n	10006058 <_vsnprintf+0x974>
10006046:	3330      	adds	r3, #48	; 0x30
10006048:	b2db      	uxtb	r3, r3
1000604a:	3701      	adds	r7, #1
1000604c:	55f3      	strb	r3, [r6, r7]
1000604e:	42ac      	cmp	r4, r5
10006050:	d30e      	bcc.n	10006070 <_vsnprintf+0x98c>
10006052:	2f20      	cmp	r7, #32
10006054:	d00c      	beq.n	10006070 <_vsnprintf+0x98c>
10006056:	0004      	movs	r4, r0
10006058:	0029      	movs	r1, r5
1000605a:	0020      	movs	r0, r4
1000605c:	f000 f8fe 	bl	1000625c <__wrap___aeabi_uidiv>
10006060:	b2cb      	uxtb	r3, r1
10006062:	2909      	cmp	r1, #9
10006064:	d9ef      	bls.n	10006046 <_vsnprintf+0x962>
10006066:	9a09      	ldr	r2, [sp, #36]	; 0x24
10006068:	4694      	mov	ip, r2
1000606a:	4463      	add	r3, ip
1000606c:	b2db      	uxtb	r3, r3
1000606e:	e7ec      	b.n	1000604a <_vsnprintf+0x966>
10006070:	465d      	mov	r5, fp
10006072:	9e13      	ldr	r6, [sp, #76]	; 0x4c
10006074:	46bb      	mov	fp, r7
10006076:	9f12      	ldr	r7, [sp, #72]	; 0x48
10006078:	9b0b      	ldr	r3, [sp, #44]	; 0x2c
1000607a:	003a      	movs	r2, r7
1000607c:	9306      	str	r3, [sp, #24]
1000607e:	4643      	mov	r3, r8
10006080:	9305      	str	r3, [sp, #20]
10006082:	9b0a      	ldr	r3, [sp, #40]	; 0x28
10006084:	0031      	movs	r1, r6
10006086:	9304      	str	r3, [sp, #16]
10006088:	9b0d      	ldr	r3, [sp, #52]	; 0x34
1000608a:	4648      	mov	r0, r9
1000608c:	9303      	str	r3, [sp, #12]
1000608e:	9b14      	ldr	r3, [sp, #80]	; 0x50
10006090:	1c6c      	adds	r4, r5, #1
10006092:	9302      	str	r3, [sp, #8]
10006094:	465b      	mov	r3, fp
10006096:	9301      	str	r3, [sp, #4]
10006098:	ab18      	add	r3, sp, #96	; 0x60
1000609a:	9300      	str	r3, [sp, #0]
1000609c:	4653      	mov	r3, sl
1000609e:	f7fe fe1d 	bl	10004cdc <_ntoa_format>
100060a2:	9b15      	ldr	r3, [sp, #84]	; 0x54
100060a4:	0007      	movs	r7, r0
100060a6:	9309      	str	r3, [sp, #36]	; 0x24
100060a8:	f7ff fb41 	bl	1000572e <_vsnprintf+0x4a>
100060ac:	9b09      	ldr	r3, [sp, #36]	; 0x24
100060ae:	cb10      	ldmia	r3!, {r4}
100060b0:	9314      	str	r3, [sp, #80]	; 0x50
100060b2:	2c00      	cmp	r4, #0
100060b4:	d108      	bne.n	100060c8 <_vsnprintf+0x9e4>
100060b6:	2380      	movs	r3, #128	; 0x80
100060b8:	00db      	lsls	r3, r3, #3
100060ba:	0011      	movs	r1, r2
100060bc:	4013      	ands	r3, r2
100060be:	2210      	movs	r2, #16
100060c0:	4391      	bics	r1, r2
100060c2:	910b      	str	r1, [sp, #44]	; 0x2c
100060c4:	2b00      	cmp	r3, #0
100060c6:	d12b      	bne.n	10006120 <_vsnprintf+0xa3c>
100060c8:	9a0b      	ldr	r2, [sp, #44]	; 0x2c
100060ca:	2361      	movs	r3, #97	; 0x61
100060cc:	0692      	lsls	r2, r2, #26
100060ce:	d500      	bpl.n	100060d2 <_vsnprintf+0x9ee>
100060d0:	2341      	movs	r3, #65	; 0x41
100060d2:	a910      	add	r1, sp, #64	; 0x40
100060d4:	221f      	movs	r2, #31
100060d6:	468c      	mov	ip, r1
100060d8:	b2db      	uxtb	r3, r3
100060da:	4462      	add	r2, ip
100060dc:	3b0a      	subs	r3, #10
100060de:	9712      	str	r7, [sp, #72]	; 0x48
100060e0:	9613      	str	r6, [sp, #76]	; 0x4c
100060e2:	465f      	mov	r7, fp
100060e4:	0016      	movs	r6, r2
100060e6:	46ab      	mov	fp, r5
100060e8:	9309      	str	r3, [sp, #36]	; 0x24
100060ea:	9d0d      	ldr	r5, [sp, #52]	; 0x34
100060ec:	e008      	b.n	10006100 <_vsnprintf+0xa1c>
100060ee:	3330      	adds	r3, #48	; 0x30
100060f0:	b2db      	uxtb	r3, r3
100060f2:	3701      	adds	r7, #1
100060f4:	55f3      	strb	r3, [r6, r7]
100060f6:	42ac      	cmp	r4, r5
100060f8:	d30e      	bcc.n	10006118 <_vsnprintf+0xa34>
100060fa:	2f20      	cmp	r7, #32
100060fc:	d00c      	beq.n	10006118 <_vsnprintf+0xa34>
100060fe:	0004      	movs	r4, r0
10006100:	0029      	movs	r1, r5
10006102:	0020      	movs	r0, r4
10006104:	f000 f8aa 	bl	1000625c <__wrap___aeabi_uidiv>
10006108:	b2cb      	uxtb	r3, r1
1000610a:	2909      	cmp	r1, #9
1000610c:	d9ef      	bls.n	100060ee <_vsnprintf+0xa0a>
1000610e:	9a09      	ldr	r2, [sp, #36]	; 0x24
10006110:	4694      	mov	ip, r2
10006112:	4463      	add	r3, ip
10006114:	b2db      	uxtb	r3, r3
10006116:	e7ec      	b.n	100060f2 <_vsnprintf+0xa0e>
10006118:	465d      	mov	r5, fp
1000611a:	9e13      	ldr	r6, [sp, #76]	; 0x4c
1000611c:	46bb      	mov	fp, r7
1000611e:	9f12      	ldr	r7, [sp, #72]	; 0x48
10006120:	9b0b      	ldr	r3, [sp, #44]	; 0x2c
10006122:	003a      	movs	r2, r7
10006124:	9306      	str	r3, [sp, #24]
10006126:	4643      	mov	r3, r8
10006128:	9305      	str	r3, [sp, #20]
1000612a:	9b0a      	ldr	r3, [sp, #40]	; 0x28
1000612c:	0031      	movs	r1, r6
1000612e:	9304      	str	r3, [sp, #16]
10006130:	9b0d      	ldr	r3, [sp, #52]	; 0x34
10006132:	4648      	mov	r0, r9
10006134:	9303      	str	r3, [sp, #12]
10006136:	2300      	movs	r3, #0
10006138:	9302      	str	r3, [sp, #8]
1000613a:	465b      	mov	r3, fp
1000613c:	9301      	str	r3, [sp, #4]
1000613e:	ab18      	add	r3, sp, #96	; 0x60
10006140:	9300      	str	r3, [sp, #0]
10006142:	4653      	mov	r3, sl
10006144:	f7fe fdca 	bl	10004cdc <_ntoa_format>
10006148:	9b14      	ldr	r3, [sp, #80]	; 0x50
1000614a:	0007      	movs	r7, r0
1000614c:	9309      	str	r3, [sp, #36]	; 0x24
1000614e:	1c6c      	adds	r4, r5, #1
10006150:	f7ff faed 	bl	1000572e <_vsnprintf+0x4a>
10006154:	42a6      	cmp	r6, r4
10006156:	d800      	bhi.n	1000615a <_vsnprintf+0xa76>
10006158:	e684      	b.n	10005e64 <_vsnprintf+0x780>
1000615a:	9b15      	ldr	r3, [sp, #84]	; 0x54
1000615c:	940e      	str	r4, [sp, #56]	; 0x38
1000615e:	950f      	str	r5, [sp, #60]	; 0x3c
10006160:	4698      	mov	r8, r3
10006162:	9b17      	ldr	r3, [sp, #92]	; 0x5c
10006164:	003c      	movs	r4, r7
10006166:	464e      	mov	r6, r9
10006168:	9d16      	ldr	r5, [sp, #88]	; 0x58
1000616a:	4699      	mov	r9, r3
1000616c:	9f14      	ldr	r7, [sp, #80]	; 0x50
1000616e:	e69b      	b.n	10005ea8 <_vsnprintf+0x7c4>
10006170:	c908      	ldmia	r1!, {r3}
10006172:	17d8      	asrs	r0, r3, #31
10006174:	181a      	adds	r2, r3, r0
10006176:	4042      	eors	r2, r0
10006178:	9109      	str	r1, [sp, #36]	; 0x24
1000617a:	e56a      	b.n	10005c52 <_vsnprintf+0x56e>
1000617c:	42be      	cmp	r6, r7
1000617e:	d800      	bhi.n	10006182 <_vsnprintf+0xa9e>
10006180:	e727      	b.n	10005fd2 <_vsnprintf+0x8ee>
10006182:	9b14      	ldr	r3, [sp, #80]	; 0x50
10006184:	465e      	mov	r6, fp
10006186:	4698      	mov	r8, r3
10006188:	9f13      	ldr	r7, [sp, #76]	; 0x4c
1000618a:	9d15      	ldr	r5, [sp, #84]	; 0x54
1000618c:	e529      	b.n	10005be2 <_vsnprintf+0x4fe>
1000618e:	9b09      	ldr	r3, [sp, #36]	; 0x24
10006190:	cb04      	ldmia	r3!, {r2}
10006192:	4693      	mov	fp, r2
10006194:	9309      	str	r3, [sp, #36]	; 0x24
10006196:	e517      	b.n	10005bc8 <_vsnprintf+0x4e4>
10006198:	003c      	movs	r4, r7
1000619a:	e608      	b.n	10005dae <_vsnprintf+0x6ca>
1000619c:	930b      	str	r3, [sp, #44]	; 0x2c
1000619e:	e5f0      	b.n	10005d82 <_vsnprintf+0x69e>

100061a0 <vfctprintf>:
100061a0:	b500      	push	{lr}
100061a2:	b085      	sub	sp, #20
100061a4:	9103      	str	r1, [sp, #12]
100061a6:	2101      	movs	r1, #1
100061a8:	9002      	str	r0, [sp, #8]
100061aa:	9300      	str	r3, [sp, #0]
100061ac:	4803      	ldr	r0, [pc, #12]	; (100061bc <vfctprintf+0x1c>)
100061ae:	0013      	movs	r3, r2
100061b0:	424a      	negs	r2, r1
100061b2:	a902      	add	r1, sp, #8
100061b4:	f7ff fa96 	bl	100056e4 <_vsnprintf>
100061b8:	b005      	add	sp, #20
100061ba:	bd00      	pop	{pc}
100061bc:	10004eb9 	.word	0x10004eb9

100061c0 <weak_raw_vprintf>:
100061c0:	b510      	push	{r4, lr}
100061c2:	4a09      	ldr	r2, [pc, #36]	; (100061e8 <weak_raw_vprintf+0x28>)
100061c4:	0003      	movs	r3, r0
100061c6:	6814      	ldr	r4, [r2, #0]
100061c8:	b084      	sub	sp, #16
100061ca:	2c00      	cmp	r4, #0
100061cc:	d008      	beq.n	100061e0 <weak_raw_vprintf+0x20>
100061ce:	2201      	movs	r2, #1
100061d0:	9100      	str	r1, [sp, #0]
100061d2:	4806      	ldr	r0, [pc, #24]	; (100061ec <weak_raw_vprintf+0x2c>)
100061d4:	4252      	negs	r2, r2
100061d6:	a903      	add	r1, sp, #12
100061d8:	47a0      	blx	r4
100061da:	2001      	movs	r0, #1
100061dc:	b004      	add	sp, #16
100061de:	bd10      	pop	{r4, pc}
100061e0:	f000 fd80 	bl	10006ce4 <__wrap_puts>
100061e4:	2000      	movs	r0, #0
100061e6:	e7f9      	b.n	100061dc <weak_raw_vprintf+0x1c>
100061e8:	200012e8 	.word	0x200012e8
100061ec:	10004ea9 	.word	0x10004ea9

100061f0 <__aeabi_bits_init>:
100061f0:	4801      	ldr	r0, [pc, #4]	; (100061f8 <__aeabi_bits_init+0x8>)
100061f2:	2104      	movs	r1, #4
100061f4:	4b01      	ldr	r3, [pc, #4]	; (100061fc <__aeabi_bits_init+0xc>)
100061f6:	4718      	bx	r3
100061f8:	20000460 	.word	0x20000460
100061fc:	100006c1 	.word	0x100006c1

10006200 <__wrap___ctzsi2>:
10006200:	4b01      	ldr	r3, [pc, #4]	; (10006208 <__wrap___ctzsi2+0x8>)
10006202:	689b      	ldr	r3, [r3, #8]
10006204:	4718      	bx	r3
10006206:	0000      	.short	0x0000
10006208:	20000460 	.word	0x20000460

1000620c <__wrap___aeabi_idiv>:
1000620c:	4a12      	ldr	r2, [pc, #72]	; (10006258 <divmod_s32s32_savestate+0x18>)
1000620e:	6f93      	ldr	r3, [r2, #120]	; 0x78
10006210:	089b      	lsrs	r3, r3, #2
10006212:	d215      	bcs.n	10006240 <divmod_s32s32_savestate>

10006214 <divmod_s32s32_unsafe>:
10006214:	6690      	str	r0, [r2, #104]	; 0x68
10006216:	66d1      	str	r1, [r2, #108]	; 0x6c
10006218:	2900      	cmp	r1, #0
1000621a:	d005      	beq.n	10006228 <divmod_s32s32_unsafe+0x14>
1000621c:	e7ff      	b.n	1000621e <divmod_s32s32_unsafe+0xa>
1000621e:	e7ff      	b.n	10006220 <divmod_s32s32_unsafe+0xc>
10006220:	e7ff      	b.n	10006222 <divmod_s32s32_unsafe+0xe>
10006222:	6f51      	ldr	r1, [r2, #116]	; 0x74
10006224:	6f10      	ldr	r0, [r2, #112]	; 0x70
10006226:	4770      	bx	lr
10006228:	b504      	push	{r2, lr}
1000622a:	2180      	movs	r1, #128	; 0x80
1000622c:	0609      	lsls	r1, r1, #24
1000622e:	17c2      	asrs	r2, r0, #31
10006230:	4051      	eors	r1, r2
10006232:	2800      	cmp	r0, #0
10006234:	d000      	beq.n	10006238 <divmod_s32s32_unsafe+0x24>
10006236:	43c8      	mvns	r0, r1
10006238:	f003 fb6a 	bl	10009910 <____aeabi_idiv0_veneer>
1000623c:	2100      	movs	r1, #0
1000623e:	bd04      	pop	{r2, pc}

10006240 <divmod_s32s32_savestate>:
10006240:	b5f0      	push	{r4, r5, r6, r7, lr}
10006242:	6e14      	ldr	r4, [r2, #96]	; 0x60
10006244:	6e55      	ldr	r5, [r2, #100]	; 0x64
10006246:	6f57      	ldr	r7, [r2, #116]	; 0x74
10006248:	6f16      	ldr	r6, [r2, #112]	; 0x70
1000624a:	f7ff ffe3 	bl	10006214 <divmod_s32s32_unsafe>
1000624e:	6614      	str	r4, [r2, #96]	; 0x60
10006250:	6655      	str	r5, [r2, #100]	; 0x64
10006252:	6757      	str	r7, [r2, #116]	; 0x74
10006254:	6716      	str	r6, [r2, #112]	; 0x70
10006256:	bdf0      	pop	{r4, r5, r6, r7, pc}
10006258:	d0000000 	.word	0xd0000000

1000625c <__wrap___aeabi_uidiv>:
1000625c:	4a11      	ldr	r2, [pc, #68]	; (100062a4 <divmod_u32u32_savestate+0x18>)
1000625e:	6f93      	ldr	r3, [r2, #120]	; 0x78
10006260:	089b      	lsrs	r3, r3, #2
10006262:	d213      	bcs.n	1000628c <divmod_u32u32_savestate>

10006264 <divmod_u32u32_unsafe>:
10006264:	6610      	str	r0, [r2, #96]	; 0x60
10006266:	6651      	str	r1, [r2, #100]	; 0x64
10006268:	2900      	cmp	r1, #0
1000626a:	d005      	beq.n	10006278 <divmod_u32u32_unsafe+0x14>
1000626c:	e7ff      	b.n	1000626e <divmod_u32u32_unsafe+0xa>
1000626e:	e7ff      	b.n	10006270 <divmod_u32u32_unsafe+0xc>
10006270:	e7ff      	b.n	10006272 <divmod_u32u32_unsafe+0xe>
10006272:	6f51      	ldr	r1, [r2, #116]	; 0x74
10006274:	6f10      	ldr	r0, [r2, #112]	; 0x70
10006276:	4770      	bx	lr
10006278:	b504      	push	{r2, lr}
1000627a:	2800      	cmp	r0, #0
1000627c:	d001      	beq.n	10006282 <divmod_u32u32_unsafe+0x1e>
1000627e:	2000      	movs	r0, #0
10006280:	43c0      	mvns	r0, r0
10006282:	f003 fb45 	bl	10009910 <____aeabi_idiv0_veneer>
10006286:	2100      	movs	r1, #0
10006288:	bd04      	pop	{r2, pc}
1000628a:	46c0      	nop			; (mov r8, r8)

1000628c <divmod_u32u32_savestate>:
1000628c:	b5f0      	push	{r4, r5, r6, r7, lr}
1000628e:	6e14      	ldr	r4, [r2, #96]	; 0x60
10006290:	6e55      	ldr	r5, [r2, #100]	; 0x64
10006292:	6f57      	ldr	r7, [r2, #116]	; 0x74
10006294:	6f16      	ldr	r6, [r2, #112]	; 0x70
10006296:	f7ff ffe5 	bl	10006264 <divmod_u32u32_unsafe>
1000629a:	6614      	str	r4, [r2, #96]	; 0x60
1000629c:	6655      	str	r5, [r2, #100]	; 0x64
1000629e:	6757      	str	r7, [r2, #116]	; 0x74
100062a0:	6716      	str	r6, [r2, #112]	; 0x70
100062a2:	bdf0      	pop	{r4, r5, r6, r7, pc}
100062a4:	d0000000 	.word	0xd0000000

100062a8 <__wrap___aeabi_ldivmod>:
100062a8:	4694      	mov	ip, r2
100062aa:	4a4e      	ldr	r2, [pc, #312]	; (100063e4 <udiv0+0x1a>)
100062ac:	6f92      	ldr	r2, [r2, #120]	; 0x78
100062ae:	0892      	lsrs	r2, r2, #2
100062b0:	4662      	mov	r2, ip
100062b2:	d201      	bcs.n	100062b8 <divmod_s64s64_savestate>
100062b4:	e030      	b.n	10006318 <divmod_s64s64_unsafe>
100062b6:	46c0      	nop			; (mov r8, r8)

100062b8 <divmod_s64s64_savestate>:
100062b8:	b5f0      	push	{r4, r5, r6, r7, lr}
100062ba:	4e4a      	ldr	r6, [pc, #296]	; (100063e4 <udiv0+0x1a>)
100062bc:	6fb5      	ldr	r5, [r6, #120]	; 0x78
100062be:	086d      	lsrs	r5, r5, #1
100062c0:	d3fc      	bcc.n	100062bc <divmod_s64s64_savestate+0x4>
100062c2:	6e34      	ldr	r4, [r6, #96]	; 0x60
100062c4:	6e75      	ldr	r5, [r6, #100]	; 0x64
100062c6:	6f77      	ldr	r7, [r6, #116]	; 0x74
100062c8:	6f36      	ldr	r6, [r6, #112]	; 0x70
100062ca:	f000 f825 	bl	10006318 <divmod_s64s64_unsafe>
100062ce:	4694      	mov	ip, r2
100062d0:	4a44      	ldr	r2, [pc, #272]	; (100063e4 <udiv0+0x1a>)
100062d2:	6614      	str	r4, [r2, #96]	; 0x60
100062d4:	6655      	str	r5, [r2, #100]	; 0x64
100062d6:	6757      	str	r7, [r2, #116]	; 0x74
100062d8:	6716      	str	r6, [r2, #112]	; 0x70
100062da:	4662      	mov	r2, ip
100062dc:	bdf0      	pop	{r4, r5, r6, r7, pc}
100062de:	46c0      	nop			; (mov r8, r8)

100062e0 <__wrap___aeabi_uldivmod>:
100062e0:	4694      	mov	ip, r2
100062e2:	4a40      	ldr	r2, [pc, #256]	; (100063e4 <udiv0+0x1a>)
100062e4:	6f92      	ldr	r2, [r2, #120]	; 0x78
100062e6:	0892      	lsrs	r2, r2, #2
100062e8:	4662      	mov	r2, ip
100062ea:	d201      	bcs.n	100062f0 <divmod_u64u64_savestate>
100062ec:	e058      	b.n	100063a0 <divmod_u64u64_unsafe>
100062ee:	46c0      	nop			; (mov r8, r8)

100062f0 <divmod_u64u64_savestate>:
100062f0:	b5f0      	push	{r4, r5, r6, r7, lr}
100062f2:	4e3c      	ldr	r6, [pc, #240]	; (100063e4 <udiv0+0x1a>)
100062f4:	6fb5      	ldr	r5, [r6, #120]	; 0x78
100062f6:	086d      	lsrs	r5, r5, #1
100062f8:	d3fc      	bcc.n	100062f4 <divmod_u64u64_savestate+0x4>
100062fa:	6e34      	ldr	r4, [r6, #96]	; 0x60
100062fc:	6e75      	ldr	r5, [r6, #100]	; 0x64
100062fe:	6f77      	ldr	r7, [r6, #116]	; 0x74
10006300:	6f36      	ldr	r6, [r6, #112]	; 0x70
10006302:	f000 f84d 	bl	100063a0 <divmod_u64u64_unsafe>
10006306:	4694      	mov	ip, r2
10006308:	4a36      	ldr	r2, [pc, #216]	; (100063e4 <udiv0+0x1a>)
1000630a:	6614      	str	r4, [r2, #96]	; 0x60
1000630c:	6655      	str	r5, [r2, #100]	; 0x64
1000630e:	6757      	str	r7, [r2, #116]	; 0x74
10006310:	6716      	str	r6, [r2, #112]	; 0x70
10006312:	4662      	mov	r2, ip
10006314:	bdf0      	pop	{r4, r5, r6, r7, pc}
10006316:	46c0      	nop			; (mov r8, r8)

10006318 <divmod_s64s64_unsafe>:
10006318:	2b00      	cmp	r3, #0
1000631a:	db24      	blt.n	10006366 <l41_1+0x26>
1000631c:	d011      	beq.n	10006342 <l41_1+0x2>
1000631e:	2900      	cmp	r1, #0
10006320:	da3e      	bge.n	100063a0 <divmod_u64u64_unsafe>
10006322:	b500      	push	{lr}
10006324:	43c9      	mvns	r1, r1
10006326:	4240      	negs	r0, r0
10006328:	d100      	bne.n	1000632c <l39_1>
1000632a:	3101      	adds	r1, #1

1000632c <l39_1>:
1000632c:	f000 f838 	bl	100063a0 <divmod_u64u64_unsafe>
10006330:	43c9      	mvns	r1, r1
10006332:	4240      	negs	r0, r0
10006334:	d100      	bne.n	10006338 <l40_1>
10006336:	3101      	adds	r1, #1

10006338 <l40_1>:
10006338:	43db      	mvns	r3, r3
1000633a:	4252      	negs	r2, r2
1000633c:	d100      	bne.n	10006340 <l41_1>
1000633e:	3301      	adds	r3, #1

10006340 <l41_1>:
10006340:	bd00      	pop	{pc}
10006342:	2a00      	cmp	r2, #0
10006344:	d1eb      	bne.n	1000631e <divmod_s64s64_unsafe+0x6>
10006346:	2800      	cmp	r0, #0
10006348:	d101      	bne.n	1000634e <l41_1+0xe>
1000634a:	2900      	cmp	r1, #0
1000634c:	d005      	beq.n	1000635a <l41_1+0x1a>
1000634e:	2000      	movs	r0, #0
10006350:	0fc9      	lsrs	r1, r1, #31
10006352:	07c9      	lsls	r1, r1, #31
10006354:	d101      	bne.n	1000635a <l41_1+0x1a>
10006356:	43c0      	mvns	r0, r0
10006358:	0841      	lsrs	r1, r0, #1
1000635a:	b500      	push	{lr}
1000635c:	f003 fad0 	bl	10009900 <____aeabi_ldiv0_veneer>
10006360:	2200      	movs	r2, #0
10006362:	2300      	movs	r3, #0
10006364:	bd00      	pop	{pc}
10006366:	b500      	push	{lr}
10006368:	2900      	cmp	r1, #0
1000636a:	db0a      	blt.n	10006382 <l43_1+0x2>
1000636c:	43db      	mvns	r3, r3
1000636e:	4252      	negs	r2, r2
10006370:	d100      	bne.n	10006374 <l42_1>
10006372:	3301      	adds	r3, #1

10006374 <l42_1>:
10006374:	f000 f814 	bl	100063a0 <divmod_u64u64_unsafe>
10006378:	43c9      	mvns	r1, r1
1000637a:	4240      	negs	r0, r0
1000637c:	d100      	bne.n	10006380 <l43_1>
1000637e:	3101      	adds	r1, #1

10006380 <l43_1>:
10006380:	bd00      	pop	{pc}
10006382:	43c9      	mvns	r1, r1
10006384:	4240      	negs	r0, r0
10006386:	d100      	bne.n	1000638a <l44_1>
10006388:	3101      	adds	r1, #1

1000638a <l44_1>:
1000638a:	43db      	mvns	r3, r3
1000638c:	4252      	negs	r2, r2
1000638e:	d100      	bne.n	10006392 <l45_1>
10006390:	3301      	adds	r3, #1

10006392 <l45_1>:
10006392:	f000 f805 	bl	100063a0 <divmod_u64u64_unsafe>
10006396:	43db      	mvns	r3, r3
10006398:	4252      	negs	r2, r2
1000639a:	d100      	bne.n	1000639e <l46_1>
1000639c:	3301      	adds	r3, #1

1000639e <l46_1>:
1000639e:	bd00      	pop	{pc}

100063a0 <divmod_u64u64_unsafe>:
100063a0:	2900      	cmp	r1, #0
100063a2:	d123      	bne.n	100063ec <y64>
100063a4:	2b00      	cmp	r3, #0
100063a6:	d118      	bne.n	100063da <udiv0+0x10>
100063a8:	2a00      	cmp	r2, #0
100063aa:	d00c      	beq.n	100063c6 <divmod_u64u64_unsafe+0x26>
100063ac:	46bc      	mov	ip, r7
100063ae:	4f0d      	ldr	r7, [pc, #52]	; (100063e4 <udiv0+0x1a>)
100063b0:	6638      	str	r0, [r7, #96]	; 0x60
100063b2:	667a      	str	r2, [r7, #100]	; 0x64
100063b4:	2100      	movs	r1, #0
100063b6:	2300      	movs	r3, #0
100063b8:	e7ff      	b.n	100063ba <divmod_u64u64_unsafe+0x1a>
100063ba:	e7ff      	b.n	100063bc <divmod_u64u64_unsafe+0x1c>
100063bc:	e7ff      	b.n	100063be <divmod_u64u64_unsafe+0x1e>
100063be:	6f7a      	ldr	r2, [r7, #116]	; 0x74
100063c0:	6f38      	ldr	r0, [r7, #112]	; 0x70
100063c2:	4667      	mov	r7, ip
100063c4:	4770      	bx	lr
100063c6:	2800      	cmp	r0, #0
100063c8:	d001      	beq.n	100063ce <udiv0+0x4>

100063ca <udiv0>:
100063ca:	4807      	ldr	r0, [pc, #28]	; (100063e8 <udiv0+0x1e>)
100063cc:	0001      	movs	r1, r0
100063ce:	b500      	push	{lr}
100063d0:	f003 fa96 	bl	10009900 <____aeabi_ldiv0_veneer>
100063d4:	2200      	movs	r2, #0
100063d6:	2300      	movs	r3, #0
100063d8:	bd00      	pop	{pc}
100063da:	0002      	movs	r2, r0
100063dc:	000b      	movs	r3, r1
100063de:	2000      	movs	r0, #0
100063e0:	2100      	movs	r1, #0
100063e2:	4770      	bx	lr
100063e4:	d0000000 	.word	0xd0000000
100063e8:	ffffffff 	.word	0xffffffff

100063ec <y64>:
100063ec:	2b00      	cmp	r3, #0
100063ee:	d000      	beq.n	100063f2 <y64+0x6>
100063f0:	e0bf      	b.n	10006572 <y64_x48>
100063f2:	0c13      	lsrs	r3, r2, #16
100063f4:	d128      	bne.n	10006448 <y64_x32>
100063f6:	2a00      	cmp	r2, #0
100063f8:	d0e7      	beq.n	100063ca <udiv0>
100063fa:	b480      	push	{r7}
100063fc:	4f11      	ldr	r7, [pc, #68]	; (10006444 <y64+0x58>)
100063fe:	6639      	str	r1, [r7, #96]	; 0x60
10006400:	667a      	str	r2, [r7, #100]	; 0x64
10006402:	e7ff      	b.n	10006404 <y64+0x18>
10006404:	e7ff      	b.n	10006406 <y64+0x1a>
10006406:	b430      	push	{r4, r5}
10006408:	0c04      	lsrs	r4, r0, #16
1000640a:	6f7b      	ldr	r3, [r7, #116]	; 0x74
1000640c:	6f39      	ldr	r1, [r7, #112]	; 0x70
1000640e:	041b      	lsls	r3, r3, #16
10006410:	4323      	orrs	r3, r4
10006412:	663b      	str	r3, [r7, #96]	; 0x60
10006414:	667a      	str	r2, [r7, #100]	; 0x64
10006416:	e7ff      	b.n	10006418 <y64+0x2c>
10006418:	e7ff      	b.n	1000641a <y64+0x2e>
1000641a:	e7ff      	b.n	1000641c <y64+0x30>
1000641c:	46c0      	nop			; (mov r8, r8)
1000641e:	b284      	uxth	r4, r0
10006420:	6f7b      	ldr	r3, [r7, #116]	; 0x74
10006422:	6f3d      	ldr	r5, [r7, #112]	; 0x70
10006424:	041b      	lsls	r3, r3, #16
10006426:	4323      	orrs	r3, r4
10006428:	663b      	str	r3, [r7, #96]	; 0x60
1000642a:	667a      	str	r2, [r7, #100]	; 0x64
1000642c:	e7ff      	b.n	1000642e <y64+0x42>
1000642e:	e7ff      	b.n	10006430 <y64+0x44>
10006430:	46c0      	nop			; (mov r8, r8)
10006432:	2300      	movs	r3, #0
10006434:	042c      	lsls	r4, r5, #16
10006436:	0c2d      	lsrs	r5, r5, #16
10006438:	6f7a      	ldr	r2, [r7, #116]	; 0x74
1000643a:	6f38      	ldr	r0, [r7, #112]	; 0x70
1000643c:	1900      	adds	r0, r0, r4
1000643e:	4169      	adcs	r1, r5
10006440:	bcb0      	pop	{r4, r5, r7}
10006442:	4770      	bx	lr
10006444:	d0000000 	.word	0xd0000000

10006448 <y64_x32>:
10006448:	b5f0      	push	{r4, r5, r6, r7, lr}
1000644a:	4694      	mov	ip, r2
1000644c:	2500      	movs	r5, #0
1000644e:	0e14      	lsrs	r4, r2, #24
10006450:	d101      	bne.n	10006456 <y64_x32+0xe>
10006452:	0212      	lsls	r2, r2, #8
10006454:	3508      	adds	r5, #8
10006456:	0f14      	lsrs	r4, r2, #28
10006458:	d101      	bne.n	1000645e <y64_x32+0x16>
1000645a:	0112      	lsls	r2, r2, #4
1000645c:	3504      	adds	r5, #4
1000645e:	0f94      	lsrs	r4, r2, #30
10006460:	d101      	bne.n	10006466 <y64_x32+0x1e>
10006462:	0092      	lsls	r2, r2, #2
10006464:	3502      	adds	r5, #2
10006466:	0fd4      	lsrs	r4, r2, #31
10006468:	d101      	bne.n	1000646e <y64_x32+0x26>
1000646a:	0052      	lsls	r2, r2, #1
1000646c:	3501      	adds	r5, #1
1000646e:	0bd4      	lsrs	r4, r2, #15
10006470:	3401      	adds	r4, #1
10006472:	4f25      	ldr	r7, [pc, #148]	; (10006508 <y64_x32+0xc0>)
10006474:	667c      	str	r4, [r7, #100]	; 0x64
10006476:	4c25      	ldr	r4, [pc, #148]	; (1000650c <y64_x32+0xc4>)
10006478:	663c      	str	r4, [r7, #96]	; 0x60
1000647a:	0c0e      	lsrs	r6, r1, #16
1000647c:	b293      	uxth	r3, r2
1000647e:	e7ff      	b.n	10006480 <y64_x32+0x38>
10006480:	e7ff      	b.n	10006482 <y64_x32+0x3a>
10006482:	e7ff      	b.n	10006484 <y64_x32+0x3c>
10006484:	6f3c      	ldr	r4, [r7, #112]	; 0x70
10006486:	4366      	muls	r6, r4
10006488:	0c36      	lsrs	r6, r6, #16
1000648a:	0377      	lsls	r7, r6, #13
1000648c:	46be      	mov	lr, r7
1000648e:	4373      	muls	r3, r6
10006490:	0bdf      	lsrs	r7, r3, #15
10006492:	045b      	lsls	r3, r3, #17
10006494:	1ac0      	subs	r0, r0, r3
10006496:	41b9      	sbcs	r1, r7
10006498:	0c13      	lsrs	r3, r2, #16
1000649a:	4373      	muls	r3, r6
1000649c:	18db      	adds	r3, r3, r3
1000649e:	1ac9      	subs	r1, r1, r3
100064a0:	08ce      	lsrs	r6, r1, #3
100064a2:	4366      	muls	r6, r4
100064a4:	0c36      	lsrs	r6, r6, #16
100064a6:	44b6      	add	lr, r6
100064a8:	b293      	uxth	r3, r2
100064aa:	4373      	muls	r3, r6
100064ac:	0f1f      	lsrs	r7, r3, #28
100064ae:	011b      	lsls	r3, r3, #4
100064b0:	1ac0      	subs	r0, r0, r3
100064b2:	41b9      	sbcs	r1, r7
100064b4:	0c13      	lsrs	r3, r2, #16
100064b6:	4373      	muls	r3, r6
100064b8:	0b1f      	lsrs	r7, r3, #12
100064ba:	051b      	lsls	r3, r3, #20
100064bc:	1ac0      	subs	r0, r0, r3
100064be:	41b9      	sbcs	r1, r7
100064c0:	0d86      	lsrs	r6, r0, #22
100064c2:	028f      	lsls	r7, r1, #10
100064c4:	433e      	orrs	r6, r7
100064c6:	4366      	muls	r6, r4
100064c8:	0c36      	lsrs	r6, r6, #16
100064ca:	2d09      	cmp	r5, #9
100064cc:	db24      	blt.n	10006518 <last0>
100064ce:	0a52      	lsrs	r2, r2, #9
100064d0:	4372      	muls	r2, r6
100064d2:	1a80      	subs	r0, r0, r2
100064d4:	0377      	lsls	r7, r6, #13
100064d6:	0a46      	lsrs	r6, r0, #9
100064d8:	4366      	muls	r6, r4
100064da:	0c36      	lsrs	r6, r6, #16
100064dc:	2316      	movs	r3, #22
100064de:	1b5b      	subs	r3, r3, r5
100064e0:	40de      	lsrs	r6, r3
100064e2:	40df      	lsrs	r7, r3
100064e4:	19bf      	adds	r7, r7, r6
100064e6:	4664      	mov	r4, ip
100064e8:	4366      	muls	r6, r4
100064ea:	1b82      	subs	r2, r0, r6
100064ec:	4670      	mov	r0, lr
100064ee:	3504      	adds	r5, #4
100064f0:	3306      	adds	r3, #6
100064f2:	0001      	movs	r1, r0
100064f4:	40d9      	lsrs	r1, r3
100064f6:	40a8      	lsls	r0, r5
100064f8:	19c0      	adds	r0, r0, r7
100064fa:	d300      	bcc.n	100064fe <y64_x32+0xb6>
100064fc:	3101      	adds	r1, #1
100064fe:	42a2      	cmp	r2, r4
10006500:	d206      	bcs.n	10006510 <y64_x32+0xc8>
10006502:	2300      	movs	r3, #0
10006504:	bdf0      	pop	{r4, r5, r6, r7, pc}
10006506:	0000      	.short	0x0000
10006508:	d0000000 	.word	0xd0000000
1000650c:	ffffffff 	.word	0xffffffff
10006510:	1b12      	subs	r2, r2, r4
10006512:	3001      	adds	r0, #1
10006514:	d3f3      	bcc.n	100064fe <y64_x32+0xb6>
10006516:	e7f1      	b.n	100064fc <y64_x32+0xb4>

10006518 <last0>:
10006518:	2709      	movs	r7, #9
1000651a:	1b7f      	subs	r7, r7, r5
1000651c:	40fe      	lsrs	r6, r7
1000651e:	4664      	mov	r4, ip
10006520:	b2a2      	uxth	r2, r4
10006522:	4372      	muls	r2, r6
10006524:	1a80      	subs	r0, r0, r2
10006526:	d200      	bcs.n	1000652a <last0+0x12>
10006528:	3901      	subs	r1, #1
1000652a:	0c22      	lsrs	r2, r4, #16
1000652c:	4372      	muls	r2, r6
1000652e:	0c13      	lsrs	r3, r2, #16
10006530:	0412      	lsls	r2, r2, #16
10006532:	1a82      	subs	r2, r0, r2
10006534:	4199      	sbcs	r1, r3
10006536:	000b      	movs	r3, r1
10006538:	4670      	mov	r0, lr
1000653a:	3504      	adds	r5, #4
1000653c:	3713      	adds	r7, #19
1000653e:	0001      	movs	r1, r0
10006540:	40f9      	lsrs	r1, r7
10006542:	40a8      	lsls	r0, r5
10006544:	1980      	adds	r0, r0, r6
10006546:	d300      	bcc.n	1000654a <last0+0x32>
10006548:	3101      	adds	r1, #1
1000654a:	2b00      	cmp	r3, #0
1000654c:	d102      	bne.n	10006554 <last0+0x3c>
1000654e:	42a2      	cmp	r2, r4
10006550:	d20a      	bcs.n	10006568 <last0+0x50>
10006552:	bdf0      	pop	{r4, r5, r6, r7, pc}
10006554:	3001      	adds	r0, #1
10006556:	d300      	bcc.n	1000655a <last0+0x42>
10006558:	3101      	adds	r1, #1
1000655a:	1b12      	subs	r2, r2, r4
1000655c:	d2fa      	bcs.n	10006554 <last0+0x3c>
1000655e:	3b01      	subs	r3, #1
10006560:	d1f8      	bne.n	10006554 <last0+0x3c>
10006562:	42a2      	cmp	r2, r4
10006564:	d200      	bcs.n	10006568 <last0+0x50>
10006566:	bdf0      	pop	{r4, r5, r6, r7, pc}
10006568:	3001      	adds	r0, #1
1000656a:	d300      	bcc.n	1000656e <last0+0x56>
1000656c:	3101      	adds	r1, #1
1000656e:	1b12      	subs	r2, r2, r4
10006570:	e7f7      	b.n	10006562 <last0+0x4a>

10006572 <y64_x48>:
10006572:	b5f0      	push	{r4, r5, r6, r7, lr}
10006574:	0c1c      	lsrs	r4, r3, #16
10006576:	d000      	beq.n	1000657a <y64_x48+0x8>
10006578:	e080      	b.n	1000667c <y64_x64>
1000657a:	b40c      	push	{r2, r3}
1000657c:	2500      	movs	r5, #0
1000657e:	0a1c      	lsrs	r4, r3, #8
10006580:	d104      	bne.n	1000658c <y64_x48+0x1a>
10006582:	021b      	lsls	r3, r3, #8
10006584:	0e16      	lsrs	r6, r2, #24
10006586:	4333      	orrs	r3, r6
10006588:	0212      	lsls	r2, r2, #8
1000658a:	3508      	adds	r5, #8
1000658c:	0b1c      	lsrs	r4, r3, #12
1000658e:	d104      	bne.n	1000659a <y64_x48+0x28>
10006590:	011b      	lsls	r3, r3, #4
10006592:	0f16      	lsrs	r6, r2, #28
10006594:	4333      	orrs	r3, r6
10006596:	0112      	lsls	r2, r2, #4
10006598:	3504      	adds	r5, #4
1000659a:	0b9c      	lsrs	r4, r3, #14
1000659c:	d104      	bne.n	100065a8 <y64_x48+0x36>
1000659e:	009b      	lsls	r3, r3, #2
100065a0:	0f96      	lsrs	r6, r2, #30
100065a2:	4333      	orrs	r3, r6
100065a4:	0092      	lsls	r2, r2, #2
100065a6:	3502      	adds	r5, #2
100065a8:	0bdc      	lsrs	r4, r3, #15
100065aa:	d102      	bne.n	100065b2 <y64_x48+0x40>
100065ac:	1892      	adds	r2, r2, r2
100065ae:	415b      	adcs	r3, r3
100065b0:	3501      	adds	r5, #1
100065b2:	001c      	movs	r4, r3
100065b4:	1897      	adds	r7, r2, r2
100065b6:	4164      	adcs	r4, r4
100065b8:	3401      	adds	r4, #1
100065ba:	4f46      	ldr	r7, [pc, #280]	; (100066d4 <y64_x64+0x58>)
100065bc:	667c      	str	r4, [r7, #100]	; 0x64
100065be:	4c46      	ldr	r4, [pc, #280]	; (100066d8 <y64_x64+0x5c>)
100065c0:	663c      	str	r4, [r7, #96]	; 0x60
100065c2:	0c0e      	lsrs	r6, r1, #16
100065c4:	e7ff      	b.n	100065c6 <y64_x48+0x54>
100065c6:	e7ff      	b.n	100065c8 <y64_x48+0x56>
100065c8:	e7ff      	b.n	100065ca <y64_x48+0x58>
100065ca:	46c0      	nop			; (mov r8, r8)
100065cc:	6f3c      	ldr	r4, [r7, #112]	; 0x70
100065ce:	4366      	muls	r6, r4
100065d0:	0c36      	lsrs	r6, r6, #16
100065d2:	0377      	lsls	r7, r6, #13
100065d4:	46be      	mov	lr, r7
100065d6:	b297      	uxth	r7, r2
100065d8:	4377      	muls	r7, r6
100065da:	1bc0      	subs	r0, r0, r7
100065dc:	d200      	bcs.n	100065e0 <y64_x48+0x6e>
100065de:	3901      	subs	r1, #1
100065e0:	1bc0      	subs	r0, r0, r7
100065e2:	d200      	bcs.n	100065e6 <y64_x48+0x74>
100065e4:	3901      	subs	r1, #1
100065e6:	b29f      	uxth	r7, r3
100065e8:	4377      	muls	r7, r6
100065ea:	1bc9      	subs	r1, r1, r7
100065ec:	1bc9      	subs	r1, r1, r7
100065ee:	0c17      	lsrs	r7, r2, #16
100065f0:	4377      	muls	r7, r6
100065f2:	047e      	lsls	r6, r7, #17
100065f4:	0bff      	lsrs	r7, r7, #15
100065f6:	1b80      	subs	r0, r0, r6
100065f8:	41b9      	sbcs	r1, r7
100065fa:	08ce      	lsrs	r6, r1, #3
100065fc:	4366      	muls	r6, r4
100065fe:	0c36      	lsrs	r6, r6, #16
10006600:	2d0c      	cmp	r5, #12
10006602:	db33      	blt.n	1000666c <last1>
10006604:	44b6      	add	lr, r6
10006606:	0b12      	lsrs	r2, r2, #12
10006608:	051f      	lsls	r7, r3, #20
1000660a:	433a      	orrs	r2, r7
1000660c:	0b1b      	lsrs	r3, r3, #12
1000660e:	b297      	uxth	r7, r2
10006610:	4377      	muls	r7, r6
10006612:	1bc0      	subs	r0, r0, r7
10006614:	d200      	bcs.n	10006618 <y64_x48+0xa6>
10006616:	3901      	subs	r1, #1
10006618:	b29f      	uxth	r7, r3
1000661a:	4377      	muls	r7, r6
1000661c:	1bc9      	subs	r1, r1, r7
1000661e:	0c17      	lsrs	r7, r2, #16
10006620:	4377      	muls	r7, r6
10006622:	043e      	lsls	r6, r7, #16
10006624:	0c3f      	lsrs	r7, r7, #16
10006626:	1b80      	subs	r0, r0, r6
10006628:	41b9      	sbcs	r1, r7
1000662a:	0d86      	lsrs	r6, r0, #22
1000662c:	028f      	lsls	r7, r1, #10
1000662e:	433e      	orrs	r6, r7
10006630:	4366      	muls	r6, r4
10006632:	2729      	movs	r7, #41	; 0x29
10006634:	1b7f      	subs	r7, r7, r5
10006636:	40fe      	lsrs	r6, r7
10006638:	3d0c      	subs	r5, #12
1000663a:	4677      	mov	r7, lr
1000663c:	40af      	lsls	r7, r5
1000663e:	19bf      	adds	r7, r7, r6
10006640:	bc30      	pop	{r4, r5}
10006642:	b2a2      	uxth	r2, r4
10006644:	b2ab      	uxth	r3, r5
10006646:	4372      	muls	r2, r6
10006648:	4373      	muls	r3, r6
1000664a:	1a80      	subs	r0, r0, r2
1000664c:	4199      	sbcs	r1, r3
1000664e:	0c22      	lsrs	r2, r4, #16
10006650:	4372      	muls	r2, r6
10006652:	0c13      	lsrs	r3, r2, #16
10006654:	0412      	lsls	r2, r2, #16
10006656:	1a80      	subs	r0, r0, r2
10006658:	4199      	sbcs	r1, r3
1000665a:	0002      	movs	r2, r0
1000665c:	000b      	movs	r3, r1
1000665e:	3701      	adds	r7, #1
10006660:	1b00      	subs	r0, r0, r4
10006662:	41a9      	sbcs	r1, r5
10006664:	d2f9      	bcs.n	1000665a <y64_x48+0xe8>
10006666:	1e78      	subs	r0, r7, #1
10006668:	2100      	movs	r1, #0
1000666a:	bdf0      	pop	{r4, r5, r6, r7, pc}

1000666c <last1>:
1000666c:	270c      	movs	r7, #12
1000666e:	1b7f      	subs	r7, r7, r5
10006670:	40fe      	lsrs	r6, r7
10006672:	4677      	mov	r7, lr
10006674:	0b7f      	lsrs	r7, r7, #13
10006676:	40af      	lsls	r7, r5
10006678:	19ff      	adds	r7, r7, r7
1000667a:	e7e0      	b.n	1000663e <y64_x48+0xcc>

1000667c <y64_x64>:
1000667c:	2400      	movs	r4, #0
1000667e:	1c5d      	adds	r5, r3, #1
10006680:	d007      	beq.n	10006692 <y64_x64+0x16>
10006682:	4f14      	ldr	r7, [pc, #80]	; (100066d4 <y64_x64+0x58>)
10006684:	667d      	str	r5, [r7, #100]	; 0x64
10006686:	6639      	str	r1, [r7, #96]	; 0x60
10006688:	e7ff      	b.n	1000668a <y64_x64+0xe>
1000668a:	e7ff      	b.n	1000668c <y64_x64+0x10>
1000668c:	e7ff      	b.n	1000668e <y64_x64+0x12>
1000668e:	e7ff      	b.n	10006690 <y64_x64+0x14>
10006690:	6f3c      	ldr	r4, [r7, #112]	; 0x70
10006692:	b295      	uxth	r5, r2
10006694:	b29e      	uxth	r6, r3
10006696:	4365      	muls	r5, r4
10006698:	4366      	muls	r6, r4
1000669a:	1b40      	subs	r0, r0, r5
1000669c:	41b1      	sbcs	r1, r6
1000669e:	0c15      	lsrs	r5, r2, #16
100066a0:	0c1e      	lsrs	r6, r3, #16
100066a2:	4365      	muls	r5, r4
100066a4:	4366      	muls	r6, r4
100066a6:	0436      	lsls	r6, r6, #16
100066a8:	0c2f      	lsrs	r7, r5, #16
100066aa:	433e      	orrs	r6, r7
100066ac:	042d      	lsls	r5, r5, #16
100066ae:	1b40      	subs	r0, r0, r5
100066b0:	41b1      	sbcs	r1, r6
100066b2:	4299      	cmp	r1, r3
100066b4:	d204      	bcs.n	100066c0 <y64_x64+0x44>
100066b6:	0002      	movs	r2, r0
100066b8:	000b      	movs	r3, r1
100066ba:	0020      	movs	r0, r4
100066bc:	2100      	movs	r1, #0
100066be:	bdf0      	pop	{r4, r5, r6, r7, pc}
100066c0:	d101      	bne.n	100066c6 <y64_x64+0x4a>
100066c2:	4290      	cmp	r0, r2
100066c4:	d3f7      	bcc.n	100066b6 <y64_x64+0x3a>
100066c6:	1a80      	subs	r0, r0, r2
100066c8:	4199      	sbcs	r1, r3
100066ca:	3401      	adds	r4, #1
100066cc:	4299      	cmp	r1, r3
100066ce:	d3f2      	bcc.n	100066b6 <y64_x64+0x3a>
100066d0:	e7f6      	b.n	100066c0 <y64_x64+0x44>
100066d2:	0000      	.short	0x0000
100066d4:	d0000000 	.word	0xd0000000
100066d8:	ffffffff 	.word	0xffffffff

100066dc <__wrap___aeabi_drsub>:
100066dc:	4048      	eors	r0, r1
100066de:	4041      	eors	r1, r0
100066e0:	4048      	eors	r0, r1

100066e2 <__wrap___aeabi_dsub>:
100066e2:	b418      	push	{r3, r4}
100066e4:	4b13      	ldr	r3, [pc, #76]	; (10006734 <__wrap___aeabi_dmul+0xa>)
100066e6:	685b      	ldr	r3, [r3, #4]
100066e8:	9301      	str	r3, [sp, #4]
100066ea:	bd08      	pop	{r3, pc}

100066ec <__wrap___aeabi_dadd>:
100066ec:	b418      	push	{r3, r4}
100066ee:	4b11      	ldr	r3, [pc, #68]	; (10006734 <__wrap___aeabi_dmul+0xa>)
100066f0:	681b      	ldr	r3, [r3, #0]
100066f2:	9301      	str	r3, [sp, #4]
100066f4:	bd08      	pop	{r3, pc}

100066f6 <__wrap___aeabi_ddiv>:
100066f6:	4694      	mov	ip, r2
100066f8:	4a0f      	ldr	r2, [pc, #60]	; (10006738 <__wrap___aeabi_dmul+0xe>)
100066fa:	6f92      	ldr	r2, [r2, #120]	; 0x78
100066fc:	0892      	lsrs	r2, r2, #2
100066fe:	d205      	bcs.n	1000670c <ddiv_save_state>
10006700:	4662      	mov	r2, ip

10006702 <ddiv_shim_call>:
10006702:	b418      	push	{r3, r4}
10006704:	4b0b      	ldr	r3, [pc, #44]	; (10006734 <__wrap___aeabi_dmul+0xa>)
10006706:	68db      	ldr	r3, [r3, #12]
10006708:	9301      	str	r3, [sp, #4]
1000670a:	bd08      	pop	{r3, pc}

1000670c <ddiv_save_state>:
1000670c:	4a0a      	ldr	r2, [pc, #40]	; (10006738 <__wrap___aeabi_dmul+0xe>)
1000670e:	b5f0      	push	{r4, r5, r6, r7, lr}
10006710:	6e14      	ldr	r4, [r2, #96]	; 0x60
10006712:	6e55      	ldr	r5, [r2, #100]	; 0x64
10006714:	6f57      	ldr	r7, [r2, #116]	; 0x74
10006716:	6f16      	ldr	r6, [r2, #112]	; 0x70
10006718:	4662      	mov	r2, ip
1000671a:	f7ff fff2 	bl	10006702 <ddiv_shim_call>
1000671e:	4a06      	ldr	r2, [pc, #24]	; (10006738 <__wrap___aeabi_dmul+0xe>)
10006720:	6614      	str	r4, [r2, #96]	; 0x60
10006722:	6655      	str	r5, [r2, #100]	; 0x64
10006724:	6757      	str	r7, [r2, #116]	; 0x74
10006726:	6716      	str	r6, [r2, #112]	; 0x70
10006728:	bdf0      	pop	{r4, r5, r6, r7, pc}

1000672a <__wrap___aeabi_dmul>:
1000672a:	b418      	push	{r3, r4}
1000672c:	4b01      	ldr	r3, [pc, #4]	; (10006734 <__wrap___aeabi_dmul+0xa>)
1000672e:	689b      	ldr	r3, [r3, #8]
10006730:	9301      	str	r3, [sp, #4]
10006732:	bd08      	pop	{r3, pc}
10006734:	200005b8 	.word	0x200005b8
10006738:	d0000000 	.word	0xd0000000

1000673c <__wrap___aeabi_cdrcmple>:
1000673c:	b5ff      	push	{r0, r1, r2, r3, r4, r5, r6, r7, lr}
1000673e:	4050      	eors	r0, r2
10006740:	4042      	eors	r2, r0
10006742:	4050      	eors	r0, r2
10006744:	4059      	eors	r1, r3
10006746:	404b      	eors	r3, r1
10006748:	4059      	eors	r1, r3
1000674a:	e000      	b.n	1000674e <__aeabi_dfcmple_guts>

1000674c <__wrap___aeabi_cdcmpeq>:
1000674c:	b5ff      	push	{r0, r1, r2, r3, r4, r5, r6, r7, lr}

1000674e <__aeabi_dfcmple_guts>:
1000674e:	4f15      	ldr	r7, [pc, #84]	; (100067a4 <__aeabi_dfcmple_guts+0x56>)
10006750:	004c      	lsls	r4, r1, #1
10006752:	0d64      	lsrs	r4, r4, #21
10006754:	d003      	beq.n	1000675e <__aeabi_dfcmple_guts+0x10>
10006756:	42bc      	cmp	r4, r7
10006758:	d104      	bne.n	10006764 <__aeabi_dfcmple_guts+0x16>
1000675a:	030c      	lsls	r4, r1, #12
1000675c:	d814      	bhi.n	10006788 <__aeabi_dfcmple_guts+0x3a>
1000675e:	2000      	movs	r0, #0
10006760:	0d09      	lsrs	r1, r1, #20
10006762:	0509      	lsls	r1, r1, #20
10006764:	005c      	lsls	r4, r3, #1
10006766:	0d64      	lsrs	r4, r4, #21
10006768:	d003      	beq.n	10006772 <__aeabi_dfcmple_guts+0x24>
1000676a:	42bc      	cmp	r4, r7
1000676c:	d104      	bne.n	10006778 <__aeabi_dfcmple_guts+0x2a>
1000676e:	031c      	lsls	r4, r3, #12
10006770:	d80a      	bhi.n	10006788 <__aeabi_dfcmple_guts+0x3a>
10006772:	2200      	movs	r2, #0
10006774:	0d1b      	lsrs	r3, r3, #20
10006776:	051b      	lsls	r3, r3, #20
10006778:	2601      	movs	r6, #1
1000677a:	404b      	eors	r3, r1
1000677c:	d409      	bmi.n	10006792 <__aeabi_dfcmple_guts+0x44>
1000677e:	404b      	eors	r3, r1
10006780:	d503      	bpl.n	1000678a <__aeabi_dfcmple_guts+0x3c>
10006782:	428b      	cmp	r3, r1
10006784:	d100      	bne.n	10006788 <__aeabi_dfcmple_guts+0x3a>
10006786:	4282      	cmp	r2, r0
10006788:	bdff      	pop	{r0, r1, r2, r3, r4, r5, r6, r7, pc}
1000678a:	4299      	cmp	r1, r3
1000678c:	d1fc      	bne.n	10006788 <__aeabi_dfcmple_guts+0x3a>
1000678e:	4290      	cmp	r0, r2
10006790:	bdff      	pop	{r0, r1, r2, r3, r4, r5, r6, r7, pc}
10006792:	430b      	orrs	r3, r1
10006794:	18db      	adds	r3, r3, r3
10006796:	4303      	orrs	r3, r0
10006798:	4313      	orrs	r3, r2
1000679a:	d0f5      	beq.n	10006788 <__aeabi_dfcmple_guts+0x3a>
1000679c:	43c9      	mvns	r1, r1
1000679e:	1849      	adds	r1, r1, r1
100067a0:	bdff      	pop	{r0, r1, r2, r3, r4, r5, r6, r7, pc}
100067a2:	0000      	.short	0x0000
100067a4:	000007ff 	.word	0x000007ff

100067a8 <__wrap___aeabi_dcmplt>:
100067a8:	b500      	push	{lr}
100067aa:	f7ff ffcf 	bl	1000674c <__wrap___aeabi_cdcmpeq>
100067ae:	4180      	sbcs	r0, r0
100067b0:	bd00      	pop	{pc}
100067b2:	46c0      	nop			; (mov r8, r8)

100067b4 <__wrap___aeabi_dcmple>:
100067b4:	b500      	push	{lr}
100067b6:	f7ff ffc9 	bl	1000674c <__wrap___aeabi_cdcmpeq>
100067ba:	d901      	bls.n	100067c0 <__wrap___aeabi_dcmple+0xc>
100067bc:	2000      	movs	r0, #0
100067be:	bd00      	pop	{pc}
100067c0:	2001      	movs	r0, #1
100067c2:	bd00      	pop	{pc}

100067c4 <__wrap___aeabi_dcmpge>:
100067c4:	b500      	push	{lr}
100067c6:	f7ff ffb9 	bl	1000673c <__wrap___aeabi_cdrcmple>
100067ca:	d901      	bls.n	100067d0 <__wrap___aeabi_dcmpge+0xc>
100067cc:	2000      	movs	r0, #0
100067ce:	bd00      	pop	{pc}
100067d0:	2001      	movs	r0, #1
100067d2:	bd00      	pop	{pc}

100067d4 <__wrap___aeabi_dcmpgt>:
100067d4:	b500      	push	{lr}
100067d6:	f7ff ffb1 	bl	1000673c <__wrap___aeabi_cdrcmple>
100067da:	4180      	sbcs	r0, r0
100067dc:	bd00      	pop	{pc}

100067de <__wrap___aeabi_dcmpun>:
100067de:	2001      	movs	r0, #1
100067e0:	0540      	lsls	r0, r0, #21
100067e2:	004a      	lsls	r2, r1, #1
100067e4:	1812      	adds	r2, r2, r0
100067e6:	d804      	bhi.n	100067f2 <__wrap___aeabi_dcmpun+0x14>
100067e8:	005a      	lsls	r2, r3, #1
100067ea:	1812      	adds	r2, r2, r0
100067ec:	d801      	bhi.n	100067f2 <__wrap___aeabi_dcmpun+0x14>
100067ee:	2000      	movs	r0, #0
100067f0:	4770      	bx	lr
100067f2:	2001      	movs	r0, #1
100067f4:	4770      	bx	lr
100067f6:	2000      	movs	r0, #0
100067f8:	4770      	bx	lr
	...

100067fc <__wrap___aeabi_ui2d>:
100067fc:	2100      	movs	r1, #0
100067fe:	2800      	cmp	r0, #0
10006800:	d105      	bne.n	1000680e <__wrap___aeabi_i2d+0xa>
10006802:	4770      	bx	lr

10006804 <__wrap___aeabi_i2d>:
10006804:	17c1      	asrs	r1, r0, #31
10006806:	4048      	eors	r0, r1
10006808:	1a40      	subs	r0, r0, r1
1000680a:	d0fa      	beq.n	10006802 <__wrap___aeabi_ui2d+0x6>
1000680c:	07c9      	lsls	r1, r1, #31
1000680e:	b513      	push	{r0, r1, r4, lr}
10006810:	4b06      	ldr	r3, [pc, #24]	; (1000682c <__wrap___aeabi_i2d+0x28>)
10006812:	681b      	ldr	r3, [r3, #0]
10006814:	4798      	blx	r3
10006816:	bc0c      	pop	{r2, r3}
10006818:	1c44      	adds	r4, r0, #1
1000681a:	40a2      	lsls	r2, r4
1000681c:	0510      	lsls	r0, r2, #20
1000681e:	0b12      	lsrs	r2, r2, #12
10006820:	4903      	ldr	r1, [pc, #12]	; (10006830 <__wrap___aeabi_i2d+0x2c>)
10006822:	1b09      	subs	r1, r1, r4
10006824:	0509      	lsls	r1, r1, #20
10006826:	4319      	orrs	r1, r3
10006828:	4311      	orrs	r1, r2
1000682a:	bd10      	pop	{r4, pc}
1000682c:	2000acb8 	.word	0x2000acb8
10006830:	0000041f 	.word	0x0000041f

10006834 <__wrap___aeabi_d2iz>:
10006834:	b510      	push	{r4, lr}
10006836:	004c      	lsls	r4, r1, #1
10006838:	0d62      	lsrs	r2, r4, #21
1000683a:	2380      	movs	r3, #128	; 0x80
1000683c:	18d2      	adds	r2, r2, r3
1000683e:	00db      	lsls	r3, r3, #3
10006840:	1ad2      	subs	r2, r2, r3
10006842:	055b      	lsls	r3, r3, #21
10006844:	2a7e      	cmp	r2, #126	; 0x7e
10006846:	dd10      	ble.n	1000686a <__wrap___aeabi_d2iz+0x36>
10006848:	3a9e      	subs	r2, #158	; 0x9e
1000684a:	da13      	bge.n	10006874 <__wrap___aeabi_d2iz+0x40>
1000684c:	17cc      	asrs	r4, r1, #31
1000684e:	0309      	lsls	r1, r1, #12
10006850:	0849      	lsrs	r1, r1, #1
10006852:	4319      	orrs	r1, r3
10006854:	4252      	negs	r2, r2
10006856:	40d1      	lsrs	r1, r2
10006858:	0064      	lsls	r4, r4, #1
1000685a:	3401      	adds	r4, #1
1000685c:	3215      	adds	r2, #21
1000685e:	2a20      	cmp	r2, #32
10006860:	da05      	bge.n	1000686e <__wrap___aeabi_d2iz+0x3a>
10006862:	40d0      	lsrs	r0, r2
10006864:	4308      	orrs	r0, r1
10006866:	4360      	muls	r0, r4
10006868:	bd10      	pop	{r4, pc}
1000686a:	2000      	movs	r0, #0
1000686c:	bd10      	pop	{r4, pc}
1000686e:	4608      	mov	r0, r1
10006870:	4360      	muls	r0, r4
10006872:	bd10      	pop	{r4, pc}
10006874:	0fc8      	lsrs	r0, r1, #31
10006876:	18c0      	adds	r0, r0, r3
10006878:	3801      	subs	r0, #1
1000687a:	bd10      	pop	{r4, pc}

1000687c <__wrap___aeabi_d2uiz>:
1000687c:	b418      	push	{r3, r4}
1000687e:	4b02      	ldr	r3, [pc, #8]	; (10006888 <__wrap___aeabi_d2uiz+0xc>)
10006880:	6a5b      	ldr	r3, [r3, #36]	; 0x24
10006882:	9301      	str	r3, [sp, #4]
10006884:	bd08      	pop	{r3, pc}
10006886:	0000      	.short	0x0000
10006888:	200005b8 	.word	0x200005b8

1000688c <missing_double_func_shim>:
1000688c:	b510      	push	{r4, lr}
1000688e:	4801      	ldr	r0, [pc, #4]	; (10006894 <missing_double_func_shim+0x8>)
10006890:	f7fd ffee 	bl	10004870 <panic>
10006894:	1000a468 	.word	0x1000a468

10006898 <__aeabi_double_init>:
10006898:	2313      	movs	r3, #19
1000689a:	b570      	push	{r4, r5, r6, lr}
1000689c:	781d      	ldrb	r5, [r3, #0]
1000689e:	2d01      	cmp	r5, #1
100068a0:	d011      	beq.n	100068c6 <__aeabi_double_init+0x2e>
100068a2:	dd35      	ble.n	10006910 <__aeabi_double_init+0x78>
100068a4:	481c      	ldr	r0, [pc, #112]	; (10006918 <__aeabi_double_init+0x80>)
100068a6:	f7f9 ff03 	bl	100006b0 <rom_data_lookup>
100068aa:	4c1c      	ldr	r4, [pc, #112]	; (1000691c <__aeabi_double_init+0x84>)
100068ac:	0001      	movs	r1, r0
100068ae:	2280      	movs	r2, #128	; 0x80
100068b0:	0020      	movs	r0, r4
100068b2:	f000 f8af 	bl	10006a14 <__wrap___aeabi_memcpy>
100068b6:	2d02      	cmp	r5, #2
100068b8:	d027      	beq.n	1000690a <__aeabi_double_init+0x72>
100068ba:	4819      	ldr	r0, [pc, #100]	; (10006920 <__aeabi_double_init+0x88>)
100068bc:	f7f9 fef0 	bl	100006a0 <rom_func_lookup>
100068c0:	4b18      	ldr	r3, [pc, #96]	; (10006924 <__aeabi_double_init+0x8c>)
100068c2:	6018      	str	r0, [r3, #0]
100068c4:	bd70      	pop	{r4, r5, r6, pc}
100068c6:	4b18      	ldr	r3, [pc, #96]	; (10006928 <__aeabi_double_init+0x90>)
100068c8:	4c14      	ldr	r4, [pc, #80]	; (1000691c <__aeabi_double_init+0x84>)
100068ca:	6023      	str	r3, [r4, #0]
100068cc:	6063      	str	r3, [r4, #4]
100068ce:	60a3      	str	r3, [r4, #8]
100068d0:	60e3      	str	r3, [r4, #12]
100068d2:	6123      	str	r3, [r4, #16]
100068d4:	6163      	str	r3, [r4, #20]
100068d6:	61a3      	str	r3, [r4, #24]
100068d8:	61e3      	str	r3, [r4, #28]
100068da:	6223      	str	r3, [r4, #32]
100068dc:	6263      	str	r3, [r4, #36]	; 0x24
100068de:	62a3      	str	r3, [r4, #40]	; 0x28
100068e0:	62e3      	str	r3, [r4, #44]	; 0x2c
100068e2:	6323      	str	r3, [r4, #48]	; 0x30
100068e4:	6363      	str	r3, [r4, #52]	; 0x34
100068e6:	63a3      	str	r3, [r4, #56]	; 0x38
100068e8:	63e3      	str	r3, [r4, #60]	; 0x3c
100068ea:	6423      	str	r3, [r4, #64]	; 0x40
100068ec:	6463      	str	r3, [r4, #68]	; 0x44
100068ee:	64a3      	str	r3, [r4, #72]	; 0x48
100068f0:	64e3      	str	r3, [r4, #76]	; 0x4c
100068f2:	6523      	str	r3, [r4, #80]	; 0x50
100068f4:	6563      	str	r3, [r4, #84]	; 0x54
100068f6:	65a3      	str	r3, [r4, #88]	; 0x58
100068f8:	65e3      	str	r3, [r4, #92]	; 0x5c
100068fa:	6623      	str	r3, [r4, #96]	; 0x60
100068fc:	6663      	str	r3, [r4, #100]	; 0x64
100068fe:	66a3      	str	r3, [r4, #104]	; 0x68
10006900:	66e3      	str	r3, [r4, #108]	; 0x6c
10006902:	6723      	str	r3, [r4, #112]	; 0x70
10006904:	6763      	str	r3, [r4, #116]	; 0x74
10006906:	67a3      	str	r3, [r4, #120]	; 0x78
10006908:	67e3      	str	r3, [r4, #124]	; 0x7c
1000690a:	4b08      	ldr	r3, [pc, #32]	; (1000692c <__aeabi_double_init+0x94>)
1000690c:	64a3      	str	r3, [r4, #72]	; 0x48
1000690e:	e7d4      	b.n	100068ba <__aeabi_double_init+0x22>
10006910:	4c02      	ldr	r4, [pc, #8]	; (1000691c <__aeabi_double_init+0x84>)
10006912:	4b06      	ldr	r3, [pc, #24]	; (1000692c <__aeabi_double_init+0x94>)
10006914:	64a3      	str	r3, [r4, #72]	; 0x48
10006916:	e7d0      	b.n	100068ba <__aeabi_double_init+0x22>
10006918:	00004453 	.word	0x00004453
1000691c:	200005b8 	.word	0x200005b8
10006920:	0000334c 	.word	0x0000334c
10006924:	2000acb8 	.word	0x2000acb8
10006928:	1000688d 	.word	0x1000688d
1000692c:	10006931 	.word	0x10006931

10006930 <double_table_shim_on_use_helper>:
10006930:	b507      	push	{r0, r1, r2, lr}
10006932:	4660      	mov	r0, ip
10006934:	8801      	ldrh	r1, [r0, #0]
10006936:	0a0a      	lsrs	r2, r1, #8
10006938:	3002      	adds	r0, #2
1000693a:	2adf      	cmp	r2, #223	; 0xdf
1000693c:	d1fa      	bne.n	10006934 <double_table_shim_on_use_helper+0x4>
1000693e:	b2c9      	uxtb	r1, r1
10006940:	0882      	lsrs	r2, r0, #2
10006942:	d304      	bcc.n	1000694e <double_table_shim_on_use_helper+0x1e>
10006944:	8802      	ldrh	r2, [r0, #0]
10006946:	8840      	ldrh	r0, [r0, #2]
10006948:	0400      	lsls	r0, r0, #16
1000694a:	4310      	orrs	r0, r2
1000694c:	e000      	b.n	10006950 <double_table_shim_on_use_helper+0x20>
1000694e:	6800      	ldr	r0, [r0, #0]
10006950:	4a01      	ldr	r2, [pc, #4]	; (10006958 <double_table_shim_on_use_helper+0x28>)
10006952:	5050      	str	r0, [r2, r1]
10006954:	9003      	str	r0, [sp, #12]
10006956:	bd07      	pop	{r0, r1, r2, pc}
10006958:	200005b8 	.word	0x200005b8

1000695c <__wrap___aeabi_lmul>:
1000695c:	4351      	muls	r1, r2
1000695e:	4343      	muls	r3, r0
10006960:	18c9      	adds	r1, r1, r3
10006962:	468c      	mov	ip, r1
10006964:	0c11      	lsrs	r1, r2, #16
10006966:	b283      	uxth	r3, r0
10006968:	434b      	muls	r3, r1
1000696a:	b410      	push	{r4}
1000696c:	0c04      	lsrs	r4, r0, #16
1000696e:	4361      	muls	r1, r4
10006970:	b292      	uxth	r2, r2
10006972:	b280      	uxth	r0, r0
10006974:	4350      	muls	r0, r2
10006976:	4362      	muls	r2, r4
10006978:	041c      	lsls	r4, r3, #16
1000697a:	0c1b      	lsrs	r3, r3, #16
1000697c:	1900      	adds	r0, r0, r4
1000697e:	bc10      	pop	{r4}
10006980:	4159      	adcs	r1, r3
10006982:	0413      	lsls	r3, r2, #16
10006984:	0c12      	lsrs	r2, r2, #16
10006986:	18c0      	adds	r0, r0, r3
10006988:	4151      	adcs	r1, r2
1000698a:	4461      	add	r1, ip
1000698c:	4770      	bx	lr
	...

10006990 <missing_float_func_shim>:
10006990:	b510      	push	{r4, lr}
10006992:	4801      	ldr	r0, [pc, #4]	; (10006998 <missing_float_func_shim+0x8>)
10006994:	f7fd ff6c 	bl	10004870 <panic>
10006998:	10009a94 	.word	0x10009a94

1000699c <__aeabi_float_init>:
1000699c:	2313      	movs	r3, #19
1000699e:	b510      	push	{r4, lr}
100069a0:	4810      	ldr	r0, [pc, #64]	; (100069e4 <__aeabi_float_init+0x48>)
100069a2:	781c      	ldrb	r4, [r3, #0]
100069a4:	f7f9 fe84 	bl	100006b0 <rom_data_lookup>
100069a8:	0001      	movs	r1, r0
100069aa:	2c01      	cmp	r4, #1
100069ac:	d00a      	beq.n	100069c4 <__aeabi_float_init+0x28>
100069ae:	dd03      	ble.n	100069b8 <__aeabi_float_init+0x1c>
100069b0:	2280      	movs	r2, #128	; 0x80
100069b2:	480d      	ldr	r0, [pc, #52]	; (100069e8 <__aeabi_float_init+0x4c>)
100069b4:	f000 f82e 	bl	10006a14 <__wrap___aeabi_memcpy>
100069b8:	480c      	ldr	r0, [pc, #48]	; (100069ec <__aeabi_float_init+0x50>)
100069ba:	f7f9 fe71 	bl	100006a0 <rom_func_lookup>
100069be:	4b0c      	ldr	r3, [pc, #48]	; (100069f0 <__aeabi_float_init+0x54>)
100069c0:	6018      	str	r0, [r3, #0]
100069c2:	bd10      	pop	{r4, pc}
100069c4:	4c08      	ldr	r4, [pc, #32]	; (100069e8 <__aeabi_float_init+0x4c>)
100069c6:	2254      	movs	r2, #84	; 0x54
100069c8:	0020      	movs	r0, r4
100069ca:	f000 f823 	bl	10006a14 <__wrap___aeabi_memcpy>
100069ce:	0022      	movs	r2, r4
100069d0:	4908      	ldr	r1, [pc, #32]	; (100069f4 <__aeabi_float_init+0x58>)
100069d2:	3280      	adds	r2, #128	; 0x80
100069d4:	6823      	ldr	r3, [r4, #0]
100069d6:	2b00      	cmp	r3, #0
100069d8:	d100      	bne.n	100069dc <__aeabi_float_init+0x40>
100069da:	6021      	str	r1, [r4, #0]
100069dc:	3404      	adds	r4, #4
100069de:	42a2      	cmp	r2, r4
100069e0:	d1f8      	bne.n	100069d4 <__aeabi_float_init+0x38>
100069e2:	e7e9      	b.n	100069b8 <__aeabi_float_init+0x1c>
100069e4:	00004653 	.word	0x00004653
100069e8:	2000acbc 	.word	0x2000acbc
100069ec:	0000334c 	.word	0x0000334c
100069f0:	2000acb8 	.word	0x2000acb8
100069f4:	10006991 	.word	0x10006991

100069f8 <__aeabi_mem_init>:
100069f8:	4801      	ldr	r0, [pc, #4]	; (10006a00 <__aeabi_mem_init+0x8>)
100069fa:	2104      	movs	r1, #4
100069fc:	4b01      	ldr	r3, [pc, #4]	; (10006a04 <__aeabi_mem_init+0xc>)
100069fe:	4718      	bx	r3
10006a00:	20000470 	.word	0x20000470
10006a04:	100006c1 	.word	0x100006c1

10006a08 <__wrap_memset>:
10006a08:	4b01      	ldr	r3, [pc, #4]	; (10006a10 <__wrap_memset+0x8>)
10006a0a:	681b      	ldr	r3, [r3, #0]
10006a0c:	4718      	bx	r3
10006a0e:	0000      	.short	0x0000
10006a10:	20000470 	.word	0x20000470

10006a14 <__wrap___aeabi_memcpy>:
10006a14:	4b01      	ldr	r3, [pc, #4]	; (10006a1c <__wrap___aeabi_memcpy+0x8>)
10006a16:	685b      	ldr	r3, [r3, #4]
10006a18:	4718      	bx	r3
10006a1a:	0000      	.short	0x0000
10006a1c:	20000470 	.word	0x20000470

10006a20 <stdio_out_chars_no_crlf>:
10006a20:	0003      	movs	r3, r0
10006a22:	b510      	push	{r4, lr}
10006a24:	0008      	movs	r0, r1
10006a26:	0011      	movs	r1, r2
10006a28:	681b      	ldr	r3, [r3, #0]
10006a2a:	4798      	blx	r3
10006a2c:	bd10      	pop	{r4, pc}
10006a2e:	46c0      	nop			; (mov r8, r8)

10006a30 <stdio_out_chars_crlf>:
10006a30:	b5f0      	push	{r4, r5, r6, r7, lr}
10006a32:	4646      	mov	r6, r8
10006a34:	464f      	mov	r7, r9
10006a36:	46d6      	mov	lr, sl
10006a38:	b5c0      	push	{r6, r7, lr}
10006a3a:	7c43      	ldrb	r3, [r0, #17]
10006a3c:	4680      	mov	r8, r0
10006a3e:	000e      	movs	r6, r1
10006a40:	0017      	movs	r7, r2
10006a42:	2b00      	cmp	r3, #0
10006a44:	d046      	beq.n	10006ad4 <stdio_out_chars_crlf+0xa4>
10006a46:	2a00      	cmp	r2, #0
10006a48:	dd3f      	ble.n	10006aca <stdio_out_chars_crlf+0x9a>
10006a4a:	1e4b      	subs	r3, r1, #1
10006a4c:	4699      	mov	r9, r3
10006a4e:	4b24      	ldr	r3, [pc, #144]	; (10006ae0 <stdio_out_chars_crlf+0xb0>)
10006a50:	2501      	movs	r5, #1
10006a52:	2400      	movs	r4, #0
10006a54:	2000      	movs	r0, #0
10006a56:	469a      	mov	sl, r3
10006a58:	e00d      	b.n	10006a76 <stdio_out_chars_crlf+0x46>
10006a5a:	464b      	mov	r3, r9
10006a5c:	5d1b      	ldrb	r3, [r3, r4]
10006a5e:	3b0d      	subs	r3, #13
10006a60:	425a      	negs	r2, r3
10006a62:	4153      	adcs	r3, r2
10006a64:	5d32      	ldrb	r2, [r6, r4]
10006a66:	b2db      	uxtb	r3, r3
10006a68:	2a0a      	cmp	r2, #10
10006a6a:	d00b      	beq.n	10006a84 <stdio_out_chars_crlf+0x54>
10006a6c:	002b      	movs	r3, r5
10006a6e:	3401      	adds	r4, #1
10006a70:	3501      	adds	r5, #1
10006a72:	429f      	cmp	r7, r3
10006a74:	dd1a      	ble.n	10006aac <stdio_out_chars_crlf+0x7c>
10006a76:	2c00      	cmp	r4, #0
10006a78:	d1ef      	bne.n	10006a5a <stdio_out_chars_crlf+0x2a>
10006a7a:	4643      	mov	r3, r8
10006a7c:	5d32      	ldrb	r2, [r6, r4]
10006a7e:	7c1b      	ldrb	r3, [r3, #16]
10006a80:	2a0a      	cmp	r2, #10
10006a82:	d1f3      	bne.n	10006a6c <stdio_out_chars_crlf+0x3c>
10006a84:	2b00      	cmp	r3, #0
10006a86:	d1f1      	bne.n	10006a6c <stdio_out_chars_crlf+0x3c>
10006a88:	42a0      	cmp	r0, r4
10006a8a:	da04      	bge.n	10006a96 <stdio_out_chars_crlf+0x66>
10006a8c:	4643      	mov	r3, r8
10006a8e:	1a21      	subs	r1, r4, r0
10006a90:	681b      	ldr	r3, [r3, #0]
10006a92:	1830      	adds	r0, r6, r0
10006a94:	4798      	blx	r3
10006a96:	4643      	mov	r3, r8
10006a98:	4650      	mov	r0, sl
10006a9a:	681b      	ldr	r3, [r3, #0]
10006a9c:	2102      	movs	r1, #2
10006a9e:	4798      	blx	r3
10006aa0:	3401      	adds	r4, #1
10006aa2:	0028      	movs	r0, r5
10006aa4:	002b      	movs	r3, r5
10006aa6:	3501      	adds	r5, #1
10006aa8:	429f      	cmp	r7, r3
10006aaa:	dce4      	bgt.n	10006a76 <stdio_out_chars_crlf+0x46>
10006aac:	4287      	cmp	r7, r0
10006aae:	dd04      	ble.n	10006aba <stdio_out_chars_crlf+0x8a>
10006ab0:	4643      	mov	r3, r8
10006ab2:	1a39      	subs	r1, r7, r0
10006ab4:	681b      	ldr	r3, [r3, #0]
10006ab6:	1830      	adds	r0, r6, r0
10006ab8:	4798      	blx	r3
10006aba:	19f6      	adds	r6, r6, r7
10006abc:	3e01      	subs	r6, #1
10006abe:	7833      	ldrb	r3, [r6, #0]
10006ac0:	3b0d      	subs	r3, #13
10006ac2:	425a      	negs	r2, r3
10006ac4:	4153      	adcs	r3, r2
10006ac6:	4642      	mov	r2, r8
10006ac8:	7413      	strb	r3, [r2, #16]
10006aca:	bce0      	pop	{r5, r6, r7}
10006acc:	46ba      	mov	sl, r7
10006ace:	46b1      	mov	r9, r6
10006ad0:	46a8      	mov	r8, r5
10006ad2:	bdf0      	pop	{r4, r5, r6, r7, pc}
10006ad4:	6803      	ldr	r3, [r0, #0]
10006ad6:	0011      	movs	r1, r2
10006ad8:	0030      	movs	r0, r6
10006ada:	4798      	blx	r3
10006adc:	e7f5      	b.n	10006aca <stdio_out_chars_crlf+0x9a>
10006ade:	46c0      	nop			; (mov r8, r8)
10006ae0:	1000a4e0 	.word	0x1000a4e0

10006ae4 <stdio_buffered_printer>:
10006ae4:	b5f0      	push	{r4, r5, r6, r7, lr}
10006ae6:	46c6      	mov	lr, r8
10006ae8:	680b      	ldr	r3, [r1, #0]
10006aea:	0006      	movs	r6, r0
10006aec:	000c      	movs	r4, r1
10006aee:	b500      	push	{lr}
10006af0:	2b80      	cmp	r3, #128	; 0x80
10006af2:	d006      	beq.n	10006b02 <stdio_buffered_printer+0x1e>
10006af4:	1c5a      	adds	r2, r3, #1
10006af6:	6022      	str	r2, [r4, #0]
10006af8:	18e4      	adds	r4, r4, r3
10006afa:	7126      	strb	r6, [r4, #4]
10006afc:	bc80      	pop	{r7}
10006afe:	46b8      	mov	r8, r7
10006b00:	bdf0      	pop	{r4, r5, r6, r7, pc}
10006b02:	4b0f      	ldr	r3, [pc, #60]	; (10006b40 <stdio_buffered_printer+0x5c>)
10006b04:	681d      	ldr	r5, [r3, #0]
10006b06:	2d00      	cmp	r5, #0
10006b08:	d016      	beq.n	10006b38 <stdio_buffered_printer+0x54>
10006b0a:	1d0b      	adds	r3, r1, #4
10006b0c:	4698      	mov	r8, r3
10006b0e:	4f0d      	ldr	r7, [pc, #52]	; (10006b44 <stdio_buffered_printer+0x60>)
10006b10:	e002      	b.n	10006b18 <stdio_buffered_printer+0x34>
10006b12:	68ed      	ldr	r5, [r5, #12]
10006b14:	2d00      	cmp	r5, #0
10006b16:	d00f      	beq.n	10006b38 <stdio_buffered_printer+0x54>
10006b18:	682b      	ldr	r3, [r5, #0]
10006b1a:	2b00      	cmp	r3, #0
10006b1c:	d0f9      	beq.n	10006b12 <stdio_buffered_printer+0x2e>
10006b1e:	683b      	ldr	r3, [r7, #0]
10006b20:	2b00      	cmp	r3, #0
10006b22:	d001      	beq.n	10006b28 <stdio_buffered_printer+0x44>
10006b24:	42ab      	cmp	r3, r5
10006b26:	d1f4      	bne.n	10006b12 <stdio_buffered_printer+0x2e>
10006b28:	0028      	movs	r0, r5
10006b2a:	4641      	mov	r1, r8
10006b2c:	6822      	ldr	r2, [r4, #0]
10006b2e:	f7ff ff7f 	bl	10006a30 <stdio_out_chars_crlf>
10006b32:	68ed      	ldr	r5, [r5, #12]
10006b34:	2d00      	cmp	r5, #0
10006b36:	d1ef      	bne.n	10006b18 <stdio_buffered_printer+0x34>
10006b38:	2201      	movs	r2, #1
10006b3a:	2300      	movs	r3, #0
10006b3c:	e7db      	b.n	10006af6 <stdio_buffered_printer+0x12>
10006b3e:	46c0      	nop			; (mov r8, r8)
10006b40:	200012e0 	.word	0x200012e0
10006b44:	200012e4 	.word	0x200012e4

10006b48 <stdio_put_string.isra.0>:
10006b48:	b5f0      	push	{r4, r5, r6, r7, lr}
10006b4a:	4657      	mov	r7, sl
10006b4c:	464e      	mov	r6, r9
10006b4e:	4645      	mov	r5, r8
10006b50:	46de      	mov	lr, fp
10006b52:	001c      	movs	r4, r3
10006b54:	23d0      	movs	r3, #208	; 0xd0
10006b56:	b5e0      	push	{r5, r6, r7, lr}
10006b58:	061b      	lsls	r3, r3, #24
10006b5a:	681f      	ldr	r7, [r3, #0]
10006b5c:	4b34      	ldr	r3, [pc, #208]	; (10006c30 <stdio_put_string.isra.0+0xe8>)
10006b5e:	b083      	sub	sp, #12
10006b60:	0006      	movs	r6, r0
10006b62:	000d      	movs	r5, r1
10006b64:	0018      	movs	r0, r3
10006b66:	a901      	add	r1, sp, #4
10006b68:	4691      	mov	r9, r2
10006b6a:	469a      	mov	sl, r3
10006b6c:	f002 fee0 	bl	10009930 <__mutex_try_enter_veneer>
10006b70:	4680      	mov	r8, r0
10006b72:	2800      	cmp	r0, #0
10006b74:	d108      	bne.n	10006b88 <stdio_put_string.isra.0+0x40>
10006b76:	9b01      	ldr	r3, [sp, #4]
10006b78:	b27f      	sxtb	r7, r7
10006b7a:	429f      	cmp	r7, r3
10006b7c:	d004      	beq.n	10006b88 <stdio_put_string.isra.0+0x40>
10006b7e:	4650      	mov	r0, sl
10006b80:	f002 feee 	bl	10009960 <__mutex_enter_blocking_veneer>
10006b84:	2301      	movs	r3, #1
10006b86:	4698      	mov	r8, r3
10006b88:	1c6b      	adds	r3, r5, #1
10006b8a:	d103      	bne.n	10006b94 <stdio_put_string.isra.0+0x4c>
10006b8c:	0030      	movs	r0, r6
10006b8e:	f002 fe77 	bl	10009880 <strlen>
10006b92:	0005      	movs	r5, r0
10006b94:	2c00      	cmp	r4, #0
10006b96:	d127      	bne.n	10006be8 <stdio_put_string.isra.0+0xa0>
10006b98:	4f26      	ldr	r7, [pc, #152]	; (10006c34 <stdio_put_string.isra.0+0xec>)
10006b9a:	4b27      	ldr	r3, [pc, #156]	; (10006c38 <stdio_put_string.isra.0+0xf0>)
10006b9c:	681c      	ldr	r4, [r3, #0]
10006b9e:	2c00      	cmp	r4, #0
10006ba0:	d018      	beq.n	10006bd4 <stdio_put_string.isra.0+0x8c>
10006ba2:	464b      	mov	r3, r9
10006ba4:	2b00      	cmp	r3, #0
10006ba6:	d121      	bne.n	10006bec <stdio_put_string.isra.0+0xa4>
10006ba8:	4b24      	ldr	r3, [pc, #144]	; (10006c3c <stdio_put_string.isra.0+0xf4>)
10006baa:	4699      	mov	r9, r3
10006bac:	e002      	b.n	10006bb4 <stdio_put_string.isra.0+0x6c>
10006bae:	68e4      	ldr	r4, [r4, #12]
10006bb0:	2c00      	cmp	r4, #0
10006bb2:	d00f      	beq.n	10006bd4 <stdio_put_string.isra.0+0x8c>
10006bb4:	6823      	ldr	r3, [r4, #0]
10006bb6:	2b00      	cmp	r3, #0
10006bb8:	d0f9      	beq.n	10006bae <stdio_put_string.isra.0+0x66>
10006bba:	464b      	mov	r3, r9
10006bbc:	681b      	ldr	r3, [r3, #0]
10006bbe:	2b00      	cmp	r3, #0
10006bc0:	d001      	beq.n	10006bc6 <stdio_put_string.isra.0+0x7e>
10006bc2:	42a3      	cmp	r3, r4
10006bc4:	d1f3      	bne.n	10006bae <stdio_put_string.isra.0+0x66>
10006bc6:	0020      	movs	r0, r4
10006bc8:	002a      	movs	r2, r5
10006bca:	0031      	movs	r1, r6
10006bcc:	47b8      	blx	r7
10006bce:	68e4      	ldr	r4, [r4, #12]
10006bd0:	2c00      	cmp	r4, #0
10006bd2:	d1ef      	bne.n	10006bb4 <stdio_put_string.isra.0+0x6c>
10006bd4:	4643      	mov	r3, r8
10006bd6:	2b00      	cmp	r3, #0
10006bd8:	d125      	bne.n	10006c26 <stdio_put_string.isra.0+0xde>
10006bda:	b003      	add	sp, #12
10006bdc:	bcf0      	pop	{r4, r5, r6, r7}
10006bde:	46bb      	mov	fp, r7
10006be0:	46b2      	mov	sl, r6
10006be2:	46a9      	mov	r9, r5
10006be4:	46a0      	mov	r8, r4
10006be6:	bdf0      	pop	{r4, r5, r6, r7, pc}
10006be8:	4f15      	ldr	r7, [pc, #84]	; (10006c40 <stdio_put_string.isra.0+0xf8>)
10006bea:	e7d6      	b.n	10006b9a <stdio_put_string.isra.0+0x52>
10006bec:	4b13      	ldr	r3, [pc, #76]	; (10006c3c <stdio_put_string.isra.0+0xf4>)
10006bee:	4699      	mov	r9, r3
10006bf0:	230a      	movs	r3, #10
10006bf2:	469b      	mov	fp, r3
10006bf4:	e002      	b.n	10006bfc <stdio_put_string.isra.0+0xb4>
10006bf6:	68e4      	ldr	r4, [r4, #12]
10006bf8:	2c00      	cmp	r4, #0
10006bfa:	d0eb      	beq.n	10006bd4 <stdio_put_string.isra.0+0x8c>
10006bfc:	6823      	ldr	r3, [r4, #0]
10006bfe:	2b00      	cmp	r3, #0
10006c00:	d0f9      	beq.n	10006bf6 <stdio_put_string.isra.0+0xae>
10006c02:	464b      	mov	r3, r9
10006c04:	681b      	ldr	r3, [r3, #0]
10006c06:	2b00      	cmp	r3, #0
10006c08:	d001      	beq.n	10006c0e <stdio_put_string.isra.0+0xc6>
10006c0a:	42a3      	cmp	r3, r4
10006c0c:	d1f3      	bne.n	10006bf6 <stdio_put_string.isra.0+0xae>
10006c0e:	002a      	movs	r2, r5
10006c10:	0031      	movs	r1, r6
10006c12:	0020      	movs	r0, r4
10006c14:	47b8      	blx	r7
10006c16:	465a      	mov	r2, fp
10006c18:	466b      	mov	r3, sp
10006c1a:	0020      	movs	r0, r4
10006c1c:	711a      	strb	r2, [r3, #4]
10006c1e:	a901      	add	r1, sp, #4
10006c20:	2201      	movs	r2, #1
10006c22:	47b8      	blx	r7
10006c24:	e7e7      	b.n	10006bf6 <stdio_put_string.isra.0+0xae>
10006c26:	4650      	mov	r0, sl
10006c28:	f002 fe62 	bl	100098f0 <__mutex_exit_veneer>
10006c2c:	e7d5      	b.n	10006bda <stdio_put_string.isra.0+0x92>
10006c2e:	46c0      	nop			; (mov r8, r8)
10006c30:	20000498 	.word	0x20000498
10006c34:	10006a31 	.word	0x10006a31
10006c38:	200012e0 	.word	0x200012e0
10006c3c:	200012e4 	.word	0x200012e4
10006c40:	10006a21 	.word	0x10006a21

10006c44 <__wrap_putchar>:
10006c44:	b5f0      	push	{r4, r5, r6, r7, lr}
10006c46:	46ce      	mov	lr, r9
10006c48:	4647      	mov	r7, r8
10006c4a:	b580      	push	{r7, lr}
10006c4c:	b083      	sub	sp, #12
10006c4e:	466b      	mov	r3, sp
10006c50:	1cde      	adds	r6, r3, #3
10006c52:	23d0      	movs	r3, #208	; 0xd0
10006c54:	7030      	strb	r0, [r6, #0]
10006c56:	061b      	lsls	r3, r3, #24
10006c58:	681c      	ldr	r4, [r3, #0]
10006c5a:	4b1f      	ldr	r3, [pc, #124]	; (10006cd8 <__wrap_putchar+0x94>)
10006c5c:	4680      	mov	r8, r0
10006c5e:	a901      	add	r1, sp, #4
10006c60:	0018      	movs	r0, r3
10006c62:	4699      	mov	r9, r3
10006c64:	f002 fe64 	bl	10009930 <__mutex_try_enter_veneer>
10006c68:	1e07      	subs	r7, r0, #0
10006c6a:	d020      	beq.n	10006cae <__wrap_putchar+0x6a>
10006c6c:	4b1b      	ldr	r3, [pc, #108]	; (10006cdc <__wrap_putchar+0x98>)
10006c6e:	681c      	ldr	r4, [r3, #0]
10006c70:	2c00      	cmp	r4, #0
10006c72:	d028      	beq.n	10006cc6 <__wrap_putchar+0x82>
10006c74:	4d1a      	ldr	r5, [pc, #104]	; (10006ce0 <__wrap_putchar+0x9c>)
10006c76:	e002      	b.n	10006c7e <__wrap_putchar+0x3a>
10006c78:	68e4      	ldr	r4, [r4, #12]
10006c7a:	2c00      	cmp	r4, #0
10006c7c:	d00f      	beq.n	10006c9e <__wrap_putchar+0x5a>
10006c7e:	6823      	ldr	r3, [r4, #0]
10006c80:	2b00      	cmp	r3, #0
10006c82:	d0f9      	beq.n	10006c78 <__wrap_putchar+0x34>
10006c84:	682b      	ldr	r3, [r5, #0]
10006c86:	2b00      	cmp	r3, #0
10006c88:	d001      	beq.n	10006c8e <__wrap_putchar+0x4a>
10006c8a:	42a3      	cmp	r3, r4
10006c8c:	d1f4      	bne.n	10006c78 <__wrap_putchar+0x34>
10006c8e:	0020      	movs	r0, r4
10006c90:	2201      	movs	r2, #1
10006c92:	0031      	movs	r1, r6
10006c94:	f7ff fecc 	bl	10006a30 <stdio_out_chars_crlf>
10006c98:	68e4      	ldr	r4, [r4, #12]
10006c9a:	2c00      	cmp	r4, #0
10006c9c:	d1ef      	bne.n	10006c7e <__wrap_putchar+0x3a>
10006c9e:	2f00      	cmp	r7, #0
10006ca0:	d111      	bne.n	10006cc6 <__wrap_putchar+0x82>
10006ca2:	4640      	mov	r0, r8
10006ca4:	b003      	add	sp, #12
10006ca6:	bcc0      	pop	{r6, r7}
10006ca8:	46b9      	mov	r9, r7
10006caa:	46b0      	mov	r8, r6
10006cac:	bdf0      	pop	{r4, r5, r6, r7, pc}
10006cae:	9b01      	ldr	r3, [sp, #4]
10006cb0:	b264      	sxtb	r4, r4
10006cb2:	429c      	cmp	r4, r3
10006cb4:	d00b      	beq.n	10006cce <__wrap_putchar+0x8a>
10006cb6:	4648      	mov	r0, r9
10006cb8:	f002 fe52 	bl	10009960 <__mutex_enter_blocking_veneer>
10006cbc:	4b07      	ldr	r3, [pc, #28]	; (10006cdc <__wrap_putchar+0x98>)
10006cbe:	2701      	movs	r7, #1
10006cc0:	681c      	ldr	r4, [r3, #0]
10006cc2:	2c00      	cmp	r4, #0
10006cc4:	d1d6      	bne.n	10006c74 <__wrap_putchar+0x30>
10006cc6:	4648      	mov	r0, r9
10006cc8:	f002 fe12 	bl	100098f0 <__mutex_exit_veneer>
10006ccc:	e7e9      	b.n	10006ca2 <__wrap_putchar+0x5e>
10006cce:	4b03      	ldr	r3, [pc, #12]	; (10006cdc <__wrap_putchar+0x98>)
10006cd0:	681c      	ldr	r4, [r3, #0]
10006cd2:	2c00      	cmp	r4, #0
10006cd4:	d1ce      	bne.n	10006c74 <__wrap_putchar+0x30>
10006cd6:	e7e4      	b.n	10006ca2 <__wrap_putchar+0x5e>
10006cd8:	20000498 	.word	0x20000498
10006cdc:	200012e0 	.word	0x200012e0
10006ce0:	200012e4 	.word	0x200012e4

10006ce4 <__wrap_puts>:
10006ce4:	b570      	push	{r4, r5, r6, lr}
10006ce6:	0004      	movs	r4, r0
10006ce8:	f002 fdca 	bl	10009880 <strlen>
10006cec:	2300      	movs	r3, #0
10006cee:	0001      	movs	r1, r0
10006cf0:	0005      	movs	r5, r0
10006cf2:	2201      	movs	r2, #1
10006cf4:	0020      	movs	r0, r4
10006cf6:	f7ff ff27 	bl	10006b48 <stdio_put_string.isra.0>
10006cfa:	4b08      	ldr	r3, [pc, #32]	; (10006d1c <__wrap_puts+0x38>)
10006cfc:	681c      	ldr	r4, [r3, #0]
10006cfe:	2c00      	cmp	r4, #0
10006d00:	d006      	beq.n	10006d10 <__wrap_puts+0x2c>
10006d02:	6863      	ldr	r3, [r4, #4]
10006d04:	2b00      	cmp	r3, #0
10006d06:	d005      	beq.n	10006d14 <__wrap_puts+0x30>
10006d08:	4798      	blx	r3
10006d0a:	68e4      	ldr	r4, [r4, #12]
10006d0c:	2c00      	cmp	r4, #0
10006d0e:	d1f8      	bne.n	10006d02 <__wrap_puts+0x1e>
10006d10:	0028      	movs	r0, r5
10006d12:	bd70      	pop	{r4, r5, r6, pc}
10006d14:	68e4      	ldr	r4, [r4, #12]
10006d16:	2c00      	cmp	r4, #0
10006d18:	d1f3      	bne.n	10006d02 <__wrap_puts+0x1e>
10006d1a:	e7f9      	b.n	10006d10 <__wrap_puts+0x2c>
10006d1c:	200012e0 	.word	0x200012e0

10006d20 <stdio_set_driver_enabled>:
10006d20:	4a0a      	ldr	r2, [pc, #40]	; (10006d4c <stdio_set_driver_enabled+0x2c>)
10006d22:	6813      	ldr	r3, [r2, #0]
10006d24:	2b00      	cmp	r3, #0
10006d26:	d105      	bne.n	10006d34 <stdio_set_driver_enabled+0x14>
10006d28:	e00c      	b.n	10006d44 <stdio_set_driver_enabled+0x24>
10006d2a:	001a      	movs	r2, r3
10006d2c:	68db      	ldr	r3, [r3, #12]
10006d2e:	320c      	adds	r2, #12
10006d30:	2b00      	cmp	r3, #0
10006d32:	d007      	beq.n	10006d44 <stdio_set_driver_enabled+0x24>
10006d34:	4298      	cmp	r0, r3
10006d36:	d1f8      	bne.n	10006d2a <stdio_set_driver_enabled+0xa>
10006d38:	2900      	cmp	r1, #0
10006d3a:	d102      	bne.n	10006d42 <stdio_set_driver_enabled+0x22>
10006d3c:	68c3      	ldr	r3, [r0, #12]
10006d3e:	6013      	str	r3, [r2, #0]
10006d40:	60c1      	str	r1, [r0, #12]
10006d42:	4770      	bx	lr
10006d44:	2900      	cmp	r1, #0
10006d46:	d0fc      	beq.n	10006d42 <stdio_set_driver_enabled+0x22>
10006d48:	6010      	str	r0, [r2, #0]
10006d4a:	e7fa      	b.n	10006d42 <stdio_set_driver_enabled+0x22>
10006d4c:	200012e0 	.word	0x200012e0

10006d50 <__wrap_vprintf>:
10006d50:	b5f0      	push	{r4, r5, r6, r7, lr}
10006d52:	4647      	mov	r7, r8
10006d54:	46ce      	mov	lr, r9
10006d56:	23d0      	movs	r3, #208	; 0xd0
10006d58:	b580      	push	{r7, lr}
10006d5a:	061b      	lsls	r3, r3, #24
10006d5c:	681f      	ldr	r7, [r3, #0]
10006d5e:	4b2d      	ldr	r3, [pc, #180]	; (10006e14 <__wrap_vprintf+0xc4>)
10006d60:	b0a3      	sub	sp, #140	; 0x8c
10006d62:	0004      	movs	r4, r0
10006d64:	000d      	movs	r5, r1
10006d66:	0018      	movs	r0, r3
10006d68:	a901      	add	r1, sp, #4
10006d6a:	4698      	mov	r8, r3
10006d6c:	f002 fde0 	bl	10009930 <__mutex_try_enter_veneer>
10006d70:	1e06      	subs	r6, r0, #0
10006d72:	d107      	bne.n	10006d84 <__wrap_vprintf+0x34>
10006d74:	9b01      	ldr	r3, [sp, #4]
10006d76:	b27f      	sxtb	r7, r7
10006d78:	429f      	cmp	r7, r3
10006d7a:	d003      	beq.n	10006d84 <__wrap_vprintf+0x34>
10006d7c:	4640      	mov	r0, r8
10006d7e:	f002 fdef 	bl	10009960 <__mutex_enter_blocking_veneer>
10006d82:	3601      	adds	r6, #1
10006d84:	2284      	movs	r2, #132	; 0x84
10006d86:	2100      	movs	r1, #0
10006d88:	a801      	add	r0, sp, #4
10006d8a:	f7ff fe3d 	bl	10006a08 <__wrap_memset>
10006d8e:	002b      	movs	r3, r5
10006d90:	0022      	movs	r2, r4
10006d92:	4821      	ldr	r0, [pc, #132]	; (10006e18 <__wrap_vprintf+0xc8>)
10006d94:	a901      	add	r1, sp, #4
10006d96:	f7ff fa03 	bl	100061a0 <vfctprintf>
10006d9a:	9b01      	ldr	r3, [sp, #4]
10006d9c:	0007      	movs	r7, r0
10006d9e:	2b00      	cmp	r3, #0
10006da0:	d114      	bne.n	10006dcc <__wrap_vprintf+0x7c>
10006da2:	4b1e      	ldr	r3, [pc, #120]	; (10006e1c <__wrap_vprintf+0xcc>)
10006da4:	681c      	ldr	r4, [r3, #0]
10006da6:	2c00      	cmp	r4, #0
10006da8:	d006      	beq.n	10006db8 <__wrap_vprintf+0x68>
10006daa:	6863      	ldr	r3, [r4, #4]
10006dac:	2b00      	cmp	r3, #0
10006dae:	d00b      	beq.n	10006dc8 <__wrap_vprintf+0x78>
10006db0:	4798      	blx	r3
10006db2:	68e4      	ldr	r4, [r4, #12]
10006db4:	2c00      	cmp	r4, #0
10006db6:	d1f8      	bne.n	10006daa <__wrap_vprintf+0x5a>
10006db8:	2e00      	cmp	r6, #0
10006dba:	d125      	bne.n	10006e08 <__wrap_vprintf+0xb8>
10006dbc:	0038      	movs	r0, r7
10006dbe:	b023      	add	sp, #140	; 0x8c
10006dc0:	bcc0      	pop	{r6, r7}
10006dc2:	46b9      	mov	r9, r7
10006dc4:	46b0      	mov	r8, r6
10006dc6:	bdf0      	pop	{r4, r5, r6, r7, pc}
10006dc8:	68e4      	ldr	r4, [r4, #12]
10006dca:	e7ec      	b.n	10006da6 <__wrap_vprintf+0x56>
10006dcc:	4b13      	ldr	r3, [pc, #76]	; (10006e1c <__wrap_vprintf+0xcc>)
10006dce:	681d      	ldr	r5, [r3, #0]
10006dd0:	4699      	mov	r9, r3
10006dd2:	2d00      	cmp	r5, #0
10006dd4:	d01c      	beq.n	10006e10 <__wrap_vprintf+0xc0>
10006dd6:	4c12      	ldr	r4, [pc, #72]	; (10006e20 <__wrap_vprintf+0xd0>)
10006dd8:	e002      	b.n	10006de0 <__wrap_vprintf+0x90>
10006dda:	68ed      	ldr	r5, [r5, #12]
10006ddc:	2d00      	cmp	r5, #0
10006dde:	d00f      	beq.n	10006e00 <__wrap_vprintf+0xb0>
10006de0:	682b      	ldr	r3, [r5, #0]
10006de2:	2b00      	cmp	r3, #0
10006de4:	d0f9      	beq.n	10006dda <__wrap_vprintf+0x8a>
10006de6:	6823      	ldr	r3, [r4, #0]
10006de8:	2b00      	cmp	r3, #0
10006dea:	d001      	beq.n	10006df0 <__wrap_vprintf+0xa0>
10006dec:	42ab      	cmp	r3, r5
10006dee:	d1f4      	bne.n	10006dda <__wrap_vprintf+0x8a>
10006df0:	0028      	movs	r0, r5
10006df2:	9a01      	ldr	r2, [sp, #4]
10006df4:	a902      	add	r1, sp, #8
10006df6:	f7ff fe1b 	bl	10006a30 <stdio_out_chars_crlf>
10006dfa:	68ed      	ldr	r5, [r5, #12]
10006dfc:	2d00      	cmp	r5, #0
10006dfe:	d1ef      	bne.n	10006de0 <__wrap_vprintf+0x90>
10006e00:	464b      	mov	r3, r9
10006e02:	9501      	str	r5, [sp, #4]
10006e04:	681c      	ldr	r4, [r3, #0]
10006e06:	e7ce      	b.n	10006da6 <__wrap_vprintf+0x56>
10006e08:	4640      	mov	r0, r8
10006e0a:	f002 fd71 	bl	100098f0 <__mutex_exit_veneer>
10006e0e:	e7d5      	b.n	10006dbc <__wrap_vprintf+0x6c>
10006e10:	9501      	str	r5, [sp, #4]
10006e12:	e7d1      	b.n	10006db8 <__wrap_vprintf+0x68>
10006e14:	20000498 	.word	0x20000498
10006e18:	10006ae5 	.word	0x10006ae5
10006e1c:	200012e0 	.word	0x200012e0
10006e20:	200012e4 	.word	0x200012e4

10006e24 <__wrap_printf>:
10006e24:	b40f      	push	{r0, r1, r2, r3}
10006e26:	b500      	push	{lr}
10006e28:	b083      	sub	sp, #12
10006e2a:	a904      	add	r1, sp, #16
10006e2c:	c901      	ldmia	r1!, {r0}
10006e2e:	9101      	str	r1, [sp, #4]
10006e30:	f7ff ff8e 	bl	10006d50 <__wrap_vprintf>
10006e34:	b003      	add	sp, #12
10006e36:	bc08      	pop	{r3}
10006e38:	b004      	add	sp, #16
10006e3a:	4718      	bx	r3

10006e3c <stdio_init_all>:
10006e3c:	b510      	push	{r4, lr}
10006e3e:	f000 f843 	bl	10006ec8 <stdio_uart_init>
10006e42:	bd10      	pop	{r4, pc}

10006e44 <stdio_uart_out_chars>:
10006e44:	b5f0      	push	{r4, r5, r6, r7, lr}
10006e46:	1e0d      	subs	r5, r1, #0
10006e48:	dd15      	ble.n	10006e76 <stdio_uart_out_chars+0x32>
10006e4a:	4b0e      	ldr	r3, [pc, #56]	; (10006e84 <stdio_uart_out_chars+0x40>)
10006e4c:	490e      	ldr	r1, [pc, #56]	; (10006e88 <stdio_uart_out_chars+0x44>)
10006e4e:	681a      	ldr	r2, [r3, #0]
10006e50:	4b0e      	ldr	r3, [pc, #56]	; (10006e8c <stdio_uart_out_chars+0x48>)
10006e52:	270d      	movs	r7, #13
10006e54:	18d3      	adds	r3, r2, r3
10006e56:	425c      	negs	r4, r3
10006e58:	4163      	adcs	r3, r4
10006e5a:	005b      	lsls	r3, r3, #1
10006e5c:	5e5e      	ldrsh	r6, [r3, r1]
10006e5e:	2120      	movs	r1, #32
10006e60:	1945      	adds	r5, r0, r5
10006e62:	7804      	ldrb	r4, [r0, #0]
10006e64:	42a6      	cmp	r6, r4
10006e66:	d007      	beq.n	10006e78 <stdio_uart_out_chars+0x34>
10006e68:	6993      	ldr	r3, [r2, #24]
10006e6a:	4219      	tst	r1, r3
10006e6c:	d1fc      	bne.n	10006e68 <stdio_uart_out_chars+0x24>
10006e6e:	3001      	adds	r0, #1
10006e70:	6014      	str	r4, [r2, #0]
10006e72:	42a8      	cmp	r0, r5
10006e74:	d1f5      	bne.n	10006e62 <stdio_uart_out_chars+0x1e>
10006e76:	bdf0      	pop	{r4, r5, r6, r7, pc}
10006e78:	6993      	ldr	r3, [r2, #24]
10006e7a:	4219      	tst	r1, r3
10006e7c:	d1fc      	bne.n	10006e78 <stdio_uart_out_chars+0x34>
10006e7e:	6017      	str	r7, [r2, #0]
10006e80:	e7f2      	b.n	10006e68 <stdio_uart_out_chars+0x24>
10006e82:	46c0      	nop			; (mov r8, r8)
10006e84:	2000adec 	.word	0x2000adec
10006e88:	2000ade8 	.word	0x2000ade8
10006e8c:	bffc8000 	.word	0xbffc8000

10006e90 <stdio_uart_in_chars>:
10006e90:	b530      	push	{r4, r5, lr}
10006e92:	0005      	movs	r5, r0
10006e94:	2900      	cmp	r1, #0
10006e96:	dd12      	ble.n	10006ebe <stdio_uart_in_chars+0x2e>
10006e98:	2000      	movs	r0, #0
10006e9a:	2410      	movs	r4, #16
10006e9c:	4b09      	ldr	r3, [pc, #36]	; (10006ec4 <stdio_uart_in_chars+0x34>)
10006e9e:	3d01      	subs	r5, #1
10006ea0:	681a      	ldr	r2, [r3, #0]
10006ea2:	6993      	ldr	r3, [r2, #24]
10006ea4:	421c      	tst	r4, r3
10006ea6:	d108      	bne.n	10006eba <stdio_uart_in_chars+0x2a>
10006ea8:	3001      	adds	r0, #1
10006eaa:	6993      	ldr	r3, [r2, #24]
10006eac:	421c      	tst	r4, r3
10006eae:	d1fc      	bne.n	10006eaa <stdio_uart_in_chars+0x1a>
10006eb0:	6813      	ldr	r3, [r2, #0]
10006eb2:	542b      	strb	r3, [r5, r0]
10006eb4:	4281      	cmp	r1, r0
10006eb6:	d1f4      	bne.n	10006ea2 <stdio_uart_in_chars+0x12>
10006eb8:	bd30      	pop	{r4, r5, pc}
10006eba:	2800      	cmp	r0, #0
10006ebc:	d1fc      	bne.n	10006eb8 <stdio_uart_in_chars+0x28>
10006ebe:	2003      	movs	r0, #3
10006ec0:	4240      	negs	r0, r0
10006ec2:	e7f9      	b.n	10006eb8 <stdio_uart_in_chars+0x28>
10006ec4:	2000adec 	.word	0x2000adec

10006ec8 <stdio_uart_init>:
10006ec8:	21e1      	movs	r1, #225	; 0xe1
10006eca:	b510      	push	{r4, lr}
10006ecc:	4b0b      	ldr	r3, [pc, #44]	; (10006efc <stdio_uart_init+0x34>)
10006ece:	480c      	ldr	r0, [pc, #48]	; (10006f00 <stdio_uart_init+0x38>)
10006ed0:	781b      	ldrb	r3, [r3, #0]
10006ed2:	4b0c      	ldr	r3, [pc, #48]	; (10006f04 <stdio_uart_init+0x3c>)
10006ed4:	0249      	lsls	r1, r1, #9
10006ed6:	781b      	ldrb	r3, [r3, #0]
10006ed8:	4b0b      	ldr	r3, [pc, #44]	; (10006f08 <stdio_uart_init+0x40>)
10006eda:	6018      	str	r0, [r3, #0]
10006edc:	f7fd fbde 	bl	1000469c <uart_init>
10006ee0:	2102      	movs	r1, #2
10006ee2:	2000      	movs	r0, #0
10006ee4:	f7fc fb46 	bl	10003574 <gpio_set_function>
10006ee8:	2102      	movs	r1, #2
10006eea:	2001      	movs	r0, #1
10006eec:	f7fc fb42 	bl	10003574 <gpio_set_function>
10006ef0:	2101      	movs	r1, #1
10006ef2:	4806      	ldr	r0, [pc, #24]	; (10006f0c <stdio_uart_init+0x44>)
10006ef4:	f7ff ff14 	bl	10006d20 <stdio_set_driver_enabled>
10006ef8:	bd10      	pop	{r4, pc}
10006efa:	46c0      	nop			; (mov r8, r8)
10006efc:	10041618 	.word	0x10041618
10006f00:	40034000 	.word	0x40034000
10006f04:	1004161c 	.word	0x1004161c
10006f08:	2000adec 	.word	0x2000adec
10006f0c:	20000480 	.word	0x20000480

10006f10 <pio_sm_unclaim>:
10006f10:	4b05      	ldr	r3, [pc, #20]	; (10006f28 <pio_sm_unclaim+0x18>)
10006f12:	b510      	push	{r4, lr}
10006f14:	469c      	mov	ip, r3
10006f16:	4460      	add	r0, ip
10006f18:	4243      	negs	r3, r0
10006f1a:	4158      	adcs	r0, r3
10006f1c:	0080      	lsls	r0, r0, #2
10006f1e:	1841      	adds	r1, r0, r1
10006f20:	4802      	ldr	r0, [pc, #8]	; (10006f2c <pio_sm_unclaim+0x1c>)
10006f22:	f7f9 fb7f 	bl	10000624 <hw_claim_clear>
10006f26:	bd10      	pop	{r4, pc}
10006f28:	afd00000 	.word	0xafd00000
10006f2c:	2000ae01 	.word	0x2000ae01

10006f30 <pio_claim_unused_sm>:
10006f30:	4b0b      	ldr	r3, [pc, #44]	; (10006f60 <pio_claim_unused_sm+0x30>)
10006f32:	b510      	push	{r4, lr}
10006f34:	469c      	mov	ip, r3
10006f36:	4460      	add	r0, ip
10006f38:	4243      	negs	r3, r0
10006f3a:	4158      	adcs	r0, r3
10006f3c:	4a09      	ldr	r2, [pc, #36]	; (10006f64 <pio_claim_unused_sm+0x34>)
10006f3e:	0084      	lsls	r4, r0, #2
10006f40:	b082      	sub	sp, #8
10006f42:	9200      	str	r2, [sp, #0]
10006f44:	4808      	ldr	r0, [pc, #32]	; (10006f68 <pio_claim_unused_sm+0x38>)
10006f46:	0022      	movs	r2, r4
10006f48:	1ce3      	adds	r3, r4, #3
10006f4a:	f7f9 fb1d 	bl	10000588 <hw_claim_unused_from_range>
10006f4e:	4284      	cmp	r4, r0
10006f50:	dc02      	bgt.n	10006f58 <pio_claim_unused_sm+0x28>
10006f52:	1b00      	subs	r0, r0, r4
10006f54:	b002      	add	sp, #8
10006f56:	bd10      	pop	{r4, pc}
10006f58:	2001      	movs	r0, #1
10006f5a:	4240      	negs	r0, r0
10006f5c:	e7fa      	b.n	10006f54 <pio_claim_unused_sm+0x24>
10006f5e:	46c0      	nop			; (mov r8, r8)
10006f60:	afd00000 	.word	0xafd00000
10006f64:	1000a524 	.word	0x1000a524
10006f68:	2000ae01 	.word	0x2000ae01

10006f6c <pio_can_add_program>:
10006f6c:	b570      	push	{r4, r5, r6, lr}
10006f6e:	000e      	movs	r6, r1
10006f70:	0004      	movs	r4, r0
10006f72:	f7f9 fad1 	bl	10000518 <hw_claim_lock>
10006f76:	4a15      	ldr	r2, [pc, #84]	; (10006fcc <pio_can_add_program+0x60>)
10006f78:	4b15      	ldr	r3, [pc, #84]	; (10006fd0 <pio_can_add_program+0x64>)
10006f7a:	4694      	mov	ip, r2
10006f7c:	4464      	add	r4, ip
10006f7e:	4262      	negs	r2, r4
10006f80:	4154      	adcs	r4, r2
10006f82:	2201      	movs	r2, #1
10006f84:	00a4      	lsls	r4, r4, #2
10006f86:	58e5      	ldr	r5, [r4, r3]
10006f88:	2105      	movs	r1, #5
10006f8a:	7934      	ldrb	r4, [r6, #4]
10006f8c:	2320      	movs	r3, #32
10006f8e:	40a2      	lsls	r2, r4
10006f90:	5671      	ldrsb	r1, [r6, r1]
10006f92:	3a01      	subs	r2, #1
10006f94:	1b1b      	subs	r3, r3, r4
10006f96:	2900      	cmp	r1, #0
10006f98:	db0b      	blt.n	10006fb2 <pio_can_add_program+0x46>
10006f9a:	4299      	cmp	r1, r3
10006f9c:	dc14      	bgt.n	10006fc8 <pio_can_add_program+0x5c>
10006f9e:	408a      	lsls	r2, r1
10006fa0:	0014      	movs	r4, r2
10006fa2:	402c      	ands	r4, r5
10006fa4:	4263      	negs	r3, r4
10006fa6:	415c      	adcs	r4, r3
10006fa8:	b2e4      	uxtb	r4, r4
10006faa:	f7f9 fac1 	bl	10000530 <hw_claim_unlock>
10006fae:	0020      	movs	r0, r4
10006fb0:	bd70      	pop	{r4, r5, r6, pc}
10006fb2:	2b00      	cmp	r3, #0
10006fb4:	da02      	bge.n	10006fbc <pio_can_add_program+0x50>
10006fb6:	e007      	b.n	10006fc8 <pio_can_add_program+0x5c>
10006fb8:	3b01      	subs	r3, #1
10006fba:	d305      	bcc.n	10006fc8 <pio_can_add_program+0x5c>
10006fbc:	0011      	movs	r1, r2
10006fbe:	4099      	lsls	r1, r3
10006fc0:	420d      	tst	r5, r1
10006fc2:	d1f9      	bne.n	10006fb8 <pio_can_add_program+0x4c>
10006fc4:	2401      	movs	r4, #1
10006fc6:	e7f0      	b.n	10006faa <pio_can_add_program+0x3e>
10006fc8:	2400      	movs	r4, #0
10006fca:	e7ee      	b.n	10006faa <pio_can_add_program+0x3e>
10006fcc:	afd00000 	.word	0xafd00000
10006fd0:	200006b8 	.word	0x200006b8

10006fd4 <pio_add_program>:
10006fd4:	b5f0      	push	{r4, r5, r6, r7, lr}
10006fd6:	46d6      	mov	lr, sl
10006fd8:	464f      	mov	r7, r9
10006fda:	4646      	mov	r6, r8
10006fdc:	4688      	mov	r8, r1
10006fde:	b5c0      	push	{r6, r7, lr}
10006fe0:	2405      	movs	r4, #5
10006fe2:	0006      	movs	r6, r0
10006fe4:	f7f9 fa98 	bl	10000518 <hw_claim_lock>
10006fe8:	4643      	mov	r3, r8
10006fea:	791f      	ldrb	r7, [r3, #4]
10006fec:	571c      	ldrsb	r4, [r3, r4]
10006fee:	4b29      	ldr	r3, [pc, #164]	; (10007094 <pio_add_program+0xc0>)
10006ff0:	4681      	mov	r9, r0
10006ff2:	18f0      	adds	r0, r6, r3
10006ff4:	4243      	negs	r3, r0
10006ff6:	4158      	adcs	r0, r3
10006ff8:	4b27      	ldr	r3, [pc, #156]	; (10007098 <pio_add_program+0xc4>)
10006ffa:	469a      	mov	sl, r3
10006ffc:	0083      	lsls	r3, r0, #2
10006ffe:	469c      	mov	ip, r3
10007000:	4653      	mov	r3, sl
10007002:	4662      	mov	r2, ip
10007004:	5898      	ldr	r0, [r3, r2]
10007006:	2201      	movs	r2, #1
10007008:	2320      	movs	r3, #32
1000700a:	40ba      	lsls	r2, r7
1000700c:	1bdb      	subs	r3, r3, r7
1000700e:	3a01      	subs	r2, #1
10007010:	2c00      	cmp	r4, #0
10007012:	db34      	blt.n	1000707e <pio_add_program+0xaa>
10007014:	429c      	cmp	r4, r3
10007016:	dc2f      	bgt.n	10007078 <pio_add_program+0xa4>
10007018:	40a2      	lsls	r2, r4
1000701a:	0015      	movs	r5, r2
1000701c:	4210      	tst	r0, r2
1000701e:	d12b      	bne.n	10007078 <pio_add_program+0xa4>
10007020:	2f00      	cmp	r7, #0
10007022:	d01c      	beq.n	1000705e <pio_add_program+0x8a>
10007024:	4642      	mov	r2, r8
10007026:	4643      	mov	r3, r8
10007028:	7852      	ldrb	r2, [r2, #1]
1000702a:	781b      	ldrb	r3, [r3, #0]
1000702c:	0212      	lsls	r2, r2, #8
1000702e:	431a      	orrs	r2, r3
10007030:	4643      	mov	r3, r8
10007032:	789b      	ldrb	r3, [r3, #2]
10007034:	041b      	lsls	r3, r3, #16
10007036:	4313      	orrs	r3, r2
10007038:	4642      	mov	r2, r8
1000703a:	78d2      	ldrb	r2, [r2, #3]
1000703c:	0612      	lsls	r2, r2, #24
1000703e:	431a      	orrs	r2, r3
10007040:	4690      	mov	r8, r2
10007042:	2200      	movs	r2, #0
10007044:	4641      	mov	r1, r8
10007046:	0053      	lsls	r3, r2, #1
10007048:	5ac9      	ldrh	r1, [r1, r3]
1000704a:	0b4b      	lsrs	r3, r1, #13
1000704c:	d100      	bne.n	10007050 <pio_add_program+0x7c>
1000704e:	1909      	adds	r1, r1, r4
10007050:	1913      	adds	r3, r2, r4
10007052:	3312      	adds	r3, #18
10007054:	009b      	lsls	r3, r3, #2
10007056:	3201      	adds	r2, #1
10007058:	5199      	str	r1, [r3, r6]
1000705a:	4297      	cmp	r7, r2
1000705c:	d8f2      	bhi.n	10007044 <pio_add_program+0x70>
1000705e:	4653      	mov	r3, sl
10007060:	4662      	mov	r2, ip
10007062:	4305      	orrs	r5, r0
10007064:	509d      	str	r5, [r3, r2]
10007066:	4648      	mov	r0, r9
10007068:	f7f9 fa62 	bl	10000530 <hw_claim_unlock>
1000706c:	0020      	movs	r0, r4
1000706e:	bce0      	pop	{r5, r6, r7}
10007070:	46ba      	mov	sl, r7
10007072:	46b1      	mov	r9, r6
10007074:	46a8      	mov	r8, r5
10007076:	bdf0      	pop	{r4, r5, r6, r7, pc}
10007078:	4808      	ldr	r0, [pc, #32]	; (1000709c <pio_add_program+0xc8>)
1000707a:	f7fd fbf9 	bl	10004870 <panic>
1000707e:	2b00      	cmp	r3, #0
10007080:	da02      	bge.n	10007088 <pio_add_program+0xb4>
10007082:	e7f9      	b.n	10007078 <pio_add_program+0xa4>
10007084:	3b01      	subs	r3, #1
10007086:	d3f7      	bcc.n	10007078 <pio_add_program+0xa4>
10007088:	0015      	movs	r5, r2
1000708a:	409d      	lsls	r5, r3
1000708c:	001c      	movs	r4, r3
1000708e:	4205      	tst	r5, r0
10007090:	d1f8      	bne.n	10007084 <pio_add_program+0xb0>
10007092:	e7c5      	b.n	10007020 <pio_add_program+0x4c>
10007094:	afd00000 	.word	0xafd00000
10007098:	200006b8 	.word	0x200006b8
1000709c:	1000a548 	.word	0x1000a548

100070a0 <pio_remove_program>:
100070a0:	b570      	push	{r4, r5, r6, lr}
100070a2:	2501      	movs	r5, #1
100070a4:	790b      	ldrb	r3, [r1, #4]
100070a6:	0004      	movs	r4, r0
100070a8:	409d      	lsls	r5, r3
100070aa:	3d01      	subs	r5, #1
100070ac:	4095      	lsls	r5, r2
100070ae:	f7f9 fa33 	bl	10000518 <hw_claim_lock>
100070b2:	4b06      	ldr	r3, [pc, #24]	; (100070cc <pio_remove_program+0x2c>)
100070b4:	4906      	ldr	r1, [pc, #24]	; (100070d0 <pio_remove_program+0x30>)
100070b6:	469c      	mov	ip, r3
100070b8:	4464      	add	r4, ip
100070ba:	4263      	negs	r3, r4
100070bc:	415c      	adcs	r4, r3
100070be:	00a4      	lsls	r4, r4, #2
100070c0:	5862      	ldr	r2, [r4, r1]
100070c2:	43aa      	bics	r2, r5
100070c4:	5062      	str	r2, [r4, r1]
100070c6:	f7f9 fa33 	bl	10000530 <hw_claim_unlock>
100070ca:	bd70      	pop	{r4, r5, r6, pc}
100070cc:	afd00000 	.word	0xafd00000
100070d0:	200006b8 	.word	0x200006b8

100070d4 <pio_sm_set_pindirs_with_mask>:
100070d4:	b5f0      	push	{r4, r5, r6, r7, lr}
100070d6:	46de      	mov	lr, fp
100070d8:	4657      	mov	r7, sl
100070da:	464e      	mov	r6, r9
100070dc:	4645      	mov	r5, r8
100070de:	001c      	movs	r4, r3
100070e0:	004b      	lsls	r3, r1, #1
100070e2:	b5e0      	push	{r5, r6, r7, lr}
100070e4:	468b      	mov	fp, r1
100070e6:	001d      	movs	r5, r3
100070e8:	4684      	mov	ip, r0
100070ea:	445d      	add	r5, fp
100070ec:	00ed      	lsls	r5, r5, #3
100070ee:	4465      	add	r5, ip
100070f0:	002f      	movs	r7, r5
100070f2:	b085      	sub	sp, #20
100070f4:	37dc      	adds	r7, #220	; 0xdc
100070f6:	9303      	str	r3, [sp, #12]
100070f8:	683b      	ldr	r3, [r7, #0]
100070fa:	0016      	movs	r6, r2
100070fc:	9002      	str	r0, [sp, #8]
100070fe:	9301      	str	r3, [sp, #4]
10007100:	2c00      	cmp	r4, #0
10007102:	d018      	beq.n	10007136 <pio_sm_set_pindirs_with_mask+0x62>
10007104:	2380      	movs	r3, #128	; 0x80
10007106:	04db      	lsls	r3, r3, #19
10007108:	469a      	mov	sl, r3
1000710a:	2301      	movs	r3, #1
1000710c:	4699      	mov	r9, r3
1000710e:	4b12      	ldr	r3, [pc, #72]	; (10007158 <pio_sm_set_pindirs_with_mask+0x84>)
10007110:	35d8      	adds	r5, #216	; 0xd8
10007112:	4698      	mov	r8, r3
10007114:	0020      	movs	r0, r4
10007116:	f7ff f873 	bl	10006200 <__wrap___ctzsi2>
1000711a:	4652      	mov	r2, sl
1000711c:	0143      	lsls	r3, r0, #5
1000711e:	4313      	orrs	r3, r2
10007120:	603b      	str	r3, [r7, #0]
10007122:	0033      	movs	r3, r6
10007124:	464a      	mov	r2, r9
10007126:	40c3      	lsrs	r3, r0
10007128:	4013      	ands	r3, r2
1000712a:	4642      	mov	r2, r8
1000712c:	4313      	orrs	r3, r2
1000712e:	602b      	str	r3, [r5, #0]
10007130:	1e63      	subs	r3, r4, #1
10007132:	401c      	ands	r4, r3
10007134:	d1ee      	bne.n	10007114 <pio_sm_set_pindirs_with_mask+0x40>
10007136:	9a02      	ldr	r2, [sp, #8]
10007138:	9b03      	ldr	r3, [sp, #12]
1000713a:	4694      	mov	ip, r2
1000713c:	445b      	add	r3, fp
1000713e:	00db      	lsls	r3, r3, #3
10007140:	9a01      	ldr	r2, [sp, #4]
10007142:	4463      	add	r3, ip
10007144:	33dc      	adds	r3, #220	; 0xdc
10007146:	601a      	str	r2, [r3, #0]
10007148:	b005      	add	sp, #20
1000714a:	bcf0      	pop	{r4, r5, r6, r7}
1000714c:	46bb      	mov	fp, r7
1000714e:	46b2      	mov	sl, r6
10007150:	46a9      	mov	r9, r5
10007152:	46a0      	mov	r8, r4
10007154:	bdf0      	pop	{r4, r5, r6, r7, pc}
10007156:	46c0      	nop			; (mov r8, r8)
10007158:	0000e080 	.word	0x0000e080

1000715c <pio_sm_set_consecutive_pindirs>:
1000715c:	b5f0      	push	{r4, r5, r6, r7, lr}
1000715e:	464e      	mov	r6, r9
10007160:	4645      	mov	r5, r8
10007162:	46de      	mov	lr, fp
10007164:	4657      	mov	r7, sl
10007166:	468a      	mov	sl, r1
10007168:	0049      	lsls	r1, r1, #1
1000716a:	b5e0      	push	{r5, r6, r7, lr}
1000716c:	000d      	movs	r5, r1
1000716e:	4680      	mov	r8, r0
10007170:	4455      	add	r5, sl
10007172:	00ed      	lsls	r5, r5, #3
10007174:	4445      	add	r5, r8
10007176:	4689      	mov	r9, r1
10007178:	0029      	movs	r1, r5
1000717a:	ac09      	add	r4, sp, #36	; 0x24
1000717c:	31dc      	adds	r1, #220	; 0xdc
1000717e:	6808      	ldr	r0, [r1, #0]
10007180:	7824      	ldrb	r4, [r4, #0]
10007182:	4684      	mov	ip, r0
10007184:	1e66      	subs	r6, r4, #1
10007186:	41b4      	sbcs	r4, r6
10007188:	4814      	ldr	r0, [pc, #80]	; (100071dc <pio_sm_set_consecutive_pindirs+0x80>)
1000718a:	261f      	movs	r6, #31
1000718c:	4683      	mov	fp, r0
1000718e:	4264      	negs	r4, r4
10007190:	4026      	ands	r6, r4
10007192:	445e      	add	r6, fp
10007194:	2b05      	cmp	r3, #5
10007196:	d90c      	bls.n	100071b2 <pio_sm_set_consecutive_pindirs+0x56>
10007198:	20a0      	movs	r0, #160	; 0xa0
1000719a:	271f      	movs	r7, #31
1000719c:	0540      	lsls	r0, r0, #21
1000719e:	35d8      	adds	r5, #216	; 0xd8
100071a0:	0154      	lsls	r4, r2, #5
100071a2:	4304      	orrs	r4, r0
100071a4:	3205      	adds	r2, #5
100071a6:	3b05      	subs	r3, #5
100071a8:	600c      	str	r4, [r1, #0]
100071aa:	403a      	ands	r2, r7
100071ac:	602e      	str	r6, [r5, #0]
100071ae:	2b05      	cmp	r3, #5
100071b0:	d8f6      	bhi.n	100071a0 <pio_sm_set_consecutive_pindirs+0x44>
100071b2:	464f      	mov	r7, r9
100071b4:	4457      	add	r7, sl
100071b6:	00ff      	lsls	r7, r7, #3
100071b8:	0038      	movs	r0, r7
100071ba:	0152      	lsls	r2, r2, #5
100071bc:	4440      	add	r0, r8
100071be:	069b      	lsls	r3, r3, #26
100071c0:	4313      	orrs	r3, r2
100071c2:	0002      	movs	r2, r0
100071c4:	32dc      	adds	r2, #220	; 0xdc
100071c6:	6013      	str	r3, [r2, #0]
100071c8:	4663      	mov	r3, ip
100071ca:	30d8      	adds	r0, #216	; 0xd8
100071cc:	6006      	str	r6, [r0, #0]
100071ce:	6013      	str	r3, [r2, #0]
100071d0:	bcf0      	pop	{r4, r5, r6, r7}
100071d2:	46bb      	mov	fp, r7
100071d4:	46b2      	mov	sl, r6
100071d6:	46a9      	mov	r9, r5
100071d8:	46a0      	mov	r8, r4
100071da:	bdf0      	pop	{r4, r5, r6, r7, pc}
100071dc:	0000e080 	.word	0x0000e080

100071e0 <dma_channel_unclaim>:
100071e0:	b510      	push	{r4, lr}
100071e2:	4b03      	ldr	r3, [pc, #12]	; (100071f0 <dma_channel_unclaim+0x10>)
100071e4:	0001      	movs	r1, r0
100071e6:	0018      	movs	r0, r3
100071e8:	f7f9 fa1c 	bl	10000624 <hw_claim_clear>
100071ec:	bd10      	pop	{r4, pc}
100071ee:	46c0      	nop			; (mov r8, r8)
100071f0:	2000adf8 	.word	0x2000adf8

100071f4 <dma_claim_unused_channel>:
100071f4:	b510      	push	{r4, lr}
100071f6:	4b06      	ldr	r3, [pc, #24]	; (10007210 <dma_claim_unused_channel+0x1c>)
100071f8:	4c06      	ldr	r4, [pc, #24]	; (10007214 <dma_claim_unused_channel+0x20>)
100071fa:	b082      	sub	sp, #8
100071fc:	0001      	movs	r1, r0
100071fe:	9300      	str	r3, [sp, #0]
10007200:	2200      	movs	r2, #0
10007202:	230b      	movs	r3, #11
10007204:	0020      	movs	r0, r4
10007206:	f7f9 f9bf 	bl	10000588 <hw_claim_unused_from_range>
1000720a:	b002      	add	sp, #8
1000720c:	bd10      	pop	{r4, pc}
1000720e:	46c0      	nop			; (mov r8, r8)
10007210:	1000a55c 	.word	0x1000a55c
10007214:	2000adf8 	.word	0x2000adf8

10007218 <lwip_htons>:
10007218:	ba40      	rev16	r0, r0
1000721a:	b280      	uxth	r0, r0
1000721c:	4770      	bx	lr
1000721e:	46c0      	nop			; (mov r8, r8)

10007220 <lwip_htonl>:
10007220:	ba00      	rev	r0, r0
10007222:	4770      	bx	lr

10007224 <lwip_standard_chksum>:
10007224:	2301      	movs	r3, #1
10007226:	b5f0      	push	{r4, r5, r6, r7, lr}
10007228:	001e      	movs	r6, r3
1000722a:	2500      	movs	r5, #0
1000722c:	4006      	ands	r6, r0
1000722e:	4218      	tst	r0, r3
10007230:	d005      	beq.n	1000723e <lwip_standard_chksum+0x1a>
10007232:	2900      	cmp	r1, #0
10007234:	dd03      	ble.n	1000723e <lwip_standard_chksum+0x1a>
10007236:	7805      	ldrb	r5, [r0, #0]
10007238:	3901      	subs	r1, #1
1000723a:	022d      	lsls	r5, r5, #8
1000723c:	3001      	adds	r0, #1
1000723e:	2203      	movs	r2, #3
10007240:	0013      	movs	r3, r2
10007242:	4003      	ands	r3, r0
10007244:	4210      	tst	r0, r2
10007246:	d005      	beq.n	10007254 <lwip_standard_chksum+0x30>
10007248:	2300      	movs	r3, #0
1000724a:	2901      	cmp	r1, #1
1000724c:	dd38      	ble.n	100072c0 <lwip_standard_chksum+0x9c>
1000724e:	8803      	ldrh	r3, [r0, #0]
10007250:	3902      	subs	r1, #2
10007252:	3002      	adds	r0, #2
10007254:	2907      	cmp	r1, #7
10007256:	dd4c      	ble.n	100072f2 <lwip_standard_chksum+0xce>
10007258:	2207      	movs	r2, #7
1000725a:	3908      	subs	r1, #8
1000725c:	000f      	movs	r7, r1
1000725e:	4391      	bics	r1, r2
10007260:	0002      	movs	r2, r0
10007262:	0004      	movs	r4, r0
10007264:	3208      	adds	r2, #8
10007266:	1889      	adds	r1, r1, r2
10007268:	6822      	ldr	r2, [r4, #0]
1000726a:	189a      	adds	r2, r3, r2
1000726c:	429a      	cmp	r2, r3
1000726e:	419b      	sbcs	r3, r3
10007270:	425b      	negs	r3, r3
10007272:	18d2      	adds	r2, r2, r3
10007274:	6863      	ldr	r3, [r4, #4]
10007276:	3408      	adds	r4, #8
10007278:	18d3      	adds	r3, r2, r3
1000727a:	4293      	cmp	r3, r2
1000727c:	4192      	sbcs	r2, r2
1000727e:	4252      	negs	r2, r2
10007280:	189b      	adds	r3, r3, r2
10007282:	42a1      	cmp	r1, r4
10007284:	d1f0      	bne.n	10007268 <lwip_standard_chksum+0x44>
10007286:	08f9      	lsrs	r1, r7, #3
10007288:	1c4a      	adds	r2, r1, #1
1000728a:	00d2      	lsls	r2, r2, #3
1000728c:	1880      	adds	r0, r0, r2
1000728e:	00c9      	lsls	r1, r1, #3
10007290:	041a      	lsls	r2, r3, #16
10007292:	1a79      	subs	r1, r7, r1
10007294:	0c12      	lsrs	r2, r2, #16
10007296:	0c1b      	lsrs	r3, r3, #16
10007298:	189b      	adds	r3, r3, r2
1000729a:	2901      	cmp	r1, #1
1000729c:	dd10      	ble.n	100072c0 <lwip_standard_chksum+0x9c>
1000729e:	8802      	ldrh	r2, [r0, #0]
100072a0:	189b      	adds	r3, r3, r2
100072a2:	1e8a      	subs	r2, r1, #2
100072a4:	2a01      	cmp	r2, #1
100072a6:	dd05      	ble.n	100072b4 <lwip_standard_chksum+0x90>
100072a8:	8844      	ldrh	r4, [r0, #2]
100072aa:	191b      	adds	r3, r3, r4
100072ac:	2905      	cmp	r1, #5
100072ae:	dd01      	ble.n	100072b4 <lwip_standard_chksum+0x90>
100072b0:	8881      	ldrh	r1, [r0, #4]
100072b2:	185b      	adds	r3, r3, r1
100072b4:	0851      	lsrs	r1, r2, #1
100072b6:	1c4c      	adds	r4, r1, #1
100072b8:	0064      	lsls	r4, r4, #1
100072ba:	0049      	lsls	r1, r1, #1
100072bc:	1900      	adds	r0, r0, r4
100072be:	1a51      	subs	r1, r2, r1
100072c0:	2901      	cmp	r1, #1
100072c2:	d104      	bne.n	100072ce <lwip_standard_chksum+0xaa>
100072c4:	7802      	ldrb	r2, [r0, #0]
100072c6:	31fe      	adds	r1, #254	; 0xfe
100072c8:	438d      	bics	r5, r1
100072ca:	4315      	orrs	r5, r2
100072cc:	b2ad      	uxth	r5, r5
100072ce:	18ed      	adds	r5, r5, r3
100072d0:	0c2b      	lsrs	r3, r5, #16
100072d2:	042d      	lsls	r5, r5, #16
100072d4:	0c2d      	lsrs	r5, r5, #16
100072d6:	195b      	adds	r3, r3, r5
100072d8:	0c18      	lsrs	r0, r3, #16
100072da:	041b      	lsls	r3, r3, #16
100072dc:	0c1b      	lsrs	r3, r3, #16
100072de:	18c0      	adds	r0, r0, r3
100072e0:	2e00      	cmp	r6, #0
100072e2:	d004      	beq.n	100072ee <lwip_standard_chksum+0xca>
100072e4:	0603      	lsls	r3, r0, #24
100072e6:	0400      	lsls	r0, r0, #16
100072e8:	0c1b      	lsrs	r3, r3, #16
100072ea:	0e00      	lsrs	r0, r0, #24
100072ec:	4318      	orrs	r0, r3
100072ee:	b280      	uxth	r0, r0
100072f0:	bdf0      	pop	{r4, r5, r6, r7, pc}
100072f2:	001a      	movs	r2, r3
100072f4:	e7cf      	b.n	10007296 <lwip_standard_chksum+0x72>
100072f6:	46c0      	nop			; (mov r8, r8)

100072f8 <inet_chksum_pseudo>:
100072f8:	b5f8      	push	{r3, r4, r5, r6, r7, lr}
100072fa:	4657      	mov	r7, sl
100072fc:	4645      	mov	r5, r8
100072fe:	46de      	mov	lr, fp
10007300:	464e      	mov	r6, r9
10007302:	b5e0      	push	{r5, r6, r7, lr}
10007304:	4692      	mov	sl, r2
10007306:	9a0a      	ldr	r2, [sp, #40]	; 0x28
10007308:	4688      	mov	r8, r1
1000730a:	6811      	ldr	r1, [r2, #0]
1000730c:	681b      	ldr	r3, [r3, #0]
1000730e:	040a      	lsls	r2, r1, #16
10007310:	0c12      	lsrs	r2, r2, #16
10007312:	0c09      	lsrs	r1, r1, #16
10007314:	1852      	adds	r2, r2, r1
10007316:	0419      	lsls	r1, r3, #16
10007318:	0c09      	lsrs	r1, r1, #16
1000731a:	1852      	adds	r2, r2, r1
1000731c:	0c1b      	lsrs	r3, r3, #16
1000731e:	189b      	adds	r3, r3, r2
10007320:	0c1a      	lsrs	r2, r3, #16
10007322:	041b      	lsls	r3, r3, #16
10007324:	0c1b      	lsrs	r3, r3, #16
10007326:	18d3      	adds	r3, r2, r3
10007328:	0c1a      	lsrs	r2, r3, #16
1000732a:	041b      	lsls	r3, r3, #16
1000732c:	0c1f      	lsrs	r7, r3, #16
1000732e:	0004      	movs	r4, r0
10007330:	19d7      	adds	r7, r2, r7
10007332:	2800      	cmp	r0, #0
10007334:	d025      	beq.n	10007382 <inet_chksum_pseudo+0x8a>
10007336:	2300      	movs	r3, #0
10007338:	469b      	mov	fp, r3
1000733a:	33ff      	adds	r3, #255	; 0xff
1000733c:	2601      	movs	r6, #1
1000733e:	4699      	mov	r9, r3
10007340:	8965      	ldrh	r5, [r4, #10]
10007342:	6860      	ldr	r0, [r4, #4]
10007344:	0029      	movs	r1, r5
10007346:	f7ff ff6d 	bl	10007224 <lwip_standard_chksum>
1000734a:	19c0      	adds	r0, r0, r7
1000734c:	0c03      	lsrs	r3, r0, #16
1000734e:	0400      	lsls	r0, r0, #16
10007350:	0c07      	lsrs	r7, r0, #16
10007352:	19df      	adds	r7, r3, r7
10007354:	422e      	tst	r6, r5
10007356:	d009      	beq.n	1000736c <inet_chksum_pseudo+0x74>
10007358:	465b      	mov	r3, fp
1000735a:	4649      	mov	r1, r9
1000735c:	4073      	eors	r3, r6
1000735e:	063a      	lsls	r2, r7, #24
10007360:	469b      	mov	fp, r3
10007362:	0a3b      	lsrs	r3, r7, #8
10007364:	0c12      	lsrs	r2, r2, #16
10007366:	400b      	ands	r3, r1
10007368:	431a      	orrs	r2, r3
1000736a:	0017      	movs	r7, r2
1000736c:	6824      	ldr	r4, [r4, #0]
1000736e:	2c00      	cmp	r4, #0
10007370:	d1e6      	bne.n	10007340 <inet_chksum_pseudo+0x48>
10007372:	465b      	mov	r3, fp
10007374:	2b00      	cmp	r3, #0
10007376:	d004      	beq.n	10007382 <inet_chksum_pseudo+0x8a>
10007378:	063a      	lsls	r2, r7, #24
1000737a:	043f      	lsls	r7, r7, #16
1000737c:	0c12      	lsrs	r2, r2, #16
1000737e:	0e3f      	lsrs	r7, r7, #24
10007380:	4317      	orrs	r7, r2
10007382:	4643      	mov	r3, r8
10007384:	b298      	uxth	r0, r3
10007386:	f7ff ff47 	bl	10007218 <lwip_htons>
1000738a:	0004      	movs	r4, r0
1000738c:	4650      	mov	r0, sl
1000738e:	f7ff ff43 	bl	10007218 <lwip_htons>
10007392:	1820      	adds	r0, r4, r0
10007394:	19c0      	adds	r0, r0, r7
10007396:	0c03      	lsrs	r3, r0, #16
10007398:	0400      	lsls	r0, r0, #16
1000739a:	0c00      	lsrs	r0, r0, #16
1000739c:	181b      	adds	r3, r3, r0
1000739e:	0c18      	lsrs	r0, r3, #16
100073a0:	041b      	lsls	r3, r3, #16
100073a2:	0c1b      	lsrs	r3, r3, #16
100073a4:	18c0      	adds	r0, r0, r3
100073a6:	43c0      	mvns	r0, r0
100073a8:	b280      	uxth	r0, r0
100073aa:	bcf0      	pop	{r4, r5, r6, r7}
100073ac:	46bb      	mov	fp, r7
100073ae:	46b2      	mov	sl, r6
100073b0:	46a9      	mov	r9, r5
100073b2:	46a0      	mov	r8, r4
100073b4:	bdf8      	pop	{r3, r4, r5, r6, r7, pc}
100073b6:	46c0      	nop			; (mov r8, r8)

100073b8 <ip_chksum_pseudo>:
100073b8:	b510      	push	{r4, lr}
100073ba:	b082      	sub	sp, #8
100073bc:	9c04      	ldr	r4, [sp, #16]
100073be:	9400      	str	r4, [sp, #0]
100073c0:	f7ff ff9a 	bl	100072f8 <inet_chksum_pseudo>
100073c4:	b002      	add	sp, #8
100073c6:	bd10      	pop	{r4, pc}

100073c8 <inet_chksum>:
100073c8:	b510      	push	{r4, lr}
100073ca:	f7ff ff2b 	bl	10007224 <lwip_standard_chksum>
100073ce:	43c0      	mvns	r0, r0
100073d0:	b280      	uxth	r0, r0
100073d2:	bd10      	pop	{r4, pc}

100073d4 <mem_free>:
100073d4:	b5f0      	push	{r4, r5, r6, r7, lr}
100073d6:	46d6      	mov	lr, sl
100073d8:	464f      	mov	r7, r9
100073da:	4646      	mov	r6, r8
100073dc:	b5c0      	push	{r6, r7, lr}
100073de:	2800      	cmp	r0, #0
100073e0:	d025      	beq.n	1000742e <mem_free+0x5a>
100073e2:	0783      	lsls	r3, r0, #30
100073e4:	d11f      	bne.n	10007426 <mem_free+0x52>
100073e6:	0003      	movs	r3, r0
100073e8:	4a32      	ldr	r2, [pc, #200]	; (100074b4 <mem_free+0xe0>)
100073ea:	3b08      	subs	r3, #8
100073ec:	6812      	ldr	r2, [r2, #0]
100073ee:	429a      	cmp	r2, r3
100073f0:	d819      	bhi.n	10007426 <mem_free+0x52>
100073f2:	4931      	ldr	r1, [pc, #196]	; (100074b8 <mem_free+0xe4>)
100073f4:	300c      	adds	r0, #12
100073f6:	6809      	ldr	r1, [r1, #0]
100073f8:	4281      	cmp	r1, r0
100073fa:	d314      	bcc.n	10007426 <mem_free+0x52>
100073fc:	7918      	ldrb	r0, [r3, #4]
100073fe:	2800      	cmp	r0, #0
10007400:	d011      	beq.n	10007426 <mem_free+0x52>
10007402:	20fa      	movs	r0, #250	; 0xfa
10007404:	881c      	ldrh	r4, [r3, #0]
10007406:	0100      	lsls	r0, r0, #4
10007408:	4284      	cmp	r4, r0
1000740a:	d80c      	bhi.n	10007426 <mem_free+0x52>
1000740c:	885d      	ldrh	r5, [r3, #2]
1000740e:	4285      	cmp	r5, r0
10007410:	d809      	bhi.n	10007426 <mem_free+0x52>
10007412:	1a98      	subs	r0, r3, r2
10007414:	b280      	uxth	r0, r0
10007416:	4684      	mov	ip, r0
10007418:	1950      	adds	r0, r2, r5
1000741a:	4682      	mov	sl, r0
1000741c:	45ac      	cmp	ip, r5
1000741e:	d00b      	beq.n	10007438 <mem_free+0x64>
10007420:	8800      	ldrh	r0, [r0, #0]
10007422:	4560      	cmp	r0, ip
10007424:	d008      	beq.n	10007438 <mem_free+0x64>
10007426:	f002 f997 	bl	10009758 <sys_arch_protect>
1000742a:	f002 f997 	bl	1000975c <sys_arch_unprotect>
1000742e:	bce0      	pop	{r5, r6, r7}
10007430:	46ba      	mov	sl, r7
10007432:	46b1      	mov	r9, r6
10007434:	46a8      	mov	r8, r5
10007436:	bdf0      	pop	{r4, r5, r6, r7, pc}
10007438:	1910      	adds	r0, r2, r4
1000743a:	4281      	cmp	r1, r0
1000743c:	d002      	beq.n	10007444 <mem_free+0x70>
1000743e:	8847      	ldrh	r7, [r0, #2]
10007440:	4567      	cmp	r7, ip
10007442:	d1f0      	bne.n	10007426 <mem_free+0x52>
10007444:	2700      	movs	r7, #0
10007446:	711f      	strb	r7, [r3, #4]
10007448:	4f1c      	ldr	r7, [pc, #112]	; (100074bc <mem_free+0xe8>)
1000744a:	683e      	ldr	r6, [r7, #0]
1000744c:	46b0      	mov	r8, r6
1000744e:	429e      	cmp	r6, r3
10007450:	d901      	bls.n	10007456 <mem_free+0x82>
10007452:	4698      	mov	r8, r3
10007454:	603b      	str	r3, [r7, #0]
10007456:	4283      	cmp	r3, r0
10007458:	d013      	beq.n	10007482 <mem_free+0xae>
1000745a:	7906      	ldrb	r6, [r0, #4]
1000745c:	2e00      	cmp	r6, #0
1000745e:	d110      	bne.n	10007482 <mem_free+0xae>
10007460:	4281      	cmp	r1, r0
10007462:	d00e      	beq.n	10007482 <mem_free+0xae>
10007464:	4540      	cmp	r0, r8
10007466:	d01f      	beq.n	100074a8 <mem_free+0xd4>
10007468:	8804      	ldrh	r4, [r0, #0]
1000746a:	801c      	strh	r4, [r3, #0]
1000746c:	8801      	ldrh	r1, [r0, #0]
1000746e:	20fa      	movs	r0, #250	; 0xfa
10007470:	0100      	lsls	r0, r0, #4
10007472:	4281      	cmp	r1, r0
10007474:	d005      	beq.n	10007482 <mem_free+0xae>
10007476:	4660      	mov	r0, ip
10007478:	1851      	adds	r1, r2, r1
1000747a:	8048      	strh	r0, [r1, #2]
1000747c:	885d      	ldrh	r5, [r3, #2]
1000747e:	1951      	adds	r1, r2, r5
10007480:	468a      	mov	sl, r1
10007482:	4553      	cmp	r3, sl
10007484:	d0d3      	beq.n	1000742e <mem_free+0x5a>
10007486:	4651      	mov	r1, sl
10007488:	7909      	ldrb	r1, [r1, #4]
1000748a:	2900      	cmp	r1, #0
1000748c:	d1cf      	bne.n	1000742e <mem_free+0x5a>
1000748e:	6839      	ldr	r1, [r7, #0]
10007490:	428b      	cmp	r3, r1
10007492:	d00b      	beq.n	100074ac <mem_free+0xd8>
10007494:	4651      	mov	r1, sl
10007496:	800c      	strh	r4, [r1, #0]
10007498:	21fa      	movs	r1, #250	; 0xfa
1000749a:	881b      	ldrh	r3, [r3, #0]
1000749c:	0109      	lsls	r1, r1, #4
1000749e:	428b      	cmp	r3, r1
100074a0:	d0c5      	beq.n	1000742e <mem_free+0x5a>
100074a2:	18d2      	adds	r2, r2, r3
100074a4:	8055      	strh	r5, [r2, #2]
100074a6:	e7c2      	b.n	1000742e <mem_free+0x5a>
100074a8:	603b      	str	r3, [r7, #0]
100074aa:	e7dd      	b.n	10007468 <mem_free+0x94>
100074ac:	4651      	mov	r1, sl
100074ae:	6039      	str	r1, [r7, #0]
100074b0:	e7f0      	b.n	10007494 <mem_free+0xc0>
100074b2:	46c0      	nop			; (mov r8, r8)
100074b4:	2000aca4 	.word	0x2000aca4
100074b8:	2000aca8 	.word	0x2000aca8
100074bc:	200012ec 	.word	0x200012ec

100074c0 <mem_trim>:
100074c0:	b5f0      	push	{r4, r5, r6, r7, lr}
100074c2:	46c6      	mov	lr, r8
100074c4:	4a37      	ldr	r2, [pc, #220]	; (100075a4 <mem_trim+0xe4>)
100074c6:	1ccb      	adds	r3, r1, #3
100074c8:	0004      	movs	r4, r0
100074ca:	b500      	push	{lr}
100074cc:	4013      	ands	r3, r2
100074ce:	2b0b      	cmp	r3, #11
100074d0:	d937      	bls.n	10007542 <mem_trim+0x82>
100074d2:	22fa      	movs	r2, #250	; 0xfa
100074d4:	0112      	lsls	r2, r2, #4
100074d6:	4293      	cmp	r3, r2
100074d8:	d836      	bhi.n	10007548 <mem_trim+0x88>
100074da:	4299      	cmp	r1, r3
100074dc:	d834      	bhi.n	10007548 <mem_trim+0x88>
100074de:	4a32      	ldr	r2, [pc, #200]	; (100075a8 <mem_trim+0xe8>)
100074e0:	6811      	ldr	r1, [r2, #0]
100074e2:	42a1      	cmp	r1, r4
100074e4:	d832      	bhi.n	1000754c <mem_trim+0x8c>
100074e6:	4a31      	ldr	r2, [pc, #196]	; (100075ac <mem_trim+0xec>)
100074e8:	6812      	ldr	r2, [r2, #0]
100074ea:	42a2      	cmp	r2, r4
100074ec:	d92e      	bls.n	1000754c <mem_trim+0x8c>
100074ee:	0026      	movs	r6, r4
100074f0:	3e08      	subs	r6, #8
100074f2:	8835      	ldrh	r5, [r6, #0]
100074f4:	1a70      	subs	r0, r6, r1
100074f6:	002a      	movs	r2, r5
100074f8:	b280      	uxth	r0, r0
100074fa:	3a08      	subs	r2, #8
100074fc:	1a12      	subs	r2, r2, r0
100074fe:	b292      	uxth	r2, r2
10007500:	429a      	cmp	r2, r3
10007502:	d321      	bcc.n	10007548 <mem_trim+0x88>
10007504:	d046      	beq.n	10007594 <mem_trim+0xd4>
10007506:	194f      	adds	r7, r1, r5
10007508:	46bc      	mov	ip, r7
1000750a:	793f      	ldrb	r7, [r7, #4]
1000750c:	2f00      	cmp	r7, #0
1000750e:	d125      	bne.n	1000755c <mem_trim+0x9c>
10007510:	4662      	mov	r2, ip
10007512:	8817      	ldrh	r7, [r2, #0]
10007514:	0002      	movs	r2, r0
10007516:	4d26      	ldr	r5, [pc, #152]	; (100075b0 <mem_trim+0xf0>)
10007518:	3208      	adds	r2, #8
1000751a:	189b      	adds	r3, r3, r2
1000751c:	682a      	ldr	r2, [r5, #0]
1000751e:	b29b      	uxth	r3, r3
10007520:	4562      	cmp	r2, ip
10007522:	d03b      	beq.n	1000759c <mem_trim+0xdc>
10007524:	18ca      	adds	r2, r1, r3
10007526:	2500      	movs	r5, #0
10007528:	8050      	strh	r0, [r2, #2]
1000752a:	20fa      	movs	r0, #250	; 0xfa
1000752c:	7115      	strb	r5, [r2, #4]
1000752e:	8017      	strh	r7, [r2, #0]
10007530:	8033      	strh	r3, [r6, #0]
10007532:	8812      	ldrh	r2, [r2, #0]
10007534:	0100      	lsls	r0, r0, #4
10007536:	4282      	cmp	r2, r0
10007538:	d02c      	beq.n	10007594 <mem_trim+0xd4>
1000753a:	188a      	adds	r2, r1, r2
1000753c:	0020      	movs	r0, r4
1000753e:	8053      	strh	r3, [r2, #2]
10007540:	e009      	b.n	10007556 <mem_trim+0x96>
10007542:	230c      	movs	r3, #12
10007544:	4299      	cmp	r1, r3
10007546:	d9ca      	bls.n	100074de <mem_trim+0x1e>
10007548:	2000      	movs	r0, #0
1000754a:	e004      	b.n	10007556 <mem_trim+0x96>
1000754c:	f002 f904 	bl	10009758 <sys_arch_protect>
10007550:	f002 f904 	bl	1000975c <sys_arch_unprotect>
10007554:	0020      	movs	r0, r4
10007556:	bc80      	pop	{r7}
10007558:	46b8      	mov	r8, r7
1000755a:	bdf0      	pop	{r4, r5, r6, r7, pc}
1000755c:	001f      	movs	r7, r3
1000755e:	3714      	adds	r7, #20
10007560:	b2bf      	uxth	r7, r7
10007562:	42ba      	cmp	r2, r7
10007564:	d316      	bcc.n	10007594 <mem_trim+0xd4>
10007566:	0002      	movs	r2, r0
10007568:	3208      	adds	r2, #8
1000756a:	189b      	adds	r3, r3, r2
1000756c:	4f10      	ldr	r7, [pc, #64]	; (100075b0 <mem_trim+0xf0>)
1000756e:	b29b      	uxth	r3, r3
10007570:	4698      	mov	r8, r3
10007572:	18ca      	adds	r2, r1, r3
10007574:	683b      	ldr	r3, [r7, #0]
10007576:	4293      	cmp	r3, r2
10007578:	d80e      	bhi.n	10007598 <mem_trim+0xd8>
1000757a:	2700      	movs	r7, #0
1000757c:	4643      	mov	r3, r8
1000757e:	8050      	strh	r0, [r2, #2]
10007580:	20fa      	movs	r0, #250	; 0xfa
10007582:	7117      	strb	r7, [r2, #4]
10007584:	8015      	strh	r5, [r2, #0]
10007586:	8033      	strh	r3, [r6, #0]
10007588:	8812      	ldrh	r2, [r2, #0]
1000758a:	0100      	lsls	r0, r0, #4
1000758c:	4282      	cmp	r2, r0
1000758e:	d001      	beq.n	10007594 <mem_trim+0xd4>
10007590:	1889      	adds	r1, r1, r2
10007592:	804b      	strh	r3, [r1, #2]
10007594:	0020      	movs	r0, r4
10007596:	e7de      	b.n	10007556 <mem_trim+0x96>
10007598:	603a      	str	r2, [r7, #0]
1000759a:	e7ee      	b.n	1000757a <mem_trim+0xba>
1000759c:	18ca      	adds	r2, r1, r3
1000759e:	602a      	str	r2, [r5, #0]
100075a0:	e7c1      	b.n	10007526 <mem_trim+0x66>
100075a2:	46c0      	nop			; (mov r8, r8)
100075a4:	0000fffc 	.word	0x0000fffc
100075a8:	2000aca4 	.word	0x2000aca4
100075ac:	2000aca8 	.word	0x2000aca8
100075b0:	200012ec 	.word	0x200012ec

100075b4 <mem_malloc>:
100075b4:	b5f0      	push	{r4, r5, r6, r7, lr}
100075b6:	46ce      	mov	lr, r9
100075b8:	4647      	mov	r7, r8
100075ba:	b580      	push	{r7, lr}
100075bc:	2800      	cmp	r0, #0
100075be:	d02f      	beq.n	10007620 <mem_malloc+0x6c>
100075c0:	4b31      	ldr	r3, [pc, #196]	; (10007688 <mem_malloc+0xd4>)
100075c2:	1cc1      	adds	r1, r0, #3
100075c4:	4019      	ands	r1, r3
100075c6:	290b      	cmp	r1, #11
100075c8:	d92f      	bls.n	1000762a <mem_malloc+0x76>
100075ca:	23fa      	movs	r3, #250	; 0xfa
100075cc:	011b      	lsls	r3, r3, #4
100075ce:	4299      	cmp	r1, r3
100075d0:	d826      	bhi.n	10007620 <mem_malloc+0x6c>
100075d2:	4288      	cmp	r0, r1
100075d4:	d824      	bhi.n	10007620 <mem_malloc+0x6c>
100075d6:	4b2d      	ldr	r3, [pc, #180]	; (1000768c <mem_malloc+0xd8>)
100075d8:	22fa      	movs	r2, #250	; 0xfa
100075da:	469c      	mov	ip, r3
100075dc:	681b      	ldr	r3, [r3, #0]
100075de:	0112      	lsls	r2, r2, #4
100075e0:	4699      	mov	r9, r3
100075e2:	4b2b      	ldr	r3, [pc, #172]	; (10007690 <mem_malloc+0xdc>)
100075e4:	1a52      	subs	r2, r2, r1
100075e6:	681e      	ldr	r6, [r3, #0]
100075e8:	464b      	mov	r3, r9
100075ea:	1b9b      	subs	r3, r3, r6
100075ec:	b29c      	uxth	r4, r3
100075ee:	041b      	lsls	r3, r3, #16
100075f0:	4690      	mov	r8, r2
100075f2:	0c1b      	lsrs	r3, r3, #16
100075f4:	4293      	cmp	r3, r2
100075f6:	d213      	bcs.n	10007620 <mem_malloc+0x6c>
100075f8:	2708      	movs	r7, #8
100075fa:	427f      	negs	r7, r7
100075fc:	e008      	b.n	10007610 <mem_malloc+0x5c>
100075fe:	8805      	ldrh	r5, [r0, #0]
10007600:	1afb      	subs	r3, r7, r3
10007602:	195b      	adds	r3, r3, r5
10007604:	428b      	cmp	r3, r1
10007606:	d212      	bcs.n	1000762e <mem_malloc+0x7a>
10007608:	002b      	movs	r3, r5
1000760a:	002c      	movs	r4, r5
1000760c:	4598      	cmp	r8, r3
1000760e:	d907      	bls.n	10007620 <mem_malloc+0x6c>
10007610:	18f0      	adds	r0, r6, r3
10007612:	7902      	ldrb	r2, [r0, #4]
10007614:	2a00      	cmp	r2, #0
10007616:	d0f2      	beq.n	100075fe <mem_malloc+0x4a>
10007618:	8804      	ldrh	r4, [r0, #0]
1000761a:	0023      	movs	r3, r4
1000761c:	4598      	cmp	r8, r3
1000761e:	d8f7      	bhi.n	10007610 <mem_malloc+0x5c>
10007620:	2000      	movs	r0, #0
10007622:	bcc0      	pop	{r6, r7}
10007624:	46b9      	mov	r9, r7
10007626:	46b0      	mov	r8, r6
10007628:	bdf0      	pop	{r4, r5, r6, r7, pc}
1000762a:	210c      	movs	r1, #12
1000762c:	e7d1      	b.n	100075d2 <mem_malloc+0x1e>
1000762e:	2714      	movs	r7, #20
10007630:	46b8      	mov	r8, r7
10007632:	4488      	add	r8, r1
10007634:	4543      	cmp	r3, r8
10007636:	d311      	bcc.n	1000765c <mem_malloc+0xa8>
10007638:	3108      	adds	r1, #8
1000763a:	1861      	adds	r1, r4, r1
1000763c:	b28b      	uxth	r3, r1
1000763e:	18f1      	adds	r1, r6, r3
10007640:	710a      	strb	r2, [r1, #4]
10007642:	3201      	adds	r2, #1
10007644:	800d      	strh	r5, [r1, #0]
10007646:	804c      	strh	r4, [r1, #2]
10007648:	8003      	strh	r3, [r0, #0]
1000764a:	7102      	strb	r2, [r0, #4]
1000764c:	880a      	ldrh	r2, [r1, #0]
1000764e:	21fa      	movs	r1, #250	; 0xfa
10007650:	0109      	lsls	r1, r1, #4
10007652:	428a      	cmp	r2, r1
10007654:	d004      	beq.n	10007660 <mem_malloc+0xac>
10007656:	18b2      	adds	r2, r6, r2
10007658:	8053      	strh	r3, [r2, #2]
1000765a:	e001      	b.n	10007660 <mem_malloc+0xac>
1000765c:	2301      	movs	r3, #1
1000765e:	7103      	strb	r3, [r0, #4]
10007660:	4581      	cmp	r9, r0
10007662:	d001      	beq.n	10007668 <mem_malloc+0xb4>
10007664:	3008      	adds	r0, #8
10007666:	e7dc      	b.n	10007622 <mem_malloc+0x6e>
10007668:	4b0a      	ldr	r3, [pc, #40]	; (10007694 <mem_malloc+0xe0>)
1000766a:	6819      	ldr	r1, [r3, #0]
1000766c:	0003      	movs	r3, r0
1000766e:	e004      	b.n	1000767a <mem_malloc+0xc6>
10007670:	881b      	ldrh	r3, [r3, #0]
10007672:	18f3      	adds	r3, r6, r3
10007674:	791a      	ldrb	r2, [r3, #4]
10007676:	2a00      	cmp	r2, #0
10007678:	d001      	beq.n	1000767e <mem_malloc+0xca>
1000767a:	4299      	cmp	r1, r3
1000767c:	d1f8      	bne.n	10007670 <mem_malloc+0xbc>
1000767e:	4662      	mov	r2, ip
10007680:	3008      	adds	r0, #8
10007682:	6013      	str	r3, [r2, #0]
10007684:	e7cd      	b.n	10007622 <mem_malloc+0x6e>
10007686:	46c0      	nop			; (mov r8, r8)
10007688:	0000fffc 	.word	0x0000fffc
1000768c:	200012ec 	.word	0x200012ec
10007690:	2000aca4 	.word	0x2000aca4
10007694:	2000aca8 	.word	0x2000aca8

10007698 <memp_malloc>:
10007698:	b510      	push	{r4, lr}
1000769a:	2808      	cmp	r0, #8
1000769c:	d80e      	bhi.n	100076bc <memp_malloc+0x24>
1000769e:	4b0a      	ldr	r3, [pc, #40]	; (100076c8 <memp_malloc+0x30>)
100076a0:	0080      	lsls	r0, r0, #2
100076a2:	58c4      	ldr	r4, [r0, r3]
100076a4:	f002 f858 	bl	10009758 <sys_arch_protect>
100076a8:	68a3      	ldr	r3, [r4, #8]
100076aa:	681c      	ldr	r4, [r3, #0]
100076ac:	2c00      	cmp	r4, #0
100076ae:	d007      	beq.n	100076c0 <memp_malloc+0x28>
100076b0:	6822      	ldr	r2, [r4, #0]
100076b2:	601a      	str	r2, [r3, #0]
100076b4:	f002 f852 	bl	1000975c <sys_arch_unprotect>
100076b8:	0020      	movs	r0, r4
100076ba:	bd10      	pop	{r4, pc}
100076bc:	2400      	movs	r4, #0
100076be:	e7fb      	b.n	100076b8 <memp_malloc+0x20>
100076c0:	f002 f84c 	bl	1000975c <sys_arch_unprotect>
100076c4:	e7f8      	b.n	100076b8 <memp_malloc+0x20>
100076c6:	46c0      	nop			; (mov r8, r8)
100076c8:	1000a5e8 	.word	0x1000a5e8

100076cc <memp_free>:
100076cc:	b570      	push	{r4, r5, r6, lr}
100076ce:	000c      	movs	r4, r1
100076d0:	2808      	cmp	r0, #8
100076d2:	d80c      	bhi.n	100076ee <memp_free+0x22>
100076d4:	2900      	cmp	r1, #0
100076d6:	d00a      	beq.n	100076ee <memp_free+0x22>
100076d8:	4b05      	ldr	r3, [pc, #20]	; (100076f0 <memp_free+0x24>)
100076da:	0080      	lsls	r0, r0, #2
100076dc:	58c5      	ldr	r5, [r0, r3]
100076de:	f002 f83b 	bl	10009758 <sys_arch_protect>
100076e2:	68ab      	ldr	r3, [r5, #8]
100076e4:	681a      	ldr	r2, [r3, #0]
100076e6:	6022      	str	r2, [r4, #0]
100076e8:	601c      	str	r4, [r3, #0]
100076ea:	f002 f837 	bl	1000975c <sys_arch_unprotect>
100076ee:	bd70      	pop	{r4, r5, r6, pc}
100076f0:	1000a5e8 	.word	0x1000a5e8

100076f4 <netif_do_set_ipaddr.isra.0>:
100076f4:	b570      	push	{r4, r5, r6, lr}
100076f6:	6843      	ldr	r3, [r0, #4]
100076f8:	0016      	movs	r6, r2
100076fa:	680a      	ldr	r2, [r1, #0]
100076fc:	0004      	movs	r4, r0
100076fe:	000d      	movs	r5, r1
10007700:	b082      	sub	sp, #8
10007702:	429a      	cmp	r2, r3
10007704:	d101      	bne.n	1000770a <netif_do_set_ipaddr.isra.0+0x16>
10007706:	b002      	add	sp, #8
10007708:	bd70      	pop	{r4, r5, r6, pc}
1000770a:	6033      	str	r3, [r6, #0]
1000770c:	0030      	movs	r0, r6
1000770e:	a901      	add	r1, sp, #4
10007710:	9201      	str	r2, [sp, #4]
10007712:	f000 fc79 	bl	10008008 <tcp_netif_ip_addr_changed>
10007716:	0030      	movs	r0, r6
10007718:	a901      	add	r1, sp, #4
1000771a:	f001 f947 	bl	100089ac <udp_netif_ip_addr_changed>
1000771e:	a901      	add	r1, sp, #4
10007720:	0030      	movs	r0, r6
10007722:	f000 facf 	bl	10007cc4 <raw_netif_ip_addr_changed>
10007726:	2339      	movs	r3, #57	; 0x39
10007728:	6829      	ldr	r1, [r5, #0]
1000772a:	6061      	str	r1, [r4, #4]
1000772c:	5ce2      	ldrb	r2, [r4, r3]
1000772e:	3b34      	subs	r3, #52	; 0x34
10007730:	4013      	ands	r3, r2
10007732:	2b05      	cmp	r3, #5
10007734:	d005      	beq.n	10007742 <netif_do_set_ipaddr.isra.0+0x4e>
10007736:	69e3      	ldr	r3, [r4, #28]
10007738:	2b00      	cmp	r3, #0
1000773a:	d0e4      	beq.n	10007706 <netif_do_set_ipaddr.isra.0+0x12>
1000773c:	0020      	movs	r0, r4
1000773e:	4798      	blx	r3
10007740:	e7e1      	b.n	10007706 <netif_do_set_ipaddr.isra.0+0x12>
10007742:	2900      	cmp	r1, #0
10007744:	d0f7      	beq.n	10007736 <netif_do_set_ipaddr.isra.0+0x42>
10007746:	0712      	lsls	r2, r2, #28
10007748:	d5f5      	bpl.n	10007736 <netif_do_set_ipaddr.isra.0+0x42>
1000774a:	0020      	movs	r0, r4
1000774c:	1d21      	adds	r1, r4, #4
1000774e:	f001 fd27 	bl	100091a0 <etharp_request>
10007752:	e7f0      	b.n	10007736 <netif_do_set_ipaddr.isra.0+0x42>

10007754 <netif_set_addr>:
10007754:	b5f0      	push	{r4, r5, r6, r7, lr}
10007756:	0004      	movs	r4, r0
10007758:	000d      	movs	r5, r1
1000775a:	0017      	movs	r7, r2
1000775c:	001e      	movs	r6, r3
1000775e:	b083      	sub	sp, #12
10007760:	2900      	cmp	r1, #0
10007762:	d022      	beq.n	100077aa <netif_set_addr+0x56>
10007764:	2f00      	cmp	r7, #0
10007766:	d023      	beq.n	100077b0 <netif_set_addr+0x5c>
10007768:	2e00      	cmp	r6, #0
1000776a:	d024      	beq.n	100077b6 <netif_set_addr+0x62>
1000776c:	682b      	ldr	r3, [r5, #0]
1000776e:	2200      	movs	r2, #0
10007770:	2b00      	cmp	r3, #0
10007772:	d00d      	beq.n	10007790 <netif_set_addr+0x3c>
10007774:	683b      	ldr	r3, [r7, #0]
10007776:	68a1      	ldr	r1, [r4, #8]
10007778:	428b      	cmp	r3, r1
1000777a:	d000      	beq.n	1000777e <netif_set_addr+0x2a>
1000777c:	60a3      	str	r3, [r4, #8]
1000777e:	6833      	ldr	r3, [r6, #0]
10007780:	68e1      	ldr	r1, [r4, #12]
10007782:	428b      	cmp	r3, r1
10007784:	d000      	beq.n	10007788 <netif_set_addr+0x34>
10007786:	60e3      	str	r3, [r4, #12]
10007788:	2a00      	cmp	r2, #0
1000778a:	d008      	beq.n	1000779e <netif_set_addr+0x4a>
1000778c:	b003      	add	sp, #12
1000778e:	bdf0      	pop	{r4, r5, r6, r7, pc}
10007790:	aa01      	add	r2, sp, #4
10007792:	0029      	movs	r1, r5
10007794:	0020      	movs	r0, r4
10007796:	f7ff ffad 	bl	100076f4 <netif_do_set_ipaddr.isra.0>
1000779a:	2201      	movs	r2, #1
1000779c:	e7ea      	b.n	10007774 <netif_set_addr+0x20>
1000779e:	0029      	movs	r1, r5
100077a0:	0020      	movs	r0, r4
100077a2:	aa01      	add	r2, sp, #4
100077a4:	f7ff ffa6 	bl	100076f4 <netif_do_set_ipaddr.isra.0>
100077a8:	e7f0      	b.n	1000778c <netif_set_addr+0x38>
100077aa:	4d04      	ldr	r5, [pc, #16]	; (100077bc <netif_set_addr+0x68>)
100077ac:	2f00      	cmp	r7, #0
100077ae:	d1db      	bne.n	10007768 <netif_set_addr+0x14>
100077b0:	4f02      	ldr	r7, [pc, #8]	; (100077bc <netif_set_addr+0x68>)
100077b2:	2e00      	cmp	r6, #0
100077b4:	d1da      	bne.n	1000776c <netif_set_addr+0x18>
100077b6:	4e01      	ldr	r6, [pc, #4]	; (100077bc <netif_set_addr+0x68>)
100077b8:	e7d8      	b.n	1000776c <netif_set_addr+0x18>
100077ba:	46c0      	nop			; (mov r8, r8)
100077bc:	1000a60c 	.word	0x1000a60c

100077c0 <netif_remove>:
100077c0:	b570      	push	{r4, r5, r6, lr}
100077c2:	1e04      	subs	r4, r0, #0
100077c4:	d016      	beq.n	100077f4 <netif_remove+0x34>
100077c6:	6843      	ldr	r3, [r0, #4]
100077c8:	2b00      	cmp	r3, #0
100077ca:	d117      	bne.n	100077fc <netif_remove+0x3c>
100077cc:	2239      	movs	r2, #57	; 0x39
100077ce:	2101      	movs	r1, #1
100077d0:	5ca3      	ldrb	r3, [r4, r2]
100077d2:	4219      	tst	r1, r3
100077d4:	d124      	bne.n	10007820 <netif_remove+0x60>
100077d6:	4b1d      	ldr	r3, [pc, #116]	; (1000784c <netif_remove+0x8c>)
100077d8:	681a      	ldr	r2, [r3, #0]
100077da:	42a2      	cmp	r2, r4
100077dc:	d02e      	beq.n	1000783c <netif_remove+0x7c>
100077de:	4a1c      	ldr	r2, [pc, #112]	; (10007850 <netif_remove+0x90>)
100077e0:	6813      	ldr	r3, [r2, #0]
100077e2:	42a3      	cmp	r3, r4
100077e4:	d104      	bne.n	100077f0 <netif_remove+0x30>
100077e6:	e026      	b.n	10007836 <netif_remove+0x76>
100077e8:	681a      	ldr	r2, [r3, #0]
100077ea:	42a2      	cmp	r2, r4
100077ec:	d003      	beq.n	100077f6 <netif_remove+0x36>
100077ee:	0013      	movs	r3, r2
100077f0:	2b00      	cmp	r3, #0
100077f2:	d1f9      	bne.n	100077e8 <netif_remove+0x28>
100077f4:	bd70      	pop	{r4, r5, r6, pc}
100077f6:	6822      	ldr	r2, [r4, #0]
100077f8:	601a      	str	r2, [r3, #0]
100077fa:	e7fb      	b.n	100077f4 <netif_remove+0x34>
100077fc:	1d05      	adds	r5, r0, #4
100077fe:	2100      	movs	r1, #0
10007800:	0028      	movs	r0, r5
10007802:	f000 fc01 	bl	10008008 <tcp_netif_ip_addr_changed>
10007806:	2100      	movs	r1, #0
10007808:	0028      	movs	r0, r5
1000780a:	f001 f8cf 	bl	100089ac <udp_netif_ip_addr_changed>
1000780e:	2100      	movs	r1, #0
10007810:	0028      	movs	r0, r5
10007812:	f000 fa57 	bl	10007cc4 <raw_netif_ip_addr_changed>
10007816:	2239      	movs	r2, #57	; 0x39
10007818:	2101      	movs	r1, #1
1000781a:	5ca3      	ldrb	r3, [r4, r2]
1000781c:	4219      	tst	r1, r3
1000781e:	d0da      	beq.n	100077d6 <netif_remove+0x16>
10007820:	0018      	movs	r0, r3
10007822:	4388      	bics	r0, r1
10007824:	54a0      	strb	r0, [r4, r2]
10007826:	071b      	lsls	r3, r3, #28
10007828:	d40b      	bmi.n	10007842 <netif_remove+0x82>
1000782a:	69e3      	ldr	r3, [r4, #28]
1000782c:	2b00      	cmp	r3, #0
1000782e:	d0d2      	beq.n	100077d6 <netif_remove+0x16>
10007830:	0020      	movs	r0, r4
10007832:	4798      	blx	r3
10007834:	e7cf      	b.n	100077d6 <netif_remove+0x16>
10007836:	6823      	ldr	r3, [r4, #0]
10007838:	6013      	str	r3, [r2, #0]
1000783a:	e7db      	b.n	100077f4 <netif_remove+0x34>
1000783c:	2200      	movs	r2, #0
1000783e:	601a      	str	r2, [r3, #0]
10007840:	e7cd      	b.n	100077de <netif_remove+0x1e>
10007842:	0020      	movs	r0, r4
10007844:	f001 fbe8 	bl	10009018 <etharp_cleanup_netif>
10007848:	e7ef      	b.n	1000782a <netif_remove+0x6a>
1000784a:	46c0      	nop			; (mov r8, r8)
1000784c:	2000ac74 	.word	0x2000ac74
10007850:	2000ac78 	.word	0x2000ac78

10007854 <netif_set_link_up>:
10007854:	b570      	push	{r4, r5, r6, lr}
10007856:	1e04      	subs	r4, r0, #0
10007858:	d003      	beq.n	10007862 <netif_set_link_up+0xe>
1000785a:	2539      	movs	r5, #57	; 0x39
1000785c:	5d43      	ldrb	r3, [r0, r5]
1000785e:	075a      	lsls	r2, r3, #29
10007860:	d500      	bpl.n	10007864 <netif_set_link_up+0x10>
10007862:	bd70      	pop	{r4, r5, r6, pc}
10007864:	2204      	movs	r2, #4
10007866:	4313      	orrs	r3, r2
10007868:	5543      	strb	r3, [r0, r5]
1000786a:	f001 fb1b 	bl	10008ea4 <dhcp_network_changed_link_up>
1000786e:	2305      	movs	r3, #5
10007870:	5d62      	ldrb	r2, [r4, r5]
10007872:	4013      	ands	r3, r2
10007874:	2b05      	cmp	r3, #5
10007876:	d005      	beq.n	10007884 <netif_set_link_up+0x30>
10007878:	6a23      	ldr	r3, [r4, #32]
1000787a:	2b00      	cmp	r3, #0
1000787c:	d0f1      	beq.n	10007862 <netif_set_link_up+0xe>
1000787e:	0020      	movs	r0, r4
10007880:	4798      	blx	r3
10007882:	e7ee      	b.n	10007862 <netif_set_link_up+0xe>
10007884:	6863      	ldr	r3, [r4, #4]
10007886:	2b00      	cmp	r3, #0
10007888:	d0f6      	beq.n	10007878 <netif_set_link_up+0x24>
1000788a:	0712      	lsls	r2, r2, #28
1000788c:	d5f4      	bpl.n	10007878 <netif_set_link_up+0x24>
1000788e:	0020      	movs	r0, r4
10007890:	1d21      	adds	r1, r4, #4
10007892:	f001 fc85 	bl	100091a0 <etharp_request>
10007896:	e7ef      	b.n	10007878 <netif_set_link_up+0x24>

10007898 <netif_set_link_down>:
10007898:	b510      	push	{r4, lr}
1000789a:	2800      	cmp	r0, #0
1000789c:	d00a      	beq.n	100078b4 <netif_set_link_down+0x1c>
1000789e:	2239      	movs	r2, #57	; 0x39
100078a0:	2104      	movs	r1, #4
100078a2:	5c83      	ldrb	r3, [r0, r2]
100078a4:	4219      	tst	r1, r3
100078a6:	d005      	beq.n	100078b4 <netif_set_link_down+0x1c>
100078a8:	438b      	bics	r3, r1
100078aa:	5483      	strb	r3, [r0, r2]
100078ac:	6a03      	ldr	r3, [r0, #32]
100078ae:	2b00      	cmp	r3, #0
100078b0:	d000      	beq.n	100078b4 <netif_set_link_down+0x1c>
100078b2:	4798      	blx	r3
100078b4:	bd10      	pop	{r4, pc}
100078b6:	46c0      	nop			; (mov r8, r8)

100078b8 <netif_get_by_index>:
100078b8:	1e02      	subs	r2, r0, #0
100078ba:	d00e      	beq.n	100078da <netif_get_by_index+0x22>
100078bc:	4b08      	ldr	r3, [pc, #32]	; (100078e0 <netif_get_by_index+0x28>)
100078be:	6818      	ldr	r0, [r3, #0]
100078c0:	2800      	cmp	r0, #0
100078c2:	d009      	beq.n	100078d8 <netif_get_by_index+0x20>
100078c4:	213c      	movs	r1, #60	; 0x3c
100078c6:	e002      	b.n	100078ce <netif_get_by_index+0x16>
100078c8:	6800      	ldr	r0, [r0, #0]
100078ca:	2800      	cmp	r0, #0
100078cc:	d004      	beq.n	100078d8 <netif_get_by_index+0x20>
100078ce:	5c43      	ldrb	r3, [r0, r1]
100078d0:	3301      	adds	r3, #1
100078d2:	b2db      	uxtb	r3, r3
100078d4:	4293      	cmp	r3, r2
100078d6:	d1f7      	bne.n	100078c8 <netif_get_by_index+0x10>
100078d8:	4770      	bx	lr
100078da:	2000      	movs	r0, #0
100078dc:	e7fc      	b.n	100078d8 <netif_get_by_index+0x20>
100078de:	46c0      	nop			; (mov r8, r8)
100078e0:	2000ac78 	.word	0x2000ac78

100078e4 <pbuf_alloc>:
100078e4:	2300      	movs	r3, #0
100078e6:	b5f0      	push	{r4, r5, r6, r7, lr}
100078e8:	464f      	mov	r7, r9
100078ea:	4699      	mov	r9, r3
100078ec:	040b      	lsls	r3, r1, #16
100078ee:	430b      	orrs	r3, r1
100078f0:	46d6      	mov	lr, sl
100078f2:	4646      	mov	r6, r8
100078f4:	4698      	mov	r8, r3
100078f6:	23c1      	movs	r3, #193	; 0xc1
100078f8:	b5c0      	push	{r6, r7, lr}
100078fa:	4682      	mov	sl, r0
100078fc:	000d      	movs	r5, r1
100078fe:	0017      	movs	r7, r2
10007900:	b284      	uxth	r4, r0
10007902:	005b      	lsls	r3, r3, #1
10007904:	429a      	cmp	r2, r3
10007906:	d03e      	beq.n	10007986 <pbuf_alloc+0xa2>
10007908:	d80c      	bhi.n	10007924 <pbuf_alloc+0x40>
1000790a:	0014      	movs	r4, r2
1000790c:	3b43      	subs	r3, #67	; 0x43
1000790e:	3bff      	subs	r3, #255	; 0xff
10007910:	439c      	bics	r4, r3
10007912:	2c01      	cmp	r4, #1
10007914:	d028      	beq.n	10007968 <pbuf_alloc+0x84>
10007916:	2600      	movs	r6, #0
10007918:	0030      	movs	r0, r6
1000791a:	bce0      	pop	{r5, r6, r7}
1000791c:	46ba      	mov	sl, r7
1000791e:	46b1      	mov	r9, r6
10007920:	46a8      	mov	r8, r5
10007922:	bdf0      	pop	{r4, r5, r6, r7, pc}
10007924:	23a0      	movs	r3, #160	; 0xa0
10007926:	009b      	lsls	r3, r3, #2
10007928:	429a      	cmp	r2, r3
1000792a:	d1f4      	bne.n	10007916 <pbuf_alloc+0x32>
1000792c:	1ce3      	adds	r3, r4, #3
1000792e:	2403      	movs	r4, #3
10007930:	3503      	adds	r5, #3
10007932:	43a3      	bics	r3, r4
10007934:	43a5      	bics	r5, r4
10007936:	195b      	adds	r3, r3, r5
10007938:	b29b      	uxth	r3, r3
1000793a:	0018      	movs	r0, r3
1000793c:	3010      	adds	r0, #16
1000793e:	b280      	uxth	r0, r0
10007940:	42ab      	cmp	r3, r5
10007942:	d3e8      	bcc.n	10007916 <pbuf_alloc+0x32>
10007944:	4285      	cmp	r5, r0
10007946:	d8e6      	bhi.n	10007916 <pbuf_alloc+0x32>
10007948:	f7ff fe34 	bl	100075b4 <mem_malloc>
1000794c:	1e06      	subs	r6, r0, #0
1000794e:	d0e3      	beq.n	10007918 <pbuf_alloc+0x34>
10007950:	464b      	mov	r3, r9
10007952:	6003      	str	r3, [r0, #0]
10007954:	4653      	mov	r3, sl
10007956:	18c7      	adds	r7, r0, r3
10007958:	4643      	mov	r3, r8
1000795a:	3713      	adds	r7, #19
1000795c:	6083      	str	r3, [r0, #8]
1000795e:	4b3b      	ldr	r3, [pc, #236]	; (10007a4c <pbuf_alloc+0x168>)
10007960:	43a7      	bics	r7, r4
10007962:	6047      	str	r7, [r0, #4]
10007964:	60c3      	str	r3, [r0, #12]
10007966:	e7d7      	b.n	10007918 <pbuf_alloc+0x34>
10007968:	2007      	movs	r0, #7
1000796a:	f7ff fe95 	bl	10007698 <memp_malloc>
1000796e:	1e06      	subs	r6, r0, #0
10007970:	d0d2      	beq.n	10007918 <pbuf_alloc+0x34>
10007972:	464b      	mov	r3, r9
10007974:	6003      	str	r3, [r0, #0]
10007976:	6043      	str	r3, [r0, #4]
10007978:	4643      	mov	r3, r8
1000797a:	6083      	str	r3, [r0, #8]
1000797c:	464b      	mov	r3, r9
1000797e:	7307      	strb	r7, [r0, #12]
10007980:	7343      	strb	r3, [r0, #13]
10007982:	81c4      	strh	r4, [r0, #14]
10007984:	e7c8      	b.n	10007918 <pbuf_alloc+0x34>
10007986:	2300      	movs	r3, #0
10007988:	4698      	mov	r8, r3
1000798a:	4b31      	ldr	r3, [pc, #196]	; (10007a50 <pbuf_alloc+0x16c>)
1000798c:	2600      	movs	r6, #0
1000798e:	469a      	mov	sl, r3
10007990:	2300      	movs	r3, #0
10007992:	2703      	movs	r7, #3
10007994:	4699      	mov	r9, r3
10007996:	e007      	b.n	100079a8 <pbuf_alloc+0xc4>
10007998:	4642      	mov	r2, r8
1000799a:	1aed      	subs	r5, r5, r3
1000799c:	b2ad      	uxth	r5, r5
1000799e:	6010      	str	r0, [r2, #0]
100079a0:	2d00      	cmp	r5, #0
100079a2:	d0b9      	beq.n	10007918 <pbuf_alloc+0x34>
100079a4:	4680      	mov	r8, r0
100079a6:	2400      	movs	r4, #0
100079a8:	2008      	movs	r0, #8
100079aa:	f7ff fe75 	bl	10007698 <memp_malloc>
100079ae:	2800      	cmp	r0, #0
100079b0:	d01b      	beq.n	100079ea <pbuf_alloc+0x106>
100079b2:	4652      	mov	r2, sl
100079b4:	1ce3      	adds	r3, r4, #3
100079b6:	43bb      	bics	r3, r7
100079b8:	1ad3      	subs	r3, r2, r3
100079ba:	1c1a      	adds	r2, r3, #0
100079bc:	b29b      	uxth	r3, r3
100079be:	42ab      	cmp	r3, r5
100079c0:	d900      	bls.n	100079c4 <pbuf_alloc+0xe0>
100079c2:	1c2a      	adds	r2, r5, #0
100079c4:	4649      	mov	r1, r9
100079c6:	1904      	adds	r4, r0, r4
100079c8:	b293      	uxth	r3, r2
100079ca:	3413      	adds	r4, #19
100079cc:	8142      	strh	r2, [r0, #10]
100079ce:	4a21      	ldr	r2, [pc, #132]	; (10007a54 <pbuf_alloc+0x170>)
100079d0:	43bc      	bics	r4, r7
100079d2:	6001      	str	r1, [r0, #0]
100079d4:	6044      	str	r4, [r0, #4]
100079d6:	8105      	strh	r5, [r0, #8]
100079d8:	60c2      	str	r2, [r0, #12]
100079da:	2e00      	cmp	r6, #0
100079dc:	d1dc      	bne.n	10007998 <pbuf_alloc+0xb4>
100079de:	1aed      	subs	r5, r5, r3
100079e0:	b2ad      	uxth	r5, r5
100079e2:	0006      	movs	r6, r0
100079e4:	2d00      	cmp	r5, #0
100079e6:	d1dd      	bne.n	100079a4 <pbuf_alloc+0xc0>
100079e8:	e796      	b.n	10007918 <pbuf_alloc+0x34>
100079ea:	f001 feb5 	bl	10009758 <sys_arch_protect>
100079ee:	2201      	movs	r2, #1
100079f0:	4b19      	ldr	r3, [pc, #100]	; (10007a58 <pbuf_alloc+0x174>)
100079f2:	250f      	movs	r5, #15
100079f4:	701a      	strb	r2, [r3, #0]
100079f6:	f001 feb1 	bl	1000975c <sys_arch_unprotect>
100079fa:	2e00      	cmp	r6, #0
100079fc:	d104      	bne.n	10007a08 <pbuf_alloc+0x124>
100079fe:	e78a      	b.n	10007916 <pbuf_alloc+0x32>
10007a00:	2c00      	cmp	r4, #0
10007a02:	d100      	bne.n	10007a06 <pbuf_alloc+0x122>
10007a04:	e787      	b.n	10007916 <pbuf_alloc+0x32>
10007a06:	0026      	movs	r6, r4
10007a08:	f001 fea6 	bl	10009758 <sys_arch_protect>
10007a0c:	7bb4      	ldrb	r4, [r6, #14]
10007a0e:	3c01      	subs	r4, #1
10007a10:	b2e4      	uxtb	r4, r4
10007a12:	73b4      	strb	r4, [r6, #14]
10007a14:	f001 fea2 	bl	1000975c <sys_arch_unprotect>
10007a18:	2c00      	cmp	r4, #0
10007a1a:	d000      	beq.n	10007a1e <pbuf_alloc+0x13a>
10007a1c:	e77b      	b.n	10007916 <pbuf_alloc+0x32>
10007a1e:	7b33      	ldrb	r3, [r6, #12]
10007a20:	6834      	ldr	r4, [r6, #0]
10007a22:	402b      	ands	r3, r5
10007a24:	2b02      	cmp	r3, #2
10007a26:	d007      	beq.n	10007a38 <pbuf_alloc+0x154>
10007a28:	2b01      	cmp	r3, #1
10007a2a:	d00a      	beq.n	10007a42 <pbuf_alloc+0x15e>
10007a2c:	2b00      	cmp	r3, #0
10007a2e:	d1e7      	bne.n	10007a00 <pbuf_alloc+0x11c>
10007a30:	0030      	movs	r0, r6
10007a32:	f7ff fccf 	bl	100073d4 <mem_free>
10007a36:	e7e3      	b.n	10007a00 <pbuf_alloc+0x11c>
10007a38:	0031      	movs	r1, r6
10007a3a:	2008      	movs	r0, #8
10007a3c:	f7ff fe46 	bl	100076cc <memp_free>
10007a40:	e7de      	b.n	10007a00 <pbuf_alloc+0x11c>
10007a42:	0031      	movs	r1, r6
10007a44:	2007      	movs	r0, #7
10007a46:	f7ff fe41 	bl	100076cc <memp_free>
10007a4a:	e7d9      	b.n	10007a00 <pbuf_alloc+0x11c>
10007a4c:	00010080 	.word	0x00010080
10007a50:	000005ec 	.word	0x000005ec
10007a54:	00010082 	.word	0x00010082
10007a58:	2000ae06 	.word	0x2000ae06

10007a5c <pbuf_realloc>:
10007a5c:	b5f8      	push	{r3, r4, r5, r6, r7, lr}
10007a5e:	0004      	movs	r4, r0
10007a60:	8900      	ldrh	r0, [r0, #8]
10007a62:	4288      	cmp	r0, r1
10007a64:	d922      	bls.n	10007aac <pbuf_realloc+0x50>
10007a66:	8962      	ldrh	r2, [r4, #10]
10007a68:	4291      	cmp	r1, r2
10007a6a:	d951      	bls.n	10007b10 <pbuf_realloc+0xb4>
10007a6c:	8121      	strh	r1, [r4, #8]
10007a6e:	6824      	ldr	r4, [r4, #0]
10007a70:	1a8a      	subs	r2, r1, r2
10007a72:	b293      	uxth	r3, r2
10007a74:	8962      	ldrh	r2, [r4, #10]
10007a76:	1a08      	subs	r0, r1, r0
10007a78:	b280      	uxth	r0, r0
10007a7a:	429a      	cmp	r2, r3
10007a7c:	d208      	bcs.n	10007a90 <pbuf_realloc+0x34>
10007a7e:	1a9b      	subs	r3, r3, r2
10007a80:	8922      	ldrh	r2, [r4, #8]
10007a82:	b29b      	uxth	r3, r3
10007a84:	1882      	adds	r2, r0, r2
10007a86:	8122      	strh	r2, [r4, #8]
10007a88:	6824      	ldr	r4, [r4, #0]
10007a8a:	8962      	ldrh	r2, [r4, #10]
10007a8c:	429a      	cmp	r2, r3
10007a8e:	d3f6      	bcc.n	10007a7e <pbuf_realloc+0x22>
10007a90:	7b21      	ldrb	r1, [r4, #12]
10007a92:	041d      	lsls	r5, r3, #16
10007a94:	431d      	orrs	r5, r3
10007a96:	0709      	lsls	r1, r1, #28
10007a98:	d101      	bne.n	10007a9e <pbuf_realloc+0x42>
10007a9a:	4293      	cmp	r3, r2
10007a9c:	d12b      	bne.n	10007af6 <pbuf_realloc+0x9a>
10007a9e:	6826      	ldr	r6, [r4, #0]
10007aa0:	270f      	movs	r7, #15
10007aa2:	60a5      	str	r5, [r4, #8]
10007aa4:	2e00      	cmp	r6, #0
10007aa6:	d108      	bne.n	10007aba <pbuf_realloc+0x5e>
10007aa8:	2300      	movs	r3, #0
10007aaa:	6023      	str	r3, [r4, #0]
10007aac:	bdf8      	pop	{r3, r4, r5, r6, r7, pc}
10007aae:	0030      	movs	r0, r6
10007ab0:	f7ff fc90 	bl	100073d4 <mem_free>
10007ab4:	2d00      	cmp	r5, #0
10007ab6:	d0f7      	beq.n	10007aa8 <pbuf_realloc+0x4c>
10007ab8:	002e      	movs	r6, r5
10007aba:	f001 fe4d 	bl	10009758 <sys_arch_protect>
10007abe:	7bb5      	ldrb	r5, [r6, #14]
10007ac0:	3d01      	subs	r5, #1
10007ac2:	b2ed      	uxtb	r5, r5
10007ac4:	73b5      	strb	r5, [r6, #14]
10007ac6:	f001 fe49 	bl	1000975c <sys_arch_unprotect>
10007aca:	2d00      	cmp	r5, #0
10007acc:	d1ec      	bne.n	10007aa8 <pbuf_realloc+0x4c>
10007ace:	7b33      	ldrb	r3, [r6, #12]
10007ad0:	6835      	ldr	r5, [r6, #0]
10007ad2:	403b      	ands	r3, r7
10007ad4:	2b02      	cmp	r3, #2
10007ad6:	d004      	beq.n	10007ae2 <pbuf_realloc+0x86>
10007ad8:	2b01      	cmp	r3, #1
10007ada:	d007      	beq.n	10007aec <pbuf_realloc+0x90>
10007adc:	2b00      	cmp	r3, #0
10007ade:	d1e9      	bne.n	10007ab4 <pbuf_realloc+0x58>
10007ae0:	e7e5      	b.n	10007aae <pbuf_realloc+0x52>
10007ae2:	0031      	movs	r1, r6
10007ae4:	2008      	movs	r0, #8
10007ae6:	f7ff fdf1 	bl	100076cc <memp_free>
10007aea:	e7e3      	b.n	10007ab4 <pbuf_realloc+0x58>
10007aec:	0031      	movs	r1, r6
10007aee:	2007      	movs	r0, #7
10007af0:	f7ff fdec 	bl	100076cc <memp_free>
10007af4:	e7de      	b.n	10007ab4 <pbuf_realloc+0x58>
10007af6:	6862      	ldr	r2, [r4, #4]
10007af8:	0020      	movs	r0, r4
10007afa:	1b12      	subs	r2, r2, r4
10007afc:	189b      	adds	r3, r3, r2
10007afe:	b299      	uxth	r1, r3
10007b00:	f7ff fcde 	bl	100074c0 <mem_trim>
10007b04:	6826      	ldr	r6, [r4, #0]
10007b06:	270f      	movs	r7, #15
10007b08:	60a5      	str	r5, [r4, #8]
10007b0a:	2e00      	cmp	r6, #0
10007b0c:	d1d5      	bne.n	10007aba <pbuf_realloc+0x5e>
10007b0e:	e7cb      	b.n	10007aa8 <pbuf_realloc+0x4c>
10007b10:	000b      	movs	r3, r1
10007b12:	e7bd      	b.n	10007a90 <pbuf_realloc+0x34>

10007b14 <pbuf_add_header>:
10007b14:	0003      	movs	r3, r0
10007b16:	b530      	push	{r4, r5, lr}
10007b18:	2800      	cmp	r0, #0
10007b1a:	d01c      	beq.n	10007b56 <pbuf_add_header+0x42>
10007b1c:	2280      	movs	r2, #128	; 0x80
10007b1e:	0252      	lsls	r2, r2, #9
10007b20:	4291      	cmp	r1, r2
10007b22:	d218      	bcs.n	10007b56 <pbuf_add_header+0x42>
10007b24:	2900      	cmp	r1, #0
10007b26:	d018      	beq.n	10007b5a <pbuf_add_header+0x46>
10007b28:	8902      	ldrh	r2, [r0, #8]
10007b2a:	b28c      	uxth	r4, r1
10007b2c:	18a2      	adds	r2, r4, r2
10007b2e:	b292      	uxth	r2, r2
10007b30:	4294      	cmp	r4, r2
10007b32:	d810      	bhi.n	10007b56 <pbuf_add_header+0x42>
10007b34:	7b05      	ldrb	r5, [r0, #12]
10007b36:	2001      	movs	r0, #1
10007b38:	2d7f      	cmp	r5, #127	; 0x7f
10007b3a:	d90d      	bls.n	10007b58 <pbuf_add_header+0x44>
10007b3c:	685d      	ldr	r5, [r3, #4]
10007b3e:	1a69      	subs	r1, r5, r1
10007b40:	001d      	movs	r5, r3
10007b42:	3510      	adds	r5, #16
10007b44:	42a9      	cmp	r1, r5
10007b46:	d307      	bcc.n	10007b58 <pbuf_add_header+0x44>
10007b48:	6059      	str	r1, [r3, #4]
10007b4a:	8959      	ldrh	r1, [r3, #10]
10007b4c:	2000      	movs	r0, #0
10007b4e:	1864      	adds	r4, r4, r1
10007b50:	815c      	strh	r4, [r3, #10]
10007b52:	811a      	strh	r2, [r3, #8]
10007b54:	e000      	b.n	10007b58 <pbuf_add_header+0x44>
10007b56:	2001      	movs	r0, #1
10007b58:	bd30      	pop	{r4, r5, pc}
10007b5a:	2000      	movs	r0, #0
10007b5c:	e7fc      	b.n	10007b58 <pbuf_add_header+0x44>
10007b5e:	46c0      	nop			; (mov r8, r8)

10007b60 <pbuf_free>:
10007b60:	b5f8      	push	{r3, r4, r5, r6, r7, lr}
10007b62:	0005      	movs	r5, r0
10007b64:	2600      	movs	r6, #0
10007b66:	2800      	cmp	r0, #0
10007b68:	d020      	beq.n	10007bac <pbuf_free+0x4c>
10007b6a:	270f      	movs	r7, #15
10007b6c:	e004      	b.n	10007b78 <pbuf_free+0x18>
10007b6e:	3601      	adds	r6, #1
10007b70:	b2f6      	uxtb	r6, r6
10007b72:	2c00      	cmp	r4, #0
10007b74:	d01a      	beq.n	10007bac <pbuf_free+0x4c>
10007b76:	0025      	movs	r5, r4
10007b78:	f001 fdee 	bl	10009758 <sys_arch_protect>
10007b7c:	7bac      	ldrb	r4, [r5, #14]
10007b7e:	3c01      	subs	r4, #1
10007b80:	b2e4      	uxtb	r4, r4
10007b82:	73ac      	strb	r4, [r5, #14]
10007b84:	f001 fdea 	bl	1000975c <sys_arch_unprotect>
10007b88:	2c00      	cmp	r4, #0
10007b8a:	d10f      	bne.n	10007bac <pbuf_free+0x4c>
10007b8c:	7b2b      	ldrb	r3, [r5, #12]
10007b8e:	682c      	ldr	r4, [r5, #0]
10007b90:	403b      	ands	r3, r7
10007b92:	2b02      	cmp	r3, #2
10007b94:	d00c      	beq.n	10007bb0 <pbuf_free+0x50>
10007b96:	2b01      	cmp	r3, #1
10007b98:	d00f      	beq.n	10007bba <pbuf_free+0x5a>
10007b9a:	2b00      	cmp	r3, #0
10007b9c:	d1e7      	bne.n	10007b6e <pbuf_free+0xe>
10007b9e:	0028      	movs	r0, r5
10007ba0:	3601      	adds	r6, #1
10007ba2:	f7ff fc17 	bl	100073d4 <mem_free>
10007ba6:	b2f6      	uxtb	r6, r6
10007ba8:	2c00      	cmp	r4, #0
10007baa:	d1e4      	bne.n	10007b76 <pbuf_free+0x16>
10007bac:	0030      	movs	r0, r6
10007bae:	bdf8      	pop	{r3, r4, r5, r6, r7, pc}
10007bb0:	0029      	movs	r1, r5
10007bb2:	2008      	movs	r0, #8
10007bb4:	f7ff fd8a 	bl	100076cc <memp_free>
10007bb8:	e7d9      	b.n	10007b6e <pbuf_free+0xe>
10007bba:	0029      	movs	r1, r5
10007bbc:	2007      	movs	r0, #7
10007bbe:	f7ff fd85 	bl	100076cc <memp_free>
10007bc2:	e7d4      	b.n	10007b6e <pbuf_free+0xe>

10007bc4 <pbuf_chain>:
10007bc4:	b510      	push	{r4, lr}
10007bc6:	000c      	movs	r4, r1
10007bc8:	2800      	cmp	r0, #0
10007bca:	d019      	beq.n	10007c00 <pbuf_chain+0x3c>
10007bcc:	2900      	cmp	r1, #0
10007bce:	d016      	beq.n	10007bfe <pbuf_chain+0x3a>
10007bd0:	6803      	ldr	r3, [r0, #0]
10007bd2:	2b00      	cmp	r3, #0
10007bd4:	d007      	beq.n	10007be6 <pbuf_chain+0x22>
10007bd6:	8902      	ldrh	r2, [r0, #8]
10007bd8:	8921      	ldrh	r1, [r4, #8]
10007bda:	1852      	adds	r2, r2, r1
10007bdc:	8102      	strh	r2, [r0, #8]
10007bde:	0018      	movs	r0, r3
10007be0:	681b      	ldr	r3, [r3, #0]
10007be2:	2b00      	cmp	r3, #0
10007be4:	d1f7      	bne.n	10007bd6 <pbuf_chain+0x12>
10007be6:	8922      	ldrh	r2, [r4, #8]
10007be8:	8903      	ldrh	r3, [r0, #8]
10007bea:	6004      	str	r4, [r0, #0]
10007bec:	189b      	adds	r3, r3, r2
10007bee:	8103      	strh	r3, [r0, #8]
10007bf0:	f001 fdb2 	bl	10009758 <sys_arch_protect>
10007bf4:	7ba3      	ldrb	r3, [r4, #14]
10007bf6:	3301      	adds	r3, #1
10007bf8:	73a3      	strb	r3, [r4, #14]
10007bfa:	f001 fdaf 	bl	1000975c <sys_arch_unprotect>
10007bfe:	bd10      	pop	{r4, pc}
10007c00:	2900      	cmp	r1, #0
10007c02:	d0fc      	beq.n	10007bfe <pbuf_chain+0x3a>
10007c04:	e7f4      	b.n	10007bf0 <pbuf_chain+0x2c>
10007c06:	46c0      	nop			; (mov r8, r8)

10007c08 <pbuf_copy_partial>:
10007c08:	b5f0      	push	{r4, r5, r6, r7, lr}
10007c0a:	46c6      	mov	lr, r8
10007c0c:	0005      	movs	r5, r0
10007c0e:	4688      	mov	r8, r1
10007c10:	0017      	movs	r7, r2
10007c12:	2600      	movs	r6, #0
10007c14:	b500      	push	{lr}
10007c16:	2800      	cmp	r0, #0
10007c18:	d026      	beq.n	10007c68 <pbuf_copy_partial+0x60>
10007c1a:	2900      	cmp	r1, #0
10007c1c:	d024      	beq.n	10007c68 <pbuf_copy_partial+0x60>
10007c1e:	2f00      	cmp	r7, #0
10007c20:	d105      	bne.n	10007c2e <pbuf_copy_partial+0x26>
10007c22:	e021      	b.n	10007c68 <pbuf_copy_partial+0x60>
10007c24:	682d      	ldr	r5, [r5, #0]
10007c26:	1b1b      	subs	r3, r3, r4
10007c28:	b29b      	uxth	r3, r3
10007c2a:	2d00      	cmp	r5, #0
10007c2c:	d01c      	beq.n	10007c68 <pbuf_copy_partial+0x60>
10007c2e:	896c      	ldrh	r4, [r5, #10]
10007c30:	2b00      	cmp	r3, #0
10007c32:	d001      	beq.n	10007c38 <pbuf_copy_partial+0x30>
10007c34:	42a3      	cmp	r3, r4
10007c36:	d2f5      	bcs.n	10007c24 <pbuf_copy_partial+0x1c>
10007c38:	1ae4      	subs	r4, r4, r3
10007c3a:	1c22      	adds	r2, r4, #0
10007c3c:	b2a4      	uxth	r4, r4
10007c3e:	42bc      	cmp	r4, r7
10007c40:	d900      	bls.n	10007c44 <pbuf_copy_partial+0x3c>
10007c42:	1c3a      	adds	r2, r7, #0
10007c44:	b294      	uxth	r4, r2
10007c46:	4642      	mov	r2, r8
10007c48:	6869      	ldr	r1, [r5, #4]
10007c4a:	1b3f      	subs	r7, r7, r4
10007c4c:	1990      	adds	r0, r2, r6
10007c4e:	18c9      	adds	r1, r1, r3
10007c50:	0022      	movs	r2, r4
10007c52:	19a6      	adds	r6, r4, r6
10007c54:	b2bf      	uxth	r7, r7
10007c56:	f7fe fedd 	bl	10006a14 <__wrap___aeabi_memcpy>
10007c5a:	b2b6      	uxth	r6, r6
10007c5c:	682d      	ldr	r5, [r5, #0]
10007c5e:	2f00      	cmp	r7, #0
10007c60:	d002      	beq.n	10007c68 <pbuf_copy_partial+0x60>
10007c62:	2300      	movs	r3, #0
10007c64:	2d00      	cmp	r5, #0
10007c66:	d1e2      	bne.n	10007c2e <pbuf_copy_partial+0x26>
10007c68:	0030      	movs	r0, r6
10007c6a:	bc80      	pop	{r7}
10007c6c:	46b8      	mov	r8, r7
10007c6e:	bdf0      	pop	{r4, r5, r6, r7, pc}

10007c70 <pbuf_take>:
10007c70:	b5f0      	push	{r4, r5, r6, r7, lr}
10007c72:	46c6      	mov	lr, r8
10007c74:	0006      	movs	r6, r0
10007c76:	4688      	mov	r8, r1
10007c78:	0015      	movs	r5, r2
10007c7a:	b500      	push	{lr}
10007c7c:	2800      	cmp	r0, #0
10007c7e:	d01d      	beq.n	10007cbc <pbuf_take+0x4c>
10007c80:	2900      	cmp	r1, #0
10007c82:	d01b      	beq.n	10007cbc <pbuf_take+0x4c>
10007c84:	8903      	ldrh	r3, [r0, #8]
10007c86:	4293      	cmp	r3, r2
10007c88:	d315      	bcc.n	10007cb6 <pbuf_take+0x46>
10007c8a:	2700      	movs	r7, #0
10007c8c:	2a00      	cmp	r2, #0
10007c8e:	d00e      	beq.n	10007cae <pbuf_take+0x3e>
10007c90:	8974      	ldrh	r4, [r6, #10]
10007c92:	42ac      	cmp	r4, r5
10007c94:	d900      	bls.n	10007c98 <pbuf_take+0x28>
10007c96:	002c      	movs	r4, r5
10007c98:	4643      	mov	r3, r8
10007c9a:	6870      	ldr	r0, [r6, #4]
10007c9c:	19d9      	adds	r1, r3, r7
10007c9e:	0022      	movs	r2, r4
10007ca0:	f7fe feb8 	bl	10006a14 <__wrap___aeabi_memcpy>
10007ca4:	1b2d      	subs	r5, r5, r4
10007ca6:	6836      	ldr	r6, [r6, #0]
10007ca8:	193f      	adds	r7, r7, r4
10007caa:	2d00      	cmp	r5, #0
10007cac:	d1f0      	bne.n	10007c90 <pbuf_take+0x20>
10007cae:	2000      	movs	r0, #0
10007cb0:	bc80      	pop	{r7}
10007cb2:	46b8      	mov	r8, r7
10007cb4:	bdf0      	pop	{r4, r5, r6, r7, pc}
10007cb6:	2001      	movs	r0, #1
10007cb8:	4240      	negs	r0, r0
10007cba:	e7f9      	b.n	10007cb0 <pbuf_take+0x40>
10007cbc:	2010      	movs	r0, #16
10007cbe:	4240      	negs	r0, r0
10007cc0:	e7f6      	b.n	10007cb0 <pbuf_take+0x40>
10007cc2:	46c0      	nop			; (mov r8, r8)

10007cc4 <raw_netif_ip_addr_changed>:
10007cc4:	b510      	push	{r4, lr}
10007cc6:	2800      	cmp	r0, #0
10007cc8:	d011      	beq.n	10007cee <raw_netif_ip_addr_changed+0x2a>
10007cca:	6802      	ldr	r2, [r0, #0]
10007ccc:	2a00      	cmp	r2, #0
10007cce:	d00e      	beq.n	10007cee <raw_netif_ip_addr_changed+0x2a>
10007cd0:	2900      	cmp	r1, #0
10007cd2:	d00c      	beq.n	10007cee <raw_netif_ip_addr_changed+0x2a>
10007cd4:	680b      	ldr	r3, [r1, #0]
10007cd6:	2b00      	cmp	r3, #0
10007cd8:	d009      	beq.n	10007cee <raw_netif_ip_addr_changed+0x2a>
10007cda:	4b09      	ldr	r3, [pc, #36]	; (10007d00 <raw_netif_ip_addr_changed+0x3c>)
10007cdc:	681b      	ldr	r3, [r3, #0]
10007cde:	2b00      	cmp	r3, #0
10007ce0:	d005      	beq.n	10007cee <raw_netif_ip_addr_changed+0x2a>
10007ce2:	681c      	ldr	r4, [r3, #0]
10007ce4:	4294      	cmp	r4, r2
10007ce6:	d003      	beq.n	10007cf0 <raw_netif_ip_addr_changed+0x2c>
10007ce8:	68db      	ldr	r3, [r3, #12]
10007cea:	2b00      	cmp	r3, #0
10007cec:	d1f9      	bne.n	10007ce2 <raw_netif_ip_addr_changed+0x1e>
10007cee:	bd10      	pop	{r4, pc}
10007cf0:	680a      	ldr	r2, [r1, #0]
10007cf2:	601a      	str	r2, [r3, #0]
10007cf4:	68db      	ldr	r3, [r3, #12]
10007cf6:	2b00      	cmp	r3, #0
10007cf8:	d0f9      	beq.n	10007cee <raw_netif_ip_addr_changed+0x2a>
10007cfa:	6802      	ldr	r2, [r0, #0]
10007cfc:	e7f1      	b.n	10007ce2 <raw_netif_ip_addr_changed+0x1e>
10007cfe:	46c0      	nop			; (mov r8, r8)
10007d00:	2000acac 	.word	0x2000acac

10007d04 <tcp_pcb_purge.part.0>:
10007d04:	b570      	push	{r4, r5, r6, lr}
10007d06:	0006      	movs	r6, r0
10007d08:	6f80      	ldr	r0, [r0, #120]	; 0x78
10007d0a:	2800      	cmp	r0, #0
10007d0c:	d003      	beq.n	10007d16 <tcp_pcb_purge.part.0+0x12>
10007d0e:	f7ff ff27 	bl	10007b60 <pbuf_free>
10007d12:	2300      	movs	r3, #0
10007d14:	67b3      	str	r3, [r6, #120]	; 0x78
10007d16:	6f74      	ldr	r4, [r6, #116]	; 0x74
10007d18:	2c00      	cmp	r4, #0
10007d1a:	d018      	beq.n	10007d4e <tcp_pcb_purge.part.0+0x4a>
10007d1c:	6860      	ldr	r0, [r4, #4]
10007d1e:	6825      	ldr	r5, [r4, #0]
10007d20:	2800      	cmp	r0, #0
10007d22:	d00c      	beq.n	10007d3e <tcp_pcb_purge.part.0+0x3a>
10007d24:	f7ff ff1c 	bl	10007b60 <pbuf_free>
10007d28:	0021      	movs	r1, r4
10007d2a:	2004      	movs	r0, #4
10007d2c:	f7ff fcce 	bl	100076cc <memp_free>
10007d30:	2d00      	cmp	r5, #0
10007d32:	d00a      	beq.n	10007d4a <tcp_pcb_purge.part.0+0x46>
10007d34:	002c      	movs	r4, r5
10007d36:	6860      	ldr	r0, [r4, #4]
10007d38:	6825      	ldr	r5, [r4, #0]
10007d3a:	2800      	cmp	r0, #0
10007d3c:	d1f2      	bne.n	10007d24 <tcp_pcb_purge.part.0+0x20>
10007d3e:	0021      	movs	r1, r4
10007d40:	2004      	movs	r0, #4
10007d42:	f7ff fcc3 	bl	100076cc <memp_free>
10007d46:	2d00      	cmp	r5, #0
10007d48:	d1f4      	bne.n	10007d34 <tcp_pcb_purge.part.0+0x30>
10007d4a:	2300      	movs	r3, #0
10007d4c:	6773      	str	r3, [r6, #116]	; 0x74
10007d4e:	2301      	movs	r3, #1
10007d50:	6ef4      	ldr	r4, [r6, #108]	; 0x6c
10007d52:	425b      	negs	r3, r3
10007d54:	8633      	strh	r3, [r6, #48]	; 0x30
10007d56:	2c00      	cmp	r4, #0
10007d58:	d016      	beq.n	10007d88 <tcp_pcb_purge.part.0+0x84>
10007d5a:	6860      	ldr	r0, [r4, #4]
10007d5c:	6825      	ldr	r5, [r4, #0]
10007d5e:	2800      	cmp	r0, #0
10007d60:	d00c      	beq.n	10007d7c <tcp_pcb_purge.part.0+0x78>
10007d62:	f7ff fefd 	bl	10007b60 <pbuf_free>
10007d66:	0021      	movs	r1, r4
10007d68:	2004      	movs	r0, #4
10007d6a:	f7ff fcaf 	bl	100076cc <memp_free>
10007d6e:	2d00      	cmp	r5, #0
10007d70:	d00a      	beq.n	10007d88 <tcp_pcb_purge.part.0+0x84>
10007d72:	002c      	movs	r4, r5
10007d74:	6860      	ldr	r0, [r4, #4]
10007d76:	6825      	ldr	r5, [r4, #0]
10007d78:	2800      	cmp	r0, #0
10007d7a:	d1f2      	bne.n	10007d62 <tcp_pcb_purge.part.0+0x5e>
10007d7c:	0021      	movs	r1, r4
10007d7e:	2004      	movs	r0, #4
10007d80:	f7ff fca4 	bl	100076cc <memp_free>
10007d84:	2d00      	cmp	r5, #0
10007d86:	d1f4      	bne.n	10007d72 <tcp_pcb_purge.part.0+0x6e>
10007d88:	6f34      	ldr	r4, [r6, #112]	; 0x70
10007d8a:	2c00      	cmp	r4, #0
10007d8c:	d016      	beq.n	10007dbc <tcp_pcb_purge.part.0+0xb8>
10007d8e:	6860      	ldr	r0, [r4, #4]
10007d90:	6825      	ldr	r5, [r4, #0]
10007d92:	2800      	cmp	r0, #0
10007d94:	d00c      	beq.n	10007db0 <tcp_pcb_purge.part.0+0xac>
10007d96:	f7ff fee3 	bl	10007b60 <pbuf_free>
10007d9a:	0021      	movs	r1, r4
10007d9c:	2004      	movs	r0, #4
10007d9e:	f7ff fc95 	bl	100076cc <memp_free>
10007da2:	2d00      	cmp	r5, #0
10007da4:	d00a      	beq.n	10007dbc <tcp_pcb_purge.part.0+0xb8>
10007da6:	002c      	movs	r4, r5
10007da8:	6860      	ldr	r0, [r4, #4]
10007daa:	6825      	ldr	r5, [r4, #0]
10007dac:	2800      	cmp	r0, #0
10007dae:	d1f2      	bne.n	10007d96 <tcp_pcb_purge.part.0+0x92>
10007db0:	0021      	movs	r1, r4
10007db2:	2004      	movs	r0, #4
10007db4:	f7ff fc8a 	bl	100076cc <memp_free>
10007db8:	2d00      	cmp	r5, #0
10007dba:	d1f4      	bne.n	10007da6 <tcp_pcb_purge.part.0+0xa2>
10007dbc:	2300      	movs	r3, #0
10007dbe:	2268      	movs	r2, #104	; 0x68
10007dc0:	66f3      	str	r3, [r6, #108]	; 0x6c
10007dc2:	6733      	str	r3, [r6, #112]	; 0x70
10007dc4:	52b3      	strh	r3, [r6, r2]
10007dc6:	bd70      	pop	{r4, r5, r6, pc}

10007dc8 <tcp_seg_free>:
10007dc8:	b510      	push	{r4, lr}
10007dca:	1e04      	subs	r4, r0, #0
10007dcc:	d008      	beq.n	10007de0 <tcp_seg_free+0x18>
10007dce:	6840      	ldr	r0, [r0, #4]
10007dd0:	2800      	cmp	r0, #0
10007dd2:	d001      	beq.n	10007dd8 <tcp_seg_free+0x10>
10007dd4:	f7ff fec4 	bl	10007b60 <pbuf_free>
10007dd8:	0021      	movs	r1, r4
10007dda:	2004      	movs	r0, #4
10007ddc:	f7ff fc76 	bl	100076cc <memp_free>
10007de0:	bd10      	pop	{r4, pc}
10007de2:	46c0      	nop			; (mov r8, r8)

10007de4 <tcp_pcb_remove>:
10007de4:	6803      	ldr	r3, [r0, #0]
10007de6:	b510      	push	{r4, lr}
10007de8:	000c      	movs	r4, r1
10007dea:	428b      	cmp	r3, r1
10007dec:	d104      	bne.n	10007df8 <tcp_pcb_remove+0x14>
10007dee:	e025      	b.n	10007e3c <tcp_pcb_remove+0x58>
10007df0:	68da      	ldr	r2, [r3, #12]
10007df2:	42a2      	cmp	r2, r4
10007df4:	d01a      	beq.n	10007e2c <tcp_pcb_remove+0x48>
10007df6:	0013      	movs	r3, r2
10007df8:	2b00      	cmp	r3, #0
10007dfa:	d1f9      	bne.n	10007df0 <tcp_pcb_remove+0xc>
10007dfc:	2300      	movs	r3, #0
10007dfe:	60e3      	str	r3, [r4, #12]
10007e00:	7d23      	ldrb	r3, [r4, #20]
10007e02:	2b00      	cmp	r3, #0
10007e04:	d00b      	beq.n	10007e1e <tcp_pcb_remove+0x3a>
10007e06:	2b0a      	cmp	r3, #10
10007e08:	d00c      	beq.n	10007e24 <tcp_pcb_remove+0x40>
10007e0a:	2b01      	cmp	r3, #1
10007e0c:	d00a      	beq.n	10007e24 <tcp_pcb_remove+0x40>
10007e0e:	0020      	movs	r0, r4
10007e10:	f7ff ff78 	bl	10007d04 <tcp_pcb_purge.part.0>
10007e14:	7d23      	ldrb	r3, [r4, #20]
10007e16:	2b0a      	cmp	r3, #10
10007e18:	d004      	beq.n	10007e24 <tcp_pcb_remove+0x40>
10007e1a:	2b01      	cmp	r3, #1
10007e1c:	d002      	beq.n	10007e24 <tcp_pcb_remove+0x40>
10007e1e:	8b63      	ldrh	r3, [r4, #26]
10007e20:	07da      	lsls	r2, r3, #31
10007e22:	d413      	bmi.n	10007e4c <tcp_pcb_remove+0x68>
10007e24:	2300      	movs	r3, #0
10007e26:	7523      	strb	r3, [r4, #20]
10007e28:	82e3      	strh	r3, [r4, #22]
10007e2a:	bd10      	pop	{r4, pc}
10007e2c:	68e2      	ldr	r2, [r4, #12]
10007e2e:	60da      	str	r2, [r3, #12]
10007e30:	2300      	movs	r3, #0
10007e32:	60e3      	str	r3, [r4, #12]
10007e34:	7d23      	ldrb	r3, [r4, #20]
10007e36:	2b00      	cmp	r3, #0
10007e38:	d1e5      	bne.n	10007e06 <tcp_pcb_remove+0x22>
10007e3a:	e7f0      	b.n	10007e1e <tcp_pcb_remove+0x3a>
10007e3c:	68cb      	ldr	r3, [r1, #12]
10007e3e:	6003      	str	r3, [r0, #0]
10007e40:	2300      	movs	r3, #0
10007e42:	60e3      	str	r3, [r4, #12]
10007e44:	7d23      	ldrb	r3, [r4, #20]
10007e46:	2b00      	cmp	r3, #0
10007e48:	d1dd      	bne.n	10007e06 <tcp_pcb_remove+0x22>
10007e4a:	e7e8      	b.n	10007e1e <tcp_pcb_remove+0x3a>
10007e4c:	2202      	movs	r2, #2
10007e4e:	4313      	orrs	r3, r2
10007e50:	0020      	movs	r0, r4
10007e52:	8363      	strh	r3, [r4, #26]
10007e54:	f000 fa48 	bl	100082e8 <tcp_output>
10007e58:	e7e4      	b.n	10007e24 <tcp_pcb_remove+0x40>
10007e5a:	46c0      	nop			; (mov r8, r8)

10007e5c <tcp_abandon>:
10007e5c:	b5f0      	push	{r4, r5, r6, r7, lr}
10007e5e:	464e      	mov	r6, r9
10007e60:	4645      	mov	r5, r8
10007e62:	46de      	mov	lr, fp
10007e64:	4657      	mov	r7, sl
10007e66:	b5e0      	push	{r5, r6, r7, lr}
10007e68:	0005      	movs	r5, r0
10007e6a:	000e      	movs	r6, r1
10007e6c:	b087      	sub	sp, #28
10007e6e:	2800      	cmp	r0, #0
10007e70:	d061      	beq.n	10007f36 <tcp_abandon+0xda>
10007e72:	7d03      	ldrb	r3, [r0, #20]
10007e74:	2b0a      	cmp	r3, #10
10007e76:	d100      	bne.n	10007e7a <tcp_abandon+0x1e>
10007e78:	e09e      	b.n	10007fb8 <tcp_abandon+0x15c>
10007e7a:	6d02      	ldr	r2, [r0, #80]	; 0x50
10007e7c:	4692      	mov	sl, r2
10007e7e:	6a42      	ldr	r2, [r0, #36]	; 0x24
10007e80:	9205      	str	r2, [sp, #20]
10007e82:	2290      	movs	r2, #144	; 0x90
10007e84:	5882      	ldr	r2, [r0, r2]
10007e86:	4693      	mov	fp, r2
10007e88:	6902      	ldr	r2, [r0, #16]
10007e8a:	4691      	mov	r9, r2
10007e8c:	2b00      	cmp	r3, #0
10007e8e:	d160      	bne.n	10007f52 <tcp_abandon+0xf6>
10007e90:	8ac3      	ldrh	r3, [r0, #22]
10007e92:	2600      	movs	r6, #0
10007e94:	4698      	mov	r8, r3
10007e96:	2b00      	cmp	r3, #0
10007e98:	d064      	beq.n	10007f64 <tcp_abandon+0x108>
10007e9a:	4a4d      	ldr	r2, [pc, #308]	; (10007fd0 <tcp_abandon+0x174>)
10007e9c:	6813      	ldr	r3, [r2, #0]
10007e9e:	4283      	cmp	r3, r0
10007ea0:	d154      	bne.n	10007f4c <tcp_abandon+0xf0>
10007ea2:	68c3      	ldr	r3, [r0, #12]
10007ea4:	6013      	str	r3, [r2, #0]
10007ea6:	2300      	movs	r3, #0
10007ea8:	6f2c      	ldr	r4, [r5, #112]	; 0x70
10007eaa:	4698      	mov	r8, r3
10007eac:	2600      	movs	r6, #0
10007eae:	60eb      	str	r3, [r5, #12]
10007eb0:	2c00      	cmp	r4, #0
10007eb2:	d15a      	bne.n	10007f6a <tcp_abandon+0x10e>
10007eb4:	6eec      	ldr	r4, [r5, #108]	; 0x6c
10007eb6:	2c00      	cmp	r4, #0
10007eb8:	d016      	beq.n	10007ee8 <tcp_abandon+0x8c>
10007eba:	6860      	ldr	r0, [r4, #4]
10007ebc:	6827      	ldr	r7, [r4, #0]
10007ebe:	2800      	cmp	r0, #0
10007ec0:	d00c      	beq.n	10007edc <tcp_abandon+0x80>
10007ec2:	f7ff fe4d 	bl	10007b60 <pbuf_free>
10007ec6:	0021      	movs	r1, r4
10007ec8:	2004      	movs	r0, #4
10007eca:	f7ff fbff 	bl	100076cc <memp_free>
10007ece:	2f00      	cmp	r7, #0
10007ed0:	d00a      	beq.n	10007ee8 <tcp_abandon+0x8c>
10007ed2:	003c      	movs	r4, r7
10007ed4:	6860      	ldr	r0, [r4, #4]
10007ed6:	6827      	ldr	r7, [r4, #0]
10007ed8:	2800      	cmp	r0, #0
10007eda:	d1f2      	bne.n	10007ec2 <tcp_abandon+0x66>
10007edc:	0021      	movs	r1, r4
10007ede:	2004      	movs	r0, #4
10007ee0:	f7ff fbf4 	bl	100076cc <memp_free>
10007ee4:	2f00      	cmp	r7, #0
10007ee6:	d1f4      	bne.n	10007ed2 <tcp_abandon+0x76>
10007ee8:	6f6c      	ldr	r4, [r5, #116]	; 0x74
10007eea:	2c00      	cmp	r4, #0
10007eec:	d016      	beq.n	10007f1c <tcp_abandon+0xc0>
10007eee:	6860      	ldr	r0, [r4, #4]
10007ef0:	6827      	ldr	r7, [r4, #0]
10007ef2:	2800      	cmp	r0, #0
10007ef4:	d00c      	beq.n	10007f10 <tcp_abandon+0xb4>
10007ef6:	f7ff fe33 	bl	10007b60 <pbuf_free>
10007efa:	0021      	movs	r1, r4
10007efc:	2004      	movs	r0, #4
10007efe:	f7ff fbe5 	bl	100076cc <memp_free>
10007f02:	2f00      	cmp	r7, #0
10007f04:	d00a      	beq.n	10007f1c <tcp_abandon+0xc0>
10007f06:	003c      	movs	r4, r7
10007f08:	6860      	ldr	r0, [r4, #4]
10007f0a:	6827      	ldr	r7, [r4, #0]
10007f0c:	2800      	cmp	r0, #0
10007f0e:	d1f2      	bne.n	10007ef6 <tcp_abandon+0x9a>
10007f10:	0021      	movs	r1, r4
10007f12:	2004      	movs	r0, #4
10007f14:	f7ff fbda 	bl	100076cc <memp_free>
10007f18:	2f00      	cmp	r7, #0
10007f1a:	d1f4      	bne.n	10007f06 <tcp_abandon+0xaa>
10007f1c:	2e00      	cmp	r6, #0
10007f1e:	d13e      	bne.n	10007f9e <tcp_abandon+0x142>
10007f20:	0029      	movs	r1, r5
10007f22:	2002      	movs	r0, #2
10007f24:	f7ff fbd2 	bl	100076cc <memp_free>
10007f28:	465b      	mov	r3, fp
10007f2a:	2b00      	cmp	r3, #0
10007f2c:	d003      	beq.n	10007f36 <tcp_abandon+0xda>
10007f2e:	210d      	movs	r1, #13
10007f30:	4648      	mov	r0, r9
10007f32:	4249      	negs	r1, r1
10007f34:	47d8      	blx	fp
10007f36:	b007      	add	sp, #28
10007f38:	bcf0      	pop	{r4, r5, r6, r7}
10007f3a:	46bb      	mov	fp, r7
10007f3c:	46b2      	mov	sl, r6
10007f3e:	46a9      	mov	r9, r5
10007f40:	46a0      	mov	r8, r4
10007f42:	bdf0      	pop	{r4, r5, r6, r7, pc}
10007f44:	68da      	ldr	r2, [r3, #12]
10007f46:	42aa      	cmp	r2, r5
10007f48:	d03f      	beq.n	10007fca <tcp_abandon+0x16e>
10007f4a:	0013      	movs	r3, r2
10007f4c:	2b00      	cmp	r3, #0
10007f4e:	d1f9      	bne.n	10007f44 <tcp_abandon+0xe8>
10007f50:	e7a9      	b.n	10007ea6 <tcp_abandon+0x4a>
10007f52:	8ac3      	ldrh	r3, [r0, #22]
10007f54:	0029      	movs	r1, r5
10007f56:	481f      	ldr	r0, [pc, #124]	; (10007fd4 <tcp_abandon+0x178>)
10007f58:	4698      	mov	r8, r3
10007f5a:	f7ff ff43 	bl	10007de4 <tcp_pcb_remove>
10007f5e:	2201      	movs	r2, #1
10007f60:	4b1d      	ldr	r3, [pc, #116]	; (10007fd8 <tcp_abandon+0x17c>)
10007f62:	701a      	strb	r2, [r3, #0]
10007f64:	6f2c      	ldr	r4, [r5, #112]	; 0x70
10007f66:	2c00      	cmp	r4, #0
10007f68:	d0a4      	beq.n	10007eb4 <tcp_abandon+0x58>
10007f6a:	6860      	ldr	r0, [r4, #4]
10007f6c:	6827      	ldr	r7, [r4, #0]
10007f6e:	2800      	cmp	r0, #0
10007f70:	d00c      	beq.n	10007f8c <tcp_abandon+0x130>
10007f72:	f7ff fdf5 	bl	10007b60 <pbuf_free>
10007f76:	0021      	movs	r1, r4
10007f78:	2004      	movs	r0, #4
10007f7a:	f7ff fba7 	bl	100076cc <memp_free>
10007f7e:	2f00      	cmp	r7, #0
10007f80:	d098      	beq.n	10007eb4 <tcp_abandon+0x58>
10007f82:	003c      	movs	r4, r7
10007f84:	6860      	ldr	r0, [r4, #4]
10007f86:	6827      	ldr	r7, [r4, #0]
10007f88:	2800      	cmp	r0, #0
10007f8a:	d1f2      	bne.n	10007f72 <tcp_abandon+0x116>
10007f8c:	0021      	movs	r1, r4
10007f8e:	2004      	movs	r0, #4
10007f90:	f7ff fb9c 	bl	100076cc <memp_free>
10007f94:	2f00      	cmp	r7, #0
10007f96:	d100      	bne.n	10007f9a <tcp_abandon+0x13e>
10007f98:	e78c      	b.n	10007eb4 <tcp_abandon+0x58>
10007f9a:	003c      	movs	r4, r7
10007f9c:	e7f2      	b.n	10007f84 <tcp_abandon+0x128>
10007f9e:	8b2b      	ldrh	r3, [r5, #24]
10007fa0:	4651      	mov	r1, sl
10007fa2:	9302      	str	r3, [sp, #8]
10007fa4:	4643      	mov	r3, r8
10007fa6:	9301      	str	r3, [sp, #4]
10007fa8:	1d2b      	adds	r3, r5, #4
10007faa:	9300      	str	r3, [sp, #0]
10007fac:	0028      	movs	r0, r5
10007fae:	002b      	movs	r3, r5
10007fb0:	9a05      	ldr	r2, [sp, #20]
10007fb2:	f000 f8d1 	bl	10008158 <tcp_rst>
10007fb6:	e7b3      	b.n	10007f20 <tcp_abandon+0xc4>
10007fb8:	0029      	movs	r1, r5
10007fba:	4808      	ldr	r0, [pc, #32]	; (10007fdc <tcp_abandon+0x180>)
10007fbc:	f7ff ff12 	bl	10007de4 <tcp_pcb_remove>
10007fc0:	0029      	movs	r1, r5
10007fc2:	2002      	movs	r0, #2
10007fc4:	f7ff fb82 	bl	100076cc <memp_free>
10007fc8:	e7b5      	b.n	10007f36 <tcp_abandon+0xda>
10007fca:	68ea      	ldr	r2, [r5, #12]
10007fcc:	60da      	str	r2, [r3, #12]
10007fce:	e76a      	b.n	10007ea6 <tcp_abandon+0x4a>
10007fd0:	2000add4 	.word	0x2000add4
10007fd4:	2000add0 	.word	0x2000add0
10007fd8:	2000ae07 	.word	0x2000ae07
10007fdc:	2000ade4 	.word	0x2000ade4

10007fe0 <tcp_eff_send_mss_netif>:
10007fe0:	2900      	cmp	r1, #0
10007fe2:	d00a      	beq.n	10007ffa <tcp_eff_send_mss_netif+0x1a>
10007fe4:	8e0b      	ldrh	r3, [r1, #48]	; 0x30
10007fe6:	2b00      	cmp	r3, #0
10007fe8:	d007      	beq.n	10007ffa <tcp_eff_send_mss_netif+0x1a>
10007fea:	2b28      	cmp	r3, #40	; 0x28
10007fec:	d906      	bls.n	10007ffc <tcp_eff_send_mss_netif+0x1c>
10007fee:	3b28      	subs	r3, #40	; 0x28
10007ff0:	1c1a      	adds	r2, r3, #0
10007ff2:	b29b      	uxth	r3, r3
10007ff4:	4283      	cmp	r3, r0
10007ff6:	d803      	bhi.n	10008000 <tcp_eff_send_mss_netif+0x20>
10007ff8:	b290      	uxth	r0, r2
10007ffa:	4770      	bx	lr
10007ffc:	2000      	movs	r0, #0
10007ffe:	e7fc      	b.n	10007ffa <tcp_eff_send_mss_netif+0x1a>
10008000:	1c02      	adds	r2, r0, #0
10008002:	b290      	uxth	r0, r2
10008004:	e7f9      	b.n	10007ffa <tcp_eff_send_mss_netif+0x1a>
10008006:	46c0      	nop			; (mov r8, r8)

10008008 <tcp_netif_ip_addr_changed>:
10008008:	b570      	push	{r4, r5, r6, lr}
1000800a:	0004      	movs	r4, r0
1000800c:	000d      	movs	r5, r1
1000800e:	2800      	cmp	r0, #0
10008010:	d002      	beq.n	10008018 <tcp_netif_ip_addr_changed+0x10>
10008012:	6803      	ldr	r3, [r0, #0]
10008014:	2b00      	cmp	r3, #0
10008016:	d100      	bne.n	1000801a <tcp_netif_ip_addr_changed+0x12>
10008018:	bd70      	pop	{r4, r5, r6, pc}
1000801a:	4a1f      	ldr	r2, [pc, #124]	; (10008098 <tcp_netif_ip_addr_changed+0x90>)
1000801c:	6810      	ldr	r0, [r2, #0]
1000801e:	2800      	cmp	r0, #0
10008020:	d005      	beq.n	1000802e <tcp_netif_ip_addr_changed+0x26>
10008022:	6802      	ldr	r2, [r0, #0]
10008024:	4293      	cmp	r3, r2
10008026:	d026      	beq.n	10008076 <tcp_netif_ip_addr_changed+0x6e>
10008028:	68c0      	ldr	r0, [r0, #12]
1000802a:	2800      	cmp	r0, #0
1000802c:	d1f9      	bne.n	10008022 <tcp_netif_ip_addr_changed+0x1a>
1000802e:	4b1b      	ldr	r3, [pc, #108]	; (1000809c <tcp_netif_ip_addr_changed+0x94>)
10008030:	6818      	ldr	r0, [r3, #0]
10008032:	2800      	cmp	r0, #0
10008034:	d006      	beq.n	10008044 <tcp_netif_ip_addr_changed+0x3c>
10008036:	6823      	ldr	r3, [r4, #0]
10008038:	6802      	ldr	r2, [r0, #0]
1000803a:	429a      	cmp	r2, r3
1000803c:	d024      	beq.n	10008088 <tcp_netif_ip_addr_changed+0x80>
1000803e:	68c0      	ldr	r0, [r0, #12]
10008040:	2800      	cmp	r0, #0
10008042:	d1f9      	bne.n	10008038 <tcp_netif_ip_addr_changed+0x30>
10008044:	2d00      	cmp	r5, #0
10008046:	d0e7      	beq.n	10008018 <tcp_netif_ip_addr_changed+0x10>
10008048:	682b      	ldr	r3, [r5, #0]
1000804a:	2b00      	cmp	r3, #0
1000804c:	d0e4      	beq.n	10008018 <tcp_netif_ip_addr_changed+0x10>
1000804e:	4b14      	ldr	r3, [pc, #80]	; (100080a0 <tcp_netif_ip_addr_changed+0x98>)
10008050:	681a      	ldr	r2, [r3, #0]
10008052:	2a00      	cmp	r2, #0
10008054:	d0e0      	beq.n	10008018 <tcp_netif_ip_addr_changed+0x10>
10008056:	6823      	ldr	r3, [r4, #0]
10008058:	6811      	ldr	r1, [r2, #0]
1000805a:	4299      	cmp	r1, r3
1000805c:	d005      	beq.n	1000806a <tcp_netif_ip_addr_changed+0x62>
1000805e:	68d2      	ldr	r2, [r2, #12]
10008060:	2a00      	cmp	r2, #0
10008062:	d0d9      	beq.n	10008018 <tcp_netif_ip_addr_changed+0x10>
10008064:	6811      	ldr	r1, [r2, #0]
10008066:	4299      	cmp	r1, r3
10008068:	d1f9      	bne.n	1000805e <tcp_netif_ip_addr_changed+0x56>
1000806a:	682b      	ldr	r3, [r5, #0]
1000806c:	6013      	str	r3, [r2, #0]
1000806e:	68d2      	ldr	r2, [r2, #12]
10008070:	2a00      	cmp	r2, #0
10008072:	d1f0      	bne.n	10008056 <tcp_netif_ip_addr_changed+0x4e>
10008074:	e7d0      	b.n	10008018 <tcp_netif_ip_addr_changed+0x10>
10008076:	68c6      	ldr	r6, [r0, #12]
10008078:	2101      	movs	r1, #1
1000807a:	f7ff feef 	bl	10007e5c <tcp_abandon>
1000807e:	2e00      	cmp	r6, #0
10008080:	d0d5      	beq.n	1000802e <tcp_netif_ip_addr_changed+0x26>
10008082:	0030      	movs	r0, r6
10008084:	6823      	ldr	r3, [r4, #0]
10008086:	e7cc      	b.n	10008022 <tcp_netif_ip_addr_changed+0x1a>
10008088:	68c6      	ldr	r6, [r0, #12]
1000808a:	2101      	movs	r1, #1
1000808c:	f7ff fee6 	bl	10007e5c <tcp_abandon>
10008090:	2e00      	cmp	r6, #0
10008092:	d0d7      	beq.n	10008044 <tcp_netif_ip_addr_changed+0x3c>
10008094:	0030      	movs	r0, r6
10008096:	e7ce      	b.n	10008036 <tcp_netif_ip_addr_changed+0x2e>
10008098:	2000add0 	.word	0x2000add0
1000809c:	2000add4 	.word	0x2000add4
100080a0:	2000addc 	.word	0x2000addc

100080a4 <tcp_output_control_segment>:
100080a4:	b5f0      	push	{r4, r5, r6, r7, lr}
100080a6:	4647      	mov	r7, r8
100080a8:	46ce      	mov	lr, r9
100080aa:	b580      	push	{r7, lr}
100080ac:	0005      	movs	r5, r0
100080ae:	000c      	movs	r4, r1
100080b0:	4690      	mov	r8, r2
100080b2:	001e      	movs	r6, r3
100080b4:	b085      	sub	sp, #20
100080b6:	2800      	cmp	r0, #0
100080b8:	d038      	beq.n	1000812c <tcp_output_control_segment+0x88>
100080ba:	7a00      	ldrb	r0, [r0, #8]
100080bc:	2800      	cmp	r0, #0
100080be:	d12b      	bne.n	10008118 <tcp_output_control_segment+0x74>
100080c0:	0018      	movs	r0, r3
100080c2:	f001 f981 	bl	100093c8 <ip4_route>
100080c6:	1e07      	subs	r7, r0, #0
100080c8:	d02a      	beq.n	10008120 <tcp_output_control_segment+0x7c>
100080ca:	6863      	ldr	r3, [r4, #4]
100080cc:	2106      	movs	r1, #6
100080ce:	4699      	mov	r9, r3
100080d0:	0020      	movs	r0, r4
100080d2:	4643      	mov	r3, r8
100080d4:	8922      	ldrh	r2, [r4, #8]
100080d6:	9600      	str	r6, [sp, #0]
100080d8:	f7ff f96e 	bl	100073b8 <ip_chksum_pseudo>
100080dc:	464b      	mov	r3, r9
100080de:	7418      	strb	r0, [r3, #16]
100080e0:	0a00      	lsrs	r0, r0, #8
100080e2:	7458      	strb	r0, [r3, #17]
100080e4:	7aeb      	ldrb	r3, [r5, #11]
100080e6:	7aad      	ldrb	r5, [r5, #10]
100080e8:	2178      	movs	r1, #120	; 0x78
100080ea:	481a      	ldr	r0, [pc, #104]	; (10008154 <tcp_output_control_segment+0xb0>)
100080ec:	5a42      	ldrh	r2, [r0, r1]
100080ee:	3201      	adds	r2, #1
100080f0:	5242      	strh	r2, [r0, r1]
100080f2:	2206      	movs	r2, #6
100080f4:	9500      	str	r5, [sp, #0]
100080f6:	9201      	str	r2, [sp, #4]
100080f8:	4641      	mov	r1, r8
100080fa:	0032      	movs	r2, r6
100080fc:	0020      	movs	r0, r4
100080fe:	9702      	str	r7, [sp, #8]
10008100:	f001 f9a0 	bl	10009444 <ip4_output_if>
10008104:	0005      	movs	r5, r0
10008106:	0020      	movs	r0, r4
10008108:	f7ff fd2a 	bl	10007b60 <pbuf_free>
1000810c:	0028      	movs	r0, r5
1000810e:	b005      	add	sp, #20
10008110:	bcc0      	pop	{r6, r7}
10008112:	46b9      	mov	r9, r7
10008114:	46b0      	mov	r8, r6
10008116:	bdf0      	pop	{r4, r5, r6, r7, pc}
10008118:	f7ff fbce 	bl	100078b8 <netif_get_by_index>
1000811c:	1e07      	subs	r7, r0, #0
1000811e:	d1d4      	bne.n	100080ca <tcp_output_control_segment+0x26>
10008120:	2504      	movs	r5, #4
10008122:	0020      	movs	r0, r4
10008124:	f7ff fd1c 	bl	10007b60 <pbuf_free>
10008128:	426d      	negs	r5, r5
1000812a:	e7ef      	b.n	1000810c <tcp_output_control_segment+0x68>
1000812c:	0018      	movs	r0, r3
1000812e:	f001 f94b 	bl	100093c8 <ip4_route>
10008132:	1e07      	subs	r7, r0, #0
10008134:	d0f4      	beq.n	10008120 <tcp_output_control_segment+0x7c>
10008136:	4643      	mov	r3, r8
10008138:	2106      	movs	r1, #6
1000813a:	0020      	movs	r0, r4
1000813c:	8922      	ldrh	r2, [r4, #8]
1000813e:	9600      	str	r6, [sp, #0]
10008140:	6865      	ldr	r5, [r4, #4]
10008142:	f7ff f939 	bl	100073b8 <ip_chksum_pseudo>
10008146:	7428      	strb	r0, [r5, #16]
10008148:	0a00      	lsrs	r0, r0, #8
1000814a:	7468      	strb	r0, [r5, #17]
1000814c:	23ff      	movs	r3, #255	; 0xff
1000814e:	2500      	movs	r5, #0
10008150:	e7ca      	b.n	100080e8 <tcp_output_control_segment+0x44>
10008152:	46c0      	nop			; (mov r8, r8)
10008154:	200012f8 	.word	0x200012f8

10008158 <tcp_rst>:
10008158:	b5f0      	push	{r4, r5, r6, r7, lr}
1000815a:	46de      	mov	lr, fp
1000815c:	4657      	mov	r7, sl
1000815e:	464e      	mov	r6, r9
10008160:	4645      	mov	r5, r8
10008162:	b5e0      	push	{r5, r6, r7, lr}
10008164:	b083      	sub	sp, #12
10008166:	4698      	mov	r8, r3
10008168:	ab0c      	add	r3, sp, #48	; 0x30
1000816a:	4691      	mov	r9, r2
1000816c:	cb04      	ldmia	r3!, {r2}
1000816e:	0007      	movs	r7, r0
10008170:	9201      	str	r2, [sp, #4]
10008172:	881a      	ldrh	r2, [r3, #0]
10008174:	ab0e      	add	r3, sp, #56	; 0x38
10008176:	4693      	mov	fp, r2
10008178:	881a      	ldrh	r2, [r3, #0]
1000817a:	0008      	movs	r0, r1
1000817c:	4692      	mov	sl, r2
1000817e:	f7ff f84f 	bl	10007220 <lwip_htonl>
10008182:	22a0      	movs	r2, #160	; 0xa0
10008184:	0005      	movs	r5, r0
10008186:	2114      	movs	r1, #20
10008188:	2022      	movs	r0, #34	; 0x22
1000818a:	0092      	lsls	r2, r2, #2
1000818c:	f7ff fbaa 	bl	100078e4 <pbuf_alloc>
10008190:	1e06      	subs	r6, r0, #0
10008192:	d034      	beq.n	100081fe <tcp_rst+0xa6>
10008194:	6844      	ldr	r4, [r0, #4]
10008196:	4658      	mov	r0, fp
10008198:	f7ff f83e 	bl	10007218 <lwip_htons>
1000819c:	7020      	strb	r0, [r4, #0]
1000819e:	0a00      	lsrs	r0, r0, #8
100081a0:	7060      	strb	r0, [r4, #1]
100081a2:	4650      	mov	r0, sl
100081a4:	f7ff f838 	bl	10007218 <lwip_htons>
100081a8:	0a2b      	lsrs	r3, r5, #8
100081aa:	70a0      	strb	r0, [r4, #2]
100081ac:	7125      	strb	r5, [r4, #4]
100081ae:	0a00      	lsrs	r0, r0, #8
100081b0:	7163      	strb	r3, [r4, #5]
100081b2:	0c2b      	lsrs	r3, r5, #16
100081b4:	0e2d      	lsrs	r5, r5, #24
100081b6:	70e0      	strb	r0, [r4, #3]
100081b8:	71a3      	strb	r3, [r4, #6]
100081ba:	4648      	mov	r0, r9
100081bc:	71e5      	strb	r5, [r4, #7]
100081be:	f7ff f82f 	bl	10007220 <lwip_htonl>
100081c2:	0a03      	lsrs	r3, r0, #8
100081c4:	7220      	strb	r0, [r4, #8]
100081c6:	7263      	strb	r3, [r4, #9]
100081c8:	0c03      	lsrs	r3, r0, #16
100081ca:	0e00      	lsrs	r0, r0, #24
100081cc:	72a3      	strb	r3, [r4, #10]
100081ce:	72e0      	strb	r0, [r4, #11]
100081d0:	480e      	ldr	r0, [pc, #56]	; (1000820c <tcp_rst+0xb4>)
100081d2:	f7ff f821 	bl	10007218 <lwip_htons>
100081d6:	7320      	strb	r0, [r4, #12]
100081d8:	0a00      	lsrs	r0, r0, #8
100081da:	7360      	strb	r0, [r4, #13]
100081dc:	480c      	ldr	r0, [pc, #48]	; (10008210 <tcp_rst+0xb8>)
100081de:	f7ff f81b 	bl	10007218 <lwip_htons>
100081e2:	2300      	movs	r3, #0
100081e4:	73a0      	strb	r0, [r4, #14]
100081e6:	0a00      	lsrs	r0, r0, #8
100081e8:	73e0      	strb	r0, [r4, #15]
100081ea:	7423      	strb	r3, [r4, #16]
100081ec:	7463      	strb	r3, [r4, #17]
100081ee:	74a3      	strb	r3, [r4, #18]
100081f0:	74e3      	strb	r3, [r4, #19]
100081f2:	4642      	mov	r2, r8
100081f4:	0031      	movs	r1, r6
100081f6:	0038      	movs	r0, r7
100081f8:	9b01      	ldr	r3, [sp, #4]
100081fa:	f7ff ff53 	bl	100080a4 <tcp_output_control_segment>
100081fe:	b003      	add	sp, #12
10008200:	bcf0      	pop	{r4, r5, r6, r7}
10008202:	46bb      	mov	fp, r7
10008204:	46b2      	mov	sl, r6
10008206:	46a9      	mov	r9, r5
10008208:	46a0      	mov	r8, r4
1000820a:	bdf0      	pop	{r4, r5, r6, r7, pc}
1000820c:	00005014 	.word	0x00005014
10008210:	0000a02d 	.word	0x0000a02d

10008214 <tcp_send_empty_ack>:
10008214:	b5f8      	push	{r3, r4, r5, r6, r7, lr}
10008216:	46de      	mov	lr, fp
10008218:	4657      	mov	r7, sl
1000821a:	464e      	mov	r6, r9
1000821c:	4645      	mov	r5, r8
1000821e:	b5e0      	push	{r5, r6, r7, lr}
10008220:	0005      	movs	r5, r0
10008222:	6d00      	ldr	r0, [r0, #80]	; 0x50
10008224:	f7fe fffc 	bl	10007220 <lwip_htonl>
10008228:	22a0      	movs	r2, #160	; 0xa0
1000822a:	6a6b      	ldr	r3, [r5, #36]	; 0x24
1000822c:	0006      	movs	r6, r0
1000822e:	4699      	mov	r9, r3
10008230:	8aeb      	ldrh	r3, [r5, #22]
10008232:	2114      	movs	r1, #20
10008234:	469b      	mov	fp, r3
10008236:	8b2b      	ldrh	r3, [r5, #24]
10008238:	2022      	movs	r0, #34	; 0x22
1000823a:	469a      	mov	sl, r3
1000823c:	8d6b      	ldrh	r3, [r5, #42]	; 0x2a
1000823e:	0092      	lsls	r2, r2, #2
10008240:	4698      	mov	r8, r3
10008242:	f7ff fb4f 	bl	100078e4 <pbuf_alloc>
10008246:	1e07      	subs	r7, r0, #0
10008248:	d046      	beq.n	100082d8 <tcp_send_empty_ack+0xc4>
1000824a:	6844      	ldr	r4, [r0, #4]
1000824c:	4658      	mov	r0, fp
1000824e:	f7fe ffe3 	bl	10007218 <lwip_htons>
10008252:	7020      	strb	r0, [r4, #0]
10008254:	0a00      	lsrs	r0, r0, #8
10008256:	7060      	strb	r0, [r4, #1]
10008258:	4650      	mov	r0, sl
1000825a:	f7fe ffdd 	bl	10007218 <lwip_htons>
1000825e:	0a33      	lsrs	r3, r6, #8
10008260:	70a0      	strb	r0, [r4, #2]
10008262:	7126      	strb	r6, [r4, #4]
10008264:	0a00      	lsrs	r0, r0, #8
10008266:	7163      	strb	r3, [r4, #5]
10008268:	0c33      	lsrs	r3, r6, #16
1000826a:	0e36      	lsrs	r6, r6, #24
1000826c:	70e0      	strb	r0, [r4, #3]
1000826e:	71a3      	strb	r3, [r4, #6]
10008270:	4648      	mov	r0, r9
10008272:	71e6      	strb	r6, [r4, #7]
10008274:	f7fe ffd4 	bl	10007220 <lwip_htonl>
10008278:	0a03      	lsrs	r3, r0, #8
1000827a:	7220      	strb	r0, [r4, #8]
1000827c:	7263      	strb	r3, [r4, #9]
1000827e:	0c03      	lsrs	r3, r0, #16
10008280:	0e00      	lsrs	r0, r0, #24
10008282:	72a3      	strb	r3, [r4, #10]
10008284:	72e0      	strb	r0, [r4, #11]
10008286:	4817      	ldr	r0, [pc, #92]	; (100082e4 <tcp_send_empty_ack+0xd0>)
10008288:	f7fe ffc6 	bl	10007218 <lwip_htons>
1000828c:	7320      	strb	r0, [r4, #12]
1000828e:	0a00      	lsrs	r0, r0, #8
10008290:	7360      	strb	r0, [r4, #13]
10008292:	4640      	mov	r0, r8
10008294:	f7fe ffc0 	bl	10007218 <lwip_htons>
10008298:	2300      	movs	r3, #0
1000829a:	73a0      	strb	r0, [r4, #14]
1000829c:	0a00      	lsrs	r0, r0, #8
1000829e:	73e0      	strb	r0, [r4, #15]
100082a0:	7423      	strb	r3, [r4, #16]
100082a2:	7463      	strb	r3, [r4, #17]
100082a4:	74a3      	strb	r3, [r4, #18]
100082a6:	74e3      	strb	r3, [r4, #19]
100082a8:	8d6a      	ldrh	r2, [r5, #42]	; 0x2a
100082aa:	6a6b      	ldr	r3, [r5, #36]	; 0x24
100082ac:	0039      	movs	r1, r7
100082ae:	189b      	adds	r3, r3, r2
100082b0:	62eb      	str	r3, [r5, #44]	; 0x2c
100082b2:	002a      	movs	r2, r5
100082b4:	1d2b      	adds	r3, r5, #4
100082b6:	0028      	movs	r0, r5
100082b8:	f7ff fef4 	bl	100080a4 <tcp_output_control_segment>
100082bc:	2203      	movs	r2, #3
100082be:	8b6b      	ldrh	r3, [r5, #26]
100082c0:	2800      	cmp	r0, #0
100082c2:	d107      	bne.n	100082d4 <tcp_send_empty_ack+0xc0>
100082c4:	4393      	bics	r3, r2
100082c6:	836b      	strh	r3, [r5, #26]
100082c8:	bcf0      	pop	{r4, r5, r6, r7}
100082ca:	46bb      	mov	fp, r7
100082cc:	46b2      	mov	sl, r6
100082ce:	46a9      	mov	r9, r5
100082d0:	46a0      	mov	r8, r4
100082d2:	bdf8      	pop	{r3, r4, r5, r6, r7, pc}
100082d4:	4313      	orrs	r3, r2
100082d6:	e7f6      	b.n	100082c6 <tcp_send_empty_ack+0xb2>
100082d8:	2203      	movs	r2, #3
100082da:	2002      	movs	r0, #2
100082dc:	8b6b      	ldrh	r3, [r5, #26]
100082de:	4240      	negs	r0, r0
100082e0:	4313      	orrs	r3, r2
100082e2:	e7f0      	b.n	100082c6 <tcp_send_empty_ack+0xb2>
100082e4:	00005010 	.word	0x00005010

100082e8 <tcp_output>:
100082e8:	b5f0      	push	{r4, r5, r6, r7, lr}
100082ea:	46de      	mov	lr, fp
100082ec:	4657      	mov	r7, sl
100082ee:	464e      	mov	r6, r9
100082f0:	4645      	mov	r5, r8
100082f2:	b5e0      	push	{r5, r6, r7, lr}
100082f4:	4bcb      	ldr	r3, [pc, #812]	; (10008624 <tcp_output+0x33c>)
100082f6:	0004      	movs	r4, r0
100082f8:	681b      	ldr	r3, [r3, #0]
100082fa:	b087      	sub	sp, #28
100082fc:	4283      	cmp	r3, r0
100082fe:	d100      	bne.n	10008302 <tcp_output+0x1a>
10008300:	e1df      	b.n	100086c2 <tcp_output+0x3da>
10008302:	2348      	movs	r3, #72	; 0x48
10008304:	6ec5      	ldr	r5, [r0, #108]	; 0x6c
10008306:	5ac6      	ldrh	r6, [r0, r3]
10008308:	3318      	adds	r3, #24
1000830a:	5ac7      	ldrh	r7, [r0, r3]
1000830c:	2d00      	cmp	r5, #0
1000830e:	d030      	beq.n	10008372 <tcp_output+0x8a>
10008310:	1d03      	adds	r3, r0, #4
10008312:	7a00      	ldrb	r0, [r0, #8]
10008314:	4699      	mov	r9, r3
10008316:	2800      	cmp	r0, #0
10008318:	d000      	beq.n	1000831c <tcp_output+0x34>
1000831a:	e1d4      	b.n	100086c6 <tcp_output+0x3de>
1000831c:	0018      	movs	r0, r3
1000831e:	f001 f853 	bl	100093c8 <ip4_route>
10008322:	4682      	mov	sl, r0
10008324:	4653      	mov	r3, sl
10008326:	2b00      	cmp	r3, #0
10008328:	d100      	bne.n	1000832c <tcp_output+0x44>
1000832a:	e1e3      	b.n	100086f4 <tcp_output+0x40c>
1000832c:	6823      	ldr	r3, [r4, #0]
1000832e:	2b00      	cmp	r3, #0
10008330:	d102      	bne.n	10008338 <tcp_output+0x50>
10008332:	4653      	mov	r3, sl
10008334:	685b      	ldr	r3, [r3, #4]
10008336:	6023      	str	r3, [r4, #0]
10008338:	1c33      	adds	r3, r6, #0
1000833a:	42be      	cmp	r6, r7
1000833c:	d900      	bls.n	10008340 <tcp_output+0x58>
1000833e:	1c3b      	adds	r3, r7, #0
10008340:	68e9      	ldr	r1, [r5, #12]
10008342:	b29f      	uxth	r7, r3
10008344:	794a      	ldrb	r2, [r1, #5]
10008346:	790b      	ldrb	r3, [r1, #4]
10008348:	0212      	lsls	r2, r2, #8
1000834a:	431a      	orrs	r2, r3
1000834c:	798b      	ldrb	r3, [r1, #6]
1000834e:	79c8      	ldrb	r0, [r1, #7]
10008350:	041b      	lsls	r3, r3, #16
10008352:	4313      	orrs	r3, r2
10008354:	0600      	lsls	r0, r0, #24
10008356:	4318      	orrs	r0, r3
10008358:	f7fe ff62 	bl	10007220 <lwip_htonl>
1000835c:	892a      	ldrh	r2, [r5, #8]
1000835e:	6c63      	ldr	r3, [r4, #68]	; 0x44
10008360:	1ad3      	subs	r3, r2, r3
10008362:	181b      	adds	r3, r3, r0
10008364:	42bb      	cmp	r3, r7
10008366:	d913      	bls.n	10008390 <tcp_output+0xa8>
10008368:	2360      	movs	r3, #96	; 0x60
1000836a:	5ae3      	ldrh	r3, [r4, r3]
1000836c:	42bb      	cmp	r3, r7
1000836e:	d100      	bne.n	10008372 <tcp_output+0x8a>
10008370:	e11e      	b.n	100085b0 <tcp_output+0x2c8>
10008372:	8b62      	ldrh	r2, [r4, #26]
10008374:	0793      	lsls	r3, r2, #30
10008376:	d500      	bpl.n	1000837a <tcp_output+0x92>
10008378:	e116      	b.n	100085a8 <tcp_output+0x2c0>
1000837a:	2380      	movs	r3, #128	; 0x80
1000837c:	2000      	movs	r0, #0
1000837e:	439a      	bics	r2, r3
10008380:	8362      	strh	r2, [r4, #26]
10008382:	b007      	add	sp, #28
10008384:	bcf0      	pop	{r4, r5, r6, r7}
10008386:	46bb      	mov	fp, r7
10008388:	46b2      	mov	sl, r6
1000838a:	46a9      	mov	r9, r5
1000838c:	46a0      	mov	r8, r4
1000838e:	bdf0      	pop	{r4, r5, r6, r7, pc}
10008390:	23a1      	movs	r3, #161	; 0xa1
10008392:	2200      	movs	r2, #0
10008394:	54e2      	strb	r2, [r4, r3]
10008396:	6f23      	ldr	r3, [r4, #112]	; 0x70
10008398:	2b00      	cmp	r3, #0
1000839a:	d100      	bne.n	1000839e <tcp_output+0xb6>
1000839c:	e118      	b.n	100085d0 <tcp_output+0x2e8>
1000839e:	001a      	movs	r2, r3
100083a0:	681b      	ldr	r3, [r3, #0]
100083a2:	2b00      	cmp	r3, #0
100083a4:	d1fb      	bne.n	1000839e <tcp_output+0xb6>
100083a6:	4690      	mov	r8, r2
100083a8:	4b9f      	ldr	r3, [pc, #636]	; (10008628 <tcp_output+0x340>)
100083aa:	9304      	str	r3, [sp, #16]
100083ac:	4b9f      	ldr	r3, [pc, #636]	; (1000862c <tcp_output+0x344>)
100083ae:	9305      	str	r3, [sp, #20]
100083b0:	4643      	mov	r3, r8
100083b2:	46b8      	mov	r8, r7
100083b4:	001f      	movs	r7, r3
100083b6:	e0b9      	b.n	1000852c <tcp_output+0x244>
100083b8:	68ee      	ldr	r6, [r5, #12]
100083ba:	686b      	ldr	r3, [r5, #4]
100083bc:	7b9b      	ldrb	r3, [r3, #14]
100083be:	469b      	mov	fp, r3
100083c0:	2b01      	cmp	r3, #1
100083c2:	d151      	bne.n	10008468 <tcp_output+0x180>
100083c4:	6a60      	ldr	r0, [r4, #36]	; 0x24
100083c6:	f7fe ff2b 	bl	10007220 <lwip_htonl>
100083ca:	0a03      	lsrs	r3, r0, #8
100083cc:	7230      	strb	r0, [r6, #8]
100083ce:	7273      	strb	r3, [r6, #9]
100083d0:	0c03      	lsrs	r3, r0, #16
100083d2:	0e00      	lsrs	r0, r0, #24
100083d4:	72b3      	strb	r3, [r6, #10]
100083d6:	72f0      	strb	r0, [r6, #11]
100083d8:	8d60      	ldrh	r0, [r4, #42]	; 0x2a
100083da:	68ee      	ldr	r6, [r5, #12]
100083dc:	f7fe ff1c 	bl	10007218 <lwip_htons>
100083e0:	73b0      	strb	r0, [r6, #14]
100083e2:	0a00      	lsrs	r0, r0, #8
100083e4:	73f0      	strb	r0, [r6, #15]
100083e6:	8d62      	ldrh	r2, [r4, #42]	; 0x2a
100083e8:	6a63      	ldr	r3, [r4, #36]	; 0x24
100083ea:	68ee      	ldr	r6, [r5, #12]
100083ec:	189b      	adds	r3, r3, r2
100083ee:	465a      	mov	r2, fp
100083f0:	62e3      	str	r3, [r4, #44]	; 0x2c
100083f2:	7aab      	ldrb	r3, [r5, #10]
100083f4:	421a      	tst	r2, r3
100083f6:	d000      	beq.n	100083fa <tcp_output+0x112>
100083f8:	e106      	b.n	10008608 <tcp_output+0x320>
100083fa:	2230      	movs	r2, #48	; 0x30
100083fc:	5ea3      	ldrsh	r3, [r4, r2]
100083fe:	2b00      	cmp	r3, #0
10008400:	da01      	bge.n	10008406 <tcp_output+0x11e>
10008402:	2300      	movs	r3, #0
10008404:	8623      	strh	r3, [r4, #48]	; 0x30
10008406:	6b63      	ldr	r3, [r4, #52]	; 0x34
10008408:	2b00      	cmp	r3, #0
1000840a:	d100      	bne.n	1000840e <tcp_output+0x126>
1000840c:	e0ea      	b.n	100085e4 <tcp_output+0x2fc>
1000840e:	6868      	ldr	r0, [r5, #4]
10008410:	2106      	movs	r1, #6
10008412:	6843      	ldr	r3, [r0, #4]
10008414:	8942      	ldrh	r2, [r0, #10]
10008416:	1af3      	subs	r3, r6, r3
10008418:	b29b      	uxth	r3, r3
1000841a:	1ad2      	subs	r2, r2, r3
1000841c:	8142      	strh	r2, [r0, #10]
1000841e:	8902      	ldrh	r2, [r0, #8]
10008420:	6046      	str	r6, [r0, #4]
10008422:	1ad2      	subs	r2, r2, r3
10008424:	2300      	movs	r3, #0
10008426:	b292      	uxth	r2, r2
10008428:	8102      	strh	r2, [r0, #8]
1000842a:	7433      	strb	r3, [r6, #16]
1000842c:	7473      	strb	r3, [r6, #17]
1000842e:	464b      	mov	r3, r9
10008430:	9300      	str	r3, [sp, #0]
10008432:	0023      	movs	r3, r4
10008434:	f7fe ffc0 	bl	100073b8 <ip_chksum_pseudo>
10008438:	2278      	movs	r2, #120	; 0x78
1000843a:	7430      	strb	r0, [r6, #16]
1000843c:	9904      	ldr	r1, [sp, #16]
1000843e:	0a00      	lsrs	r0, r0, #8
10008440:	7470      	strb	r0, [r6, #17]
10008442:	5a8b      	ldrh	r3, [r1, r2]
10008444:	6868      	ldr	r0, [r5, #4]
10008446:	3301      	adds	r3, #1
10008448:	528b      	strh	r3, [r1, r2]
1000844a:	4652      	mov	r2, sl
1000844c:	7ae3      	ldrb	r3, [r4, #11]
1000844e:	9202      	str	r2, [sp, #8]
10008450:	2206      	movs	r2, #6
10008452:	9201      	str	r2, [sp, #4]
10008454:	7aa2      	ldrb	r2, [r4, #10]
10008456:	0021      	movs	r1, r4
10008458:	9200      	str	r2, [sp, #0]
1000845a:	464a      	mov	r2, r9
1000845c:	f000 fff2 	bl	10009444 <ip4_output_if>
10008460:	2800      	cmp	r0, #0
10008462:	d000      	beq.n	10008466 <tcp_output+0x17e>
10008464:	e141      	b.n	100086ea <tcp_output+0x402>
10008466:	68ee      	ldr	r6, [r5, #12]
10008468:	682b      	ldr	r3, [r5, #0]
1000846a:	66e3      	str	r3, [r4, #108]	; 0x6c
1000846c:	7d23      	ldrb	r3, [r4, #20]
1000846e:	2b02      	cmp	r3, #2
10008470:	d003      	beq.n	1000847a <tcp_output+0x192>
10008472:	2203      	movs	r2, #3
10008474:	8b63      	ldrh	r3, [r4, #26]
10008476:	4393      	bics	r3, r2
10008478:	8363      	strh	r3, [r4, #26]
1000847a:	7972      	ldrb	r2, [r6, #5]
1000847c:	7933      	ldrb	r3, [r6, #4]
1000847e:	0212      	lsls	r2, r2, #8
10008480:	431a      	orrs	r2, r3
10008482:	79b3      	ldrb	r3, [r6, #6]
10008484:	79f0      	ldrb	r0, [r6, #7]
10008486:	041b      	lsls	r3, r3, #16
10008488:	4313      	orrs	r3, r2
1000848a:	0600      	lsls	r0, r0, #24
1000848c:	4318      	orrs	r0, r3
1000848e:	f7fe fec7 	bl	10007220 <lwip_htonl>
10008492:	892b      	ldrh	r3, [r5, #8]
10008494:	0006      	movs	r6, r0
10008496:	469b      	mov	fp, r3
10008498:	68eb      	ldr	r3, [r5, #12]
1000849a:	445e      	add	r6, fp
1000849c:	7b58      	ldrb	r0, [r3, #13]
1000849e:	7b1a      	ldrb	r2, [r3, #12]
100084a0:	0200      	lsls	r0, r0, #8
100084a2:	4310      	orrs	r0, r2
100084a4:	f7fe feb8 	bl	10007218 <lwip_htons>
100084a8:	2303      	movs	r3, #3
100084aa:	4003      	ands	r3, r0
100084ac:	1e5a      	subs	r2, r3, #1
100084ae:	4193      	sbcs	r3, r2
100084b0:	199e      	adds	r6, r3, r6
100084b2:	6d23      	ldr	r3, [r4, #80]	; 0x50
100084b4:	1b9b      	subs	r3, r3, r6
100084b6:	d500      	bpl.n	100084ba <tcp_output+0x1d2>
100084b8:	6526      	str	r6, [r4, #80]	; 0x50
100084ba:	68eb      	ldr	r3, [r5, #12]
100084bc:	892e      	ldrh	r6, [r5, #8]
100084be:	7b58      	ldrb	r0, [r3, #13]
100084c0:	7b1a      	ldrb	r2, [r3, #12]
100084c2:	0200      	lsls	r0, r0, #8
100084c4:	4310      	orrs	r0, r2
100084c6:	f7fe fea7 	bl	10007218 <lwip_htons>
100084ca:	2303      	movs	r3, #3
100084cc:	4003      	ands	r3, r0
100084ce:	1e5a      	subs	r2, r3, #1
100084d0:	4193      	sbcs	r3, r2
100084d2:	199b      	adds	r3, r3, r6
100084d4:	2b00      	cmp	r3, #0
100084d6:	d100      	bne.n	100084da <tcp_output+0x1f2>
100084d8:	e07d      	b.n	100085d6 <tcp_output+0x2ee>
100084da:	2300      	movs	r3, #0
100084dc:	602b      	str	r3, [r5, #0]
100084de:	6f23      	ldr	r3, [r4, #112]	; 0x70
100084e0:	2b00      	cmp	r3, #0
100084e2:	d07c      	beq.n	100085de <tcp_output+0x2f6>
100084e4:	68e9      	ldr	r1, [r5, #12]
100084e6:	794a      	ldrb	r2, [r1, #5]
100084e8:	790b      	ldrb	r3, [r1, #4]
100084ea:	0212      	lsls	r2, r2, #8
100084ec:	431a      	orrs	r2, r3
100084ee:	798b      	ldrb	r3, [r1, #6]
100084f0:	79c8      	ldrb	r0, [r1, #7]
100084f2:	041b      	lsls	r3, r3, #16
100084f4:	4313      	orrs	r3, r2
100084f6:	0600      	lsls	r0, r0, #24
100084f8:	4318      	orrs	r0, r3
100084fa:	f7fe fe91 	bl	10007220 <lwip_htonl>
100084fe:	68f9      	ldr	r1, [r7, #12]
10008500:	0006      	movs	r6, r0
10008502:	794a      	ldrb	r2, [r1, #5]
10008504:	790b      	ldrb	r3, [r1, #4]
10008506:	0212      	lsls	r2, r2, #8
10008508:	431a      	orrs	r2, r3
1000850a:	798b      	ldrb	r3, [r1, #6]
1000850c:	79c8      	ldrb	r0, [r1, #7]
1000850e:	041b      	lsls	r3, r3, #16
10008510:	4313      	orrs	r3, r2
10008512:	0600      	lsls	r0, r0, #24
10008514:	4318      	orrs	r0, r3
10008516:	f7fe fe83 	bl	10007220 <lwip_htonl>
1000851a:	1a36      	subs	r6, r6, r0
1000851c:	d500      	bpl.n	10008520 <tcp_output+0x238>
1000851e:	e09c      	b.n	1000865a <tcp_output+0x372>
10008520:	603d      	str	r5, [r7, #0]
10008522:	002f      	movs	r7, r5
10008524:	6ee5      	ldr	r5, [r4, #108]	; 0x6c
10008526:	2d00      	cmp	r5, #0
10008528:	d100      	bne.n	1000852c <tcp_output+0x244>
1000852a:	e0d4      	b.n	100086d6 <tcp_output+0x3ee>
1000852c:	68e9      	ldr	r1, [r5, #12]
1000852e:	794a      	ldrb	r2, [r1, #5]
10008530:	790b      	ldrb	r3, [r1, #4]
10008532:	0212      	lsls	r2, r2, #8
10008534:	431a      	orrs	r2, r3
10008536:	798b      	ldrb	r3, [r1, #6]
10008538:	79c8      	ldrb	r0, [r1, #7]
1000853a:	041b      	lsls	r3, r3, #16
1000853c:	4313      	orrs	r3, r2
1000853e:	0600      	lsls	r0, r0, #24
10008540:	4318      	orrs	r0, r3
10008542:	f7fe fe6d 	bl	10007220 <lwip_htonl>
10008546:	6c63      	ldr	r3, [r4, #68]	; 0x44
10008548:	1ac0      	subs	r0, r0, r3
1000854a:	892b      	ldrh	r3, [r5, #8]
1000854c:	18c0      	adds	r0, r0, r3
1000854e:	4540      	cmp	r0, r8
10008550:	d900      	bls.n	10008554 <tcp_output+0x26c>
10008552:	e0c6      	b.n	100086e2 <tcp_output+0x3fa>
10008554:	68eb      	ldr	r3, [r5, #12]
10008556:	7b58      	ldrb	r0, [r3, #13]
10008558:	7b1a      	ldrb	r2, [r3, #12]
1000855a:	0200      	lsls	r0, r0, #8
1000855c:	4310      	orrs	r0, r2
1000855e:	f7fe fe5b 	bl	10007218 <lwip_htons>
10008562:	6f23      	ldr	r3, [r4, #112]	; 0x70
10008564:	2b00      	cmp	r3, #0
10008566:	d00a      	beq.n	1000857e <tcp_output+0x296>
10008568:	2144      	movs	r1, #68	; 0x44
1000856a:	8b63      	ldrh	r3, [r4, #26]
1000856c:	001a      	movs	r2, r3
1000856e:	4219      	tst	r1, r3
10008570:	d105      	bne.n	1000857e <tcp_output+0x296>
10008572:	6ee1      	ldr	r1, [r4, #108]	; 0x6c
10008574:	2900      	cmp	r1, #0
10008576:	d061      	beq.n	1000863c <tcp_output+0x354>
10008578:	6808      	ldr	r0, [r1, #0]
1000857a:	2800      	cmp	r0, #0
1000857c:	d05a      	beq.n	10008634 <tcp_output+0x34c>
1000857e:	7d23      	ldrb	r3, [r4, #20]
10008580:	2b02      	cmp	r3, #2
10008582:	d100      	bne.n	10008586 <tcp_output+0x29e>
10008584:	e718      	b.n	100083b8 <tcp_output+0xd0>
10008586:	68eb      	ldr	r3, [r5, #12]
10008588:	2010      	movs	r0, #16
1000858a:	7b1a      	ldrb	r2, [r3, #12]
1000858c:	7b5b      	ldrb	r3, [r3, #13]
1000858e:	021b      	lsls	r3, r3, #8
10008590:	4313      	orrs	r3, r2
10008592:	469b      	mov	fp, r3
10008594:	f7fe fe40 	bl	10007218 <lwip_htons>
10008598:	465b      	mov	r3, fp
1000859a:	4318      	orrs	r0, r3
1000859c:	68ee      	ldr	r6, [r5, #12]
1000859e:	b283      	uxth	r3, r0
100085a0:	0a1b      	lsrs	r3, r3, #8
100085a2:	7330      	strb	r0, [r6, #12]
100085a4:	7373      	strb	r3, [r6, #13]
100085a6:	e708      	b.n	100083ba <tcp_output+0xd2>
100085a8:	0020      	movs	r0, r4
100085aa:	f7ff fe33 	bl	10008214 <tcp_send_empty_ack>
100085ae:	e6e8      	b.n	10008382 <tcp_output+0x9a>
100085b0:	6f23      	ldr	r3, [r4, #112]	; 0x70
100085b2:	2b00      	cmp	r3, #0
100085b4:	d000      	beq.n	100085b8 <tcp_output+0x2d0>
100085b6:	e6dc      	b.n	10008372 <tcp_output+0x8a>
100085b8:	33a1      	adds	r3, #161	; 0xa1
100085ba:	5ce3      	ldrb	r3, [r4, r3]
100085bc:	2b00      	cmp	r3, #0
100085be:	d000      	beq.n	100085c2 <tcp_output+0x2da>
100085c0:	e6d7      	b.n	10008372 <tcp_output+0x8a>
100085c2:	2180      	movs	r1, #128	; 0x80
100085c4:	22a0      	movs	r2, #160	; 0xa0
100085c6:	0049      	lsls	r1, r1, #1
100085c8:	52a1      	strh	r1, [r4, r2]
100085ca:	3202      	adds	r2, #2
100085cc:	54a3      	strb	r3, [r4, r2]
100085ce:	e6d0      	b.n	10008372 <tcp_output+0x8a>
100085d0:	2300      	movs	r3, #0
100085d2:	4698      	mov	r8, r3
100085d4:	e6e8      	b.n	100083a8 <tcp_output+0xc0>
100085d6:	0028      	movs	r0, r5
100085d8:	f7ff fbf6 	bl	10007dc8 <tcp_seg_free>
100085dc:	e7a2      	b.n	10008524 <tcp_output+0x23c>
100085de:	002f      	movs	r7, r5
100085e0:	6725      	str	r5, [r4, #112]	; 0x70
100085e2:	e79f      	b.n	10008524 <tcp_output+0x23c>
100085e4:	9b05      	ldr	r3, [sp, #20]
100085e6:	681b      	ldr	r3, [r3, #0]
100085e8:	6363      	str	r3, [r4, #52]	; 0x34
100085ea:	7972      	ldrb	r2, [r6, #5]
100085ec:	7933      	ldrb	r3, [r6, #4]
100085ee:	0212      	lsls	r2, r2, #8
100085f0:	431a      	orrs	r2, r3
100085f2:	79b3      	ldrb	r3, [r6, #6]
100085f4:	79f0      	ldrb	r0, [r6, #7]
100085f6:	041b      	lsls	r3, r3, #16
100085f8:	4313      	orrs	r3, r2
100085fa:	0600      	lsls	r0, r0, #24
100085fc:	4318      	orrs	r0, r3
100085fe:	f7fe fe0f 	bl	10007220 <lwip_htonl>
10008602:	68ee      	ldr	r6, [r5, #12]
10008604:	63a0      	str	r0, [r4, #56]	; 0x38
10008606:	e702      	b.n	1000840e <tcp_output+0x126>
10008608:	464a      	mov	r2, r9
1000860a:	4651      	mov	r1, sl
1000860c:	4808      	ldr	r0, [pc, #32]	; (10008630 <tcp_output+0x348>)
1000860e:	f7ff fce7 	bl	10007fe0 <tcp_eff_send_mss_netif>
10008612:	2381      	movs	r3, #129	; 0x81
10008614:	049b      	lsls	r3, r3, #18
10008616:	4318      	orrs	r0, r3
10008618:	f7fe fe02 	bl	10007220 <lwip_htonl>
1000861c:	6170      	str	r0, [r6, #20]
1000861e:	68ee      	ldr	r6, [r5, #12]
10008620:	e6eb      	b.n	100083fa <tcp_output+0x112>
10008622:	46c0      	nop			; (mov r8, r8)
10008624:	2000add8 	.word	0x2000add8
10008628:	200012f8 	.word	0x200012f8
1000862c:	2000ade0 	.word	0x2000ade0
10008630:	000005b4 	.word	0x000005b4
10008634:	890e      	ldrh	r6, [r1, #8]
10008636:	8e60      	ldrh	r0, [r4, #50]	; 0x32
10008638:	4286      	cmp	r6, r0
1000863a:	d2a0      	bcs.n	1000857e <tcp_output+0x296>
1000863c:	2064      	movs	r0, #100	; 0x64
1000863e:	5a20      	ldrh	r0, [r4, r0]
10008640:	2800      	cmp	r0, #0
10008642:	d09c      	beq.n	1000857e <tcp_output+0x296>
10008644:	2066      	movs	r0, #102	; 0x66
10008646:	5a20      	ldrh	r0, [r4, r0]
10008648:	281f      	cmp	r0, #31
1000864a:	d898      	bhi.n	1000857e <tcp_output+0x296>
1000864c:	20a0      	movs	r0, #160	; 0xa0
1000864e:	4218      	tst	r0, r3
10008650:	d195      	bne.n	1000857e <tcp_output+0x296>
10008652:	2900      	cmp	r1, #0
10008654:	d000      	beq.n	10008658 <tcp_output+0x370>
10008656:	e690      	b.n	1000837a <tcp_output+0x92>
10008658:	e03e      	b.n	100086d8 <tcp_output+0x3f0>
1000865a:	2370      	movs	r3, #112	; 0x70
1000865c:	469b      	mov	fp, r3
1000865e:	6f23      	ldr	r3, [r4, #112]	; 0x70
10008660:	44a3      	add	fp, r4
10008662:	2b00      	cmp	r3, #0
10008664:	d029      	beq.n	100086ba <tcp_output+0x3d2>
10008666:	0022      	movs	r2, r4
10008668:	465c      	mov	r4, fp
1000866a:	4693      	mov	fp, r2
1000866c:	e003      	b.n	10008676 <tcp_output+0x38e>
1000866e:	6824      	ldr	r4, [r4, #0]
10008670:	6823      	ldr	r3, [r4, #0]
10008672:	2b00      	cmp	r3, #0
10008674:	d02b      	beq.n	100086ce <tcp_output+0x3e6>
10008676:	68d9      	ldr	r1, [r3, #12]
10008678:	794a      	ldrb	r2, [r1, #5]
1000867a:	790b      	ldrb	r3, [r1, #4]
1000867c:	0212      	lsls	r2, r2, #8
1000867e:	431a      	orrs	r2, r3
10008680:	798b      	ldrb	r3, [r1, #6]
10008682:	79c8      	ldrb	r0, [r1, #7]
10008684:	041b      	lsls	r3, r3, #16
10008686:	4313      	orrs	r3, r2
10008688:	0600      	lsls	r0, r0, #24
1000868a:	4318      	orrs	r0, r3
1000868c:	f7fe fdc8 	bl	10007220 <lwip_htonl>
10008690:	68e9      	ldr	r1, [r5, #12]
10008692:	0006      	movs	r6, r0
10008694:	794a      	ldrb	r2, [r1, #5]
10008696:	790b      	ldrb	r3, [r1, #4]
10008698:	0212      	lsls	r2, r2, #8
1000869a:	431a      	orrs	r2, r3
1000869c:	798b      	ldrb	r3, [r1, #6]
1000869e:	79c8      	ldrb	r0, [r1, #7]
100086a0:	041b      	lsls	r3, r3, #16
100086a2:	4313      	orrs	r3, r2
100086a4:	0600      	lsls	r0, r0, #24
100086a6:	4318      	orrs	r0, r3
100086a8:	f7fe fdba 	bl	10007220 <lwip_htonl>
100086ac:	1a36      	subs	r6, r6, r0
100086ae:	d4de      	bmi.n	1000866e <tcp_output+0x386>
100086b0:	465b      	mov	r3, fp
100086b2:	46a3      	mov	fp, r4
100086b4:	001c      	movs	r4, r3
100086b6:	465b      	mov	r3, fp
100086b8:	681b      	ldr	r3, [r3, #0]
100086ba:	602b      	str	r3, [r5, #0]
100086bc:	465b      	mov	r3, fp
100086be:	601d      	str	r5, [r3, #0]
100086c0:	e730      	b.n	10008524 <tcp_output+0x23c>
100086c2:	2000      	movs	r0, #0
100086c4:	e65d      	b.n	10008382 <tcp_output+0x9a>
100086c6:	f7ff f8f7 	bl	100078b8 <netif_get_by_index>
100086ca:	4682      	mov	sl, r0
100086cc:	e62a      	b.n	10008324 <tcp_output+0x3c>
100086ce:	465a      	mov	r2, fp
100086d0:	46a3      	mov	fp, r4
100086d2:	0014      	movs	r4, r2
100086d4:	e7f1      	b.n	100086ba <tcp_output+0x3d2>
100086d6:	8b63      	ldrh	r3, [r4, #26]
100086d8:	2268      	movs	r2, #104	; 0x68
100086da:	2100      	movs	r1, #0
100086dc:	52a1      	strh	r1, [r4, r2]
100086de:	001a      	movs	r2, r3
100086e0:	e64b      	b.n	1000837a <tcp_output+0x92>
100086e2:	8b63      	ldrh	r3, [r4, #26]
100086e4:	6ee1      	ldr	r1, [r4, #108]	; 0x6c
100086e6:	001a      	movs	r2, r3
100086e8:	e7b3      	b.n	10008652 <tcp_output+0x36a>
100086ea:	2280      	movs	r2, #128	; 0x80
100086ec:	8b63      	ldrh	r3, [r4, #26]
100086ee:	4313      	orrs	r3, r2
100086f0:	8363      	strh	r3, [r4, #26]
100086f2:	e646      	b.n	10008382 <tcp_output+0x9a>
100086f4:	2004      	movs	r0, #4
100086f6:	4240      	negs	r0, r0
100086f8:	e643      	b.n	10008382 <tcp_output+0x9a>
100086fa:	46c0      	nop			; (mov r8, r8)

100086fc <udp_bind>:
100086fc:	b5f0      	push	{r4, r5, r6, r7, lr}
100086fe:	46ce      	mov	lr, r9
10008700:	4647      	mov	r7, r8
10008702:	0004      	movs	r4, r0
10008704:	b580      	push	{r7, lr}
10008706:	2900      	cmp	r1, #0
10008708:	d066      	beq.n	100087d8 <udp_bind+0xdc>
1000870a:	2c00      	cmp	r4, #0
1000870c:	d100      	bne.n	10008710 <udp_bind+0x14>
1000870e:	e06f      	b.n	100087f0 <udp_bind+0xf4>
10008710:	4e39      	ldr	r6, [pc, #228]	; (100087f8 <udp_bind+0xfc>)
10008712:	6835      	ldr	r5, [r6, #0]
10008714:	2d00      	cmp	r5, #0
10008716:	d064      	beq.n	100087e2 <udp_bind+0xe6>
10008718:	42ac      	cmp	r4, r5
1000871a:	d039      	beq.n	10008790 <udp_bind+0x94>
1000871c:	002b      	movs	r3, r5
1000871e:	e001      	b.n	10008724 <udp_bind+0x28>
10008720:	429c      	cmp	r4, r3
10008722:	d035      	beq.n	10008790 <udp_bind+0x94>
10008724:	68db      	ldr	r3, [r3, #12]
10008726:	2b00      	cmp	r3, #0
10008728:	d1fa      	bne.n	10008720 <udp_bind+0x24>
1000872a:	2700      	movs	r7, #0
1000872c:	2a00      	cmp	r2, #0
1000872e:	d032      	beq.n	10008796 <udp_bind+0x9a>
10008730:	6808      	ldr	r0, [r1, #0]
10008732:	002b      	movs	r3, r5
10008734:	2800      	cmp	r0, #0
10008736:	d103      	bne.n	10008740 <udp_bind+0x44>
10008738:	e015      	b.n	10008766 <udp_bind+0x6a>
1000873a:	68db      	ldr	r3, [r3, #12]
1000873c:	2b00      	cmp	r3, #0
1000873e:	d01e      	beq.n	1000877e <udp_bind+0x82>
10008740:	429c      	cmp	r4, r3
10008742:	d0fa      	beq.n	1000873a <udp_bind+0x3e>
10008744:	8a59      	ldrh	r1, [r3, #18]
10008746:	4291      	cmp	r1, r2
10008748:	d1f7      	bne.n	1000873a <udp_bind+0x3e>
1000874a:	6819      	ldr	r1, [r3, #0]
1000874c:	4281      	cmp	r1, r0
1000874e:	d001      	beq.n	10008754 <udp_bind+0x58>
10008750:	2900      	cmp	r1, #0
10008752:	d1f2      	bne.n	1000873a <udp_bind+0x3e>
10008754:	2008      	movs	r0, #8
10008756:	4240      	negs	r0, r0
10008758:	bcc0      	pop	{r6, r7}
1000875a:	46b9      	mov	r9, r7
1000875c:	46b0      	mov	r8, r6
1000875e:	bdf0      	pop	{r4, r5, r6, r7, pc}
10008760:	68db      	ldr	r3, [r3, #12]
10008762:	2b00      	cmp	r3, #0
10008764:	d00b      	beq.n	1000877e <udp_bind+0x82>
10008766:	429c      	cmp	r4, r3
10008768:	d0fa      	beq.n	10008760 <udp_bind+0x64>
1000876a:	8a59      	ldrh	r1, [r3, #18]
1000876c:	4291      	cmp	r1, r2
1000876e:	d0f1      	beq.n	10008754 <udp_bind+0x58>
10008770:	68db      	ldr	r3, [r3, #12]
10008772:	2b00      	cmp	r3, #0
10008774:	d1f7      	bne.n	10008766 <udp_bind+0x6a>
10008776:	e002      	b.n	1000877e <udp_bind+0x82>
10008778:	4643      	mov	r3, r8
1000877a:	6808      	ldr	r0, [r1, #0]
1000877c:	801a      	strh	r2, [r3, #0]
1000877e:	6020      	str	r0, [r4, #0]
10008780:	8262      	strh	r2, [r4, #18]
10008782:	2000      	movs	r0, #0
10008784:	2f00      	cmp	r7, #0
10008786:	d1e7      	bne.n	10008758 <udp_bind+0x5c>
10008788:	2000      	movs	r0, #0
1000878a:	60e5      	str	r5, [r4, #12]
1000878c:	6034      	str	r4, [r6, #0]
1000878e:	e7e3      	b.n	10008758 <udp_bind+0x5c>
10008790:	2701      	movs	r7, #1
10008792:	2a00      	cmp	r2, #0
10008794:	d1cc      	bne.n	10008730 <udp_bind+0x34>
10008796:	4b19      	ldr	r3, [pc, #100]	; (100087fc <udp_bind+0x100>)
10008798:	4698      	mov	r8, r3
1000879a:	881a      	ldrh	r2, [r3, #0]
1000879c:	2380      	movs	r3, #128	; 0x80
1000879e:	01db      	lsls	r3, r3, #7
100087a0:	469c      	mov	ip, r3
100087a2:	4b17      	ldr	r3, [pc, #92]	; (10008800 <udp_bind+0x104>)
100087a4:	4699      	mov	r9, r3
100087a6:	454a      	cmp	r2, r9
100087a8:	d018      	beq.n	100087dc <udp_bind+0xe0>
100087aa:	3201      	adds	r2, #1
100087ac:	b292      	uxth	r2, r2
100087ae:	2d00      	cmp	r5, #0
100087b0:	d0e2      	beq.n	10008778 <udp_bind+0x7c>
100087b2:	002b      	movs	r3, r5
100087b4:	e002      	b.n	100087bc <udp_bind+0xc0>
100087b6:	68db      	ldr	r3, [r3, #12]
100087b8:	2b00      	cmp	r3, #0
100087ba:	d0dd      	beq.n	10008778 <udp_bind+0x7c>
100087bc:	8a58      	ldrh	r0, [r3, #18]
100087be:	4290      	cmp	r0, r2
100087c0:	d1f9      	bne.n	100087b6 <udp_bind+0xba>
100087c2:	4663      	mov	r3, ip
100087c4:	3b01      	subs	r3, #1
100087c6:	b29b      	uxth	r3, r3
100087c8:	469c      	mov	ip, r3
100087ca:	2b00      	cmp	r3, #0
100087cc:	d1eb      	bne.n	100087a6 <udp_bind+0xaa>
100087ce:	4643      	mov	r3, r8
100087d0:	2008      	movs	r0, #8
100087d2:	801a      	strh	r2, [r3, #0]
100087d4:	4240      	negs	r0, r0
100087d6:	e7bf      	b.n	10008758 <udp_bind+0x5c>
100087d8:	490a      	ldr	r1, [pc, #40]	; (10008804 <udp_bind+0x108>)
100087da:	e796      	b.n	1000870a <udp_bind+0xe>
100087dc:	22c0      	movs	r2, #192	; 0xc0
100087de:	0212      	lsls	r2, r2, #8
100087e0:	e7e5      	b.n	100087ae <udp_bind+0xb2>
100087e2:	2700      	movs	r7, #0
100087e4:	2a00      	cmp	r2, #0
100087e6:	d0d6      	beq.n	10008796 <udp_bind+0x9a>
100087e8:	680b      	ldr	r3, [r1, #0]
100087ea:	8262      	strh	r2, [r4, #18]
100087ec:	6023      	str	r3, [r4, #0]
100087ee:	e7cb      	b.n	10008788 <udp_bind+0x8c>
100087f0:	2010      	movs	r0, #16
100087f2:	4240      	negs	r0, r0
100087f4:	e7b0      	b.n	10008758 <udp_bind+0x5c>
100087f6:	46c0      	nop			; (mov r8, r8)
100087f8:	2000adf0 	.word	0x2000adf0
100087fc:	20000494 	.word	0x20000494
10008800:	0000ffff 	.word	0x0000ffff
10008804:	1000a60c 	.word	0x1000a60c

10008808 <udp_sendto_if_src>:
10008808:	b5f0      	push	{r4, r5, r6, r7, lr}
1000880a:	46ce      	mov	lr, r9
1000880c:	4647      	mov	r7, r8
1000880e:	b580      	push	{r7, lr}
10008810:	0004      	movs	r4, r0
10008812:	000e      	movs	r6, r1
10008814:	4690      	mov	r8, r2
10008816:	4699      	mov	r9, r3
10008818:	b085      	sub	sp, #20
1000881a:	2800      	cmp	r0, #0
1000881c:	d100      	bne.n	10008820 <udp_sendto_if_src+0x18>
1000881e:	e076      	b.n	1000890e <udp_sendto_if_src+0x106>
10008820:	2900      	cmp	r1, #0
10008822:	d100      	bne.n	10008826 <udp_sendto_if_src+0x1e>
10008824:	e073      	b.n	1000890e <udp_sendto_if_src+0x106>
10008826:	2a00      	cmp	r2, #0
10008828:	d100      	bne.n	1000882c <udp_sendto_if_src+0x24>
1000882a:	e070      	b.n	1000890e <udp_sendto_if_src+0x106>
1000882c:	9b0d      	ldr	r3, [sp, #52]	; 0x34
1000882e:	2b00      	cmp	r3, #0
10008830:	d100      	bne.n	10008834 <udp_sendto_if_src+0x2c>
10008832:	e06c      	b.n	1000890e <udp_sendto_if_src+0x106>
10008834:	9b0c      	ldr	r3, [sp, #48]	; 0x30
10008836:	2b00      	cmp	r3, #0
10008838:	d100      	bne.n	1000883c <udp_sendto_if_src+0x34>
1000883a:	e068      	b.n	1000890e <udp_sendto_if_src+0x106>
1000883c:	8a43      	ldrh	r3, [r0, #18]
1000883e:	2b00      	cmp	r3, #0
10008840:	d04f      	beq.n	100088e2 <udp_sendto_if_src+0xda>
10008842:	8932      	ldrh	r2, [r6, #8]
10008844:	4b35      	ldr	r3, [pc, #212]	; (1000891c <udp_sendto_if_src+0x114>)
10008846:	429a      	cmp	r2, r3
10008848:	d864      	bhi.n	10008914 <udp_sendto_if_src+0x10c>
1000884a:	2108      	movs	r1, #8
1000884c:	0030      	movs	r0, r6
1000884e:	f7ff f961 	bl	10007b14 <pbuf_add_header>
10008852:	2800      	cmp	r0, #0
10008854:	d136      	bne.n	100088c4 <udp_sendto_if_src+0xbc>
10008856:	0037      	movs	r7, r6
10008858:	8a60      	ldrh	r0, [r4, #18]
1000885a:	687d      	ldr	r5, [r7, #4]
1000885c:	f7fe fcdc 	bl	10007218 <lwip_htons>
10008860:	7028      	strb	r0, [r5, #0]
10008862:	0a00      	lsrs	r0, r0, #8
10008864:	7068      	strb	r0, [r5, #1]
10008866:	4648      	mov	r0, r9
10008868:	f7fe fcd6 	bl	10007218 <lwip_htons>
1000886c:	2300      	movs	r3, #0
1000886e:	70a8      	strb	r0, [r5, #2]
10008870:	0a00      	lsrs	r0, r0, #8
10008872:	71ab      	strb	r3, [r5, #6]
10008874:	71eb      	strb	r3, [r5, #7]
10008876:	70e8      	strb	r0, [r5, #3]
10008878:	8938      	ldrh	r0, [r7, #8]
1000887a:	f7fe fccd 	bl	10007218 <lwip_htons>
1000887e:	7128      	strb	r0, [r5, #4]
10008880:	0a00      	lsrs	r0, r0, #8
10008882:	7168      	strb	r0, [r5, #5]
10008884:	7c23      	ldrb	r3, [r4, #16]
10008886:	07db      	lsls	r3, r3, #31
10008888:	d532      	bpl.n	100088f0 <udp_sendto_if_src+0xe8>
1000888a:	9a0c      	ldr	r2, [sp, #48]	; 0x30
1000888c:	0038      	movs	r0, r7
1000888e:	9202      	str	r2, [sp, #8]
10008890:	2211      	movs	r2, #17
10008892:	9201      	str	r2, [sp, #4]
10008894:	7aa2      	ldrb	r2, [r4, #10]
10008896:	7ae3      	ldrb	r3, [r4, #11]
10008898:	9200      	str	r2, [sp, #0]
1000889a:	990d      	ldr	r1, [sp, #52]	; 0x34
1000889c:	4642      	mov	r2, r8
1000889e:	f000 fe85 	bl	100095ac <ip4_output_if_src>
100088a2:	0005      	movs	r5, r0
100088a4:	42b7      	cmp	r7, r6
100088a6:	d002      	beq.n	100088ae <udp_sendto_if_src+0xa6>
100088a8:	0038      	movs	r0, r7
100088aa:	f7ff f959 	bl	10007b60 <pbuf_free>
100088ae:	2160      	movs	r1, #96	; 0x60
100088b0:	4b1b      	ldr	r3, [pc, #108]	; (10008920 <udp_sendto_if_src+0x118>)
100088b2:	5a5a      	ldrh	r2, [r3, r1]
100088b4:	3201      	adds	r2, #1
100088b6:	525a      	strh	r2, [r3, r1]
100088b8:	0028      	movs	r0, r5
100088ba:	b005      	add	sp, #20
100088bc:	bcc0      	pop	{r6, r7}
100088be:	46b9      	mov	r9, r7
100088c0:	46b0      	mov	r8, r6
100088c2:	bdf0      	pop	{r4, r5, r6, r7, pc}
100088c4:	22a0      	movs	r2, #160	; 0xa0
100088c6:	2108      	movs	r1, #8
100088c8:	2022      	movs	r0, #34	; 0x22
100088ca:	0092      	lsls	r2, r2, #2
100088cc:	f7ff f80a 	bl	100078e4 <pbuf_alloc>
100088d0:	1e07      	subs	r7, r0, #0
100088d2:	d01f      	beq.n	10008914 <udp_sendto_if_src+0x10c>
100088d4:	8933      	ldrh	r3, [r6, #8]
100088d6:	2b00      	cmp	r3, #0
100088d8:	d0be      	beq.n	10008858 <udp_sendto_if_src+0x50>
100088da:	0031      	movs	r1, r6
100088dc:	f7ff f972 	bl	10007bc4 <pbuf_chain>
100088e0:	e7ba      	b.n	10008858 <udp_sendto_if_src+0x50>
100088e2:	2200      	movs	r2, #0
100088e4:	0001      	movs	r1, r0
100088e6:	f7ff ff09 	bl	100086fc <udp_bind>
100088ea:	1e05      	subs	r5, r0, #0
100088ec:	d0a9      	beq.n	10008842 <udp_sendto_if_src+0x3a>
100088ee:	e7e3      	b.n	100088b8 <udp_sendto_if_src+0xb0>
100088f0:	4643      	mov	r3, r8
100088f2:	893a      	ldrh	r2, [r7, #8]
100088f4:	2111      	movs	r1, #17
100088f6:	9300      	str	r3, [sp, #0]
100088f8:	0038      	movs	r0, r7
100088fa:	9b0d      	ldr	r3, [sp, #52]	; 0x34
100088fc:	f7fe fd5c 	bl	100073b8 <ip_chksum_pseudo>
10008900:	2800      	cmp	r0, #0
10008902:	d100      	bne.n	10008906 <udp_sendto_if_src+0xfe>
10008904:	4807      	ldr	r0, [pc, #28]	; (10008924 <udp_sendto_if_src+0x11c>)
10008906:	71a8      	strb	r0, [r5, #6]
10008908:	0a00      	lsrs	r0, r0, #8
1000890a:	71e8      	strb	r0, [r5, #7]
1000890c:	e7bd      	b.n	1000888a <udp_sendto_if_src+0x82>
1000890e:	2510      	movs	r5, #16
10008910:	426d      	negs	r5, r5
10008912:	e7d1      	b.n	100088b8 <udp_sendto_if_src+0xb0>
10008914:	2501      	movs	r5, #1
10008916:	426d      	negs	r5, r5
10008918:	e7ce      	b.n	100088b8 <udp_sendto_if_src+0xb0>
1000891a:	46c0      	nop			; (mov r8, r8)
1000891c:	0000fff7 	.word	0x0000fff7
10008920:	200012f8 	.word	0x200012f8
10008924:	0000ffff 	.word	0x0000ffff

10008928 <udp_sendto_if>:
10008928:	b570      	push	{r4, r5, r6, lr}
1000892a:	b082      	sub	sp, #8
1000892c:	9d06      	ldr	r5, [sp, #24]
1000892e:	2800      	cmp	r0, #0
10008930:	d018      	beq.n	10008964 <udp_sendto_if+0x3c>
10008932:	2900      	cmp	r1, #0
10008934:	d016      	beq.n	10008964 <udp_sendto_if+0x3c>
10008936:	2a00      	cmp	r2, #0
10008938:	d014      	beq.n	10008964 <udp_sendto_if+0x3c>
1000893a:	2d00      	cmp	r5, #0
1000893c:	d012      	beq.n	10008964 <udp_sendto_if+0x3c>
1000893e:	6804      	ldr	r4, [r0, #0]
10008940:	2c00      	cmp	r4, #0
10008942:	d106      	bne.n	10008952 <udp_sendto_if+0x2a>
10008944:	1d2c      	adds	r4, r5, #4
10008946:	9401      	str	r4, [sp, #4]
10008948:	9500      	str	r5, [sp, #0]
1000894a:	f7ff ff5d 	bl	10008808 <udp_sendto_if_src>
1000894e:	b002      	add	sp, #8
10008950:	bd70      	pop	{r4, r5, r6, pc}
10008952:	26f0      	movs	r6, #240	; 0xf0
10008954:	4026      	ands	r6, r4
10008956:	2ee0      	cmp	r6, #224	; 0xe0
10008958:	d0f4      	beq.n	10008944 <udp_sendto_if+0x1c>
1000895a:	686e      	ldr	r6, [r5, #4]
1000895c:	42b4      	cmp	r4, r6
1000895e:	d104      	bne.n	1000896a <udp_sendto_if+0x42>
10008960:	0004      	movs	r4, r0
10008962:	e7f0      	b.n	10008946 <udp_sendto_if+0x1e>
10008964:	2010      	movs	r0, #16
10008966:	4240      	negs	r0, r0
10008968:	e7f1      	b.n	1000894e <udp_sendto_if+0x26>
1000896a:	2004      	movs	r0, #4
1000896c:	4240      	negs	r0, r0
1000896e:	e7ee      	b.n	1000894e <udp_sendto_if+0x26>

10008970 <udp_remove>:
10008970:	0001      	movs	r1, r0
10008972:	b510      	push	{r4, lr}
10008974:	2800      	cmp	r0, #0
10008976:	d00f      	beq.n	10008998 <udp_remove+0x28>
10008978:	4b0b      	ldr	r3, [pc, #44]	; (100089a8 <udp_remove+0x38>)
1000897a:	681a      	ldr	r2, [r3, #0]
1000897c:	4282      	cmp	r2, r0
1000897e:	d103      	bne.n	10008988 <udp_remove+0x18>
10008980:	e00b      	b.n	1000899a <udp_remove+0x2a>
10008982:	428b      	cmp	r3, r1
10008984:	d00c      	beq.n	100089a0 <udp_remove+0x30>
10008986:	001a      	movs	r2, r3
10008988:	2a00      	cmp	r2, #0
1000898a:	d002      	beq.n	10008992 <udp_remove+0x22>
1000898c:	68d3      	ldr	r3, [r2, #12]
1000898e:	2b00      	cmp	r3, #0
10008990:	d1f7      	bne.n	10008982 <udp_remove+0x12>
10008992:	2001      	movs	r0, #1
10008994:	f7fe fe9a 	bl	100076cc <memp_free>
10008998:	bd10      	pop	{r4, pc}
1000899a:	68c2      	ldr	r2, [r0, #12]
1000899c:	601a      	str	r2, [r3, #0]
1000899e:	e7f8      	b.n	10008992 <udp_remove+0x22>
100089a0:	68cb      	ldr	r3, [r1, #12]
100089a2:	60d3      	str	r3, [r2, #12]
100089a4:	e7f5      	b.n	10008992 <udp_remove+0x22>
100089a6:	46c0      	nop			; (mov r8, r8)
100089a8:	2000adf0 	.word	0x2000adf0

100089ac <udp_netif_ip_addr_changed>:
100089ac:	b510      	push	{r4, lr}
100089ae:	2800      	cmp	r0, #0
100089b0:	d011      	beq.n	100089d6 <udp_netif_ip_addr_changed+0x2a>
100089b2:	6802      	ldr	r2, [r0, #0]
100089b4:	2a00      	cmp	r2, #0
100089b6:	d00e      	beq.n	100089d6 <udp_netif_ip_addr_changed+0x2a>
100089b8:	2900      	cmp	r1, #0
100089ba:	d00c      	beq.n	100089d6 <udp_netif_ip_addr_changed+0x2a>
100089bc:	680b      	ldr	r3, [r1, #0]
100089be:	2b00      	cmp	r3, #0
100089c0:	d009      	beq.n	100089d6 <udp_netif_ip_addr_changed+0x2a>
100089c2:	4b09      	ldr	r3, [pc, #36]	; (100089e8 <udp_netif_ip_addr_changed+0x3c>)
100089c4:	681b      	ldr	r3, [r3, #0]
100089c6:	2b00      	cmp	r3, #0
100089c8:	d005      	beq.n	100089d6 <udp_netif_ip_addr_changed+0x2a>
100089ca:	681c      	ldr	r4, [r3, #0]
100089cc:	4294      	cmp	r4, r2
100089ce:	d003      	beq.n	100089d8 <udp_netif_ip_addr_changed+0x2c>
100089d0:	68db      	ldr	r3, [r3, #12]
100089d2:	2b00      	cmp	r3, #0
100089d4:	d1f9      	bne.n	100089ca <udp_netif_ip_addr_changed+0x1e>
100089d6:	bd10      	pop	{r4, pc}
100089d8:	680a      	ldr	r2, [r1, #0]
100089da:	601a      	str	r2, [r3, #0]
100089dc:	68db      	ldr	r3, [r3, #12]
100089de:	2b00      	cmp	r3, #0
100089e0:	d0f9      	beq.n	100089d6 <udp_netif_ip_addr_changed+0x2a>
100089e2:	6802      	ldr	r2, [r0, #0]
100089e4:	e7f1      	b.n	100089ca <udp_netif_ip_addr_changed+0x1e>
100089e6:	46c0      	nop			; (mov r8, r8)
100089e8:	2000adf0 	.word	0x2000adf0

100089ec <pico_lwip_rand>:
100089ec:	2304      	movs	r3, #4
100089ee:	b5f0      	push	{r4, r5, r6, r7, lr}
100089f0:	46c6      	mov	lr, r8
100089f2:	469c      	mov	ip, r3
100089f4:	2000      	movs	r0, #0
100089f6:	2735      	movs	r7, #53	; 0x35
100089f8:	251e      	movs	r5, #30
100089fa:	b500      	push	{lr}
100089fc:	4c11      	ldr	r4, [pc, #68]	; (10008a44 <pico_lwip_rand+0x58>)
100089fe:	4e12      	ldr	r6, [pc, #72]	; (10008a48 <pico_lwip_rand+0x5c>)
10008a00:	7822      	ldrb	r2, [r4, #0]
10008a02:	0203      	lsls	r3, r0, #8
10008a04:	4698      	mov	r8, r3
10008a06:	2120      	movs	r1, #32
10008a08:	69f0      	ldr	r0, [r6, #28]
10008a0a:	0053      	lsls	r3, r2, #1
10008a0c:	4303      	orrs	r3, r0
10008a0e:	b252      	sxtb	r2, r2
10008a10:	b2db      	uxtb	r3, r3
10008a12:	2a00      	cmp	r2, #0
10008a14:	da01      	bge.n	10008a1a <pico_lwip_rand+0x2e>
10008a16:	407b      	eors	r3, r7
10008a18:	b2db      	uxtb	r3, r3
10008a1a:	7023      	strb	r3, [r4, #0]
10008a1c:	002b      	movs	r3, r5
10008a1e:	3b03      	subs	r3, #3
10008a20:	d2fd      	bcs.n	10008a1e <pico_lwip_rand+0x32>
10008a22:	3901      	subs	r1, #1
10008a24:	7822      	ldrb	r2, [r4, #0]
10008a26:	2900      	cmp	r1, #0
10008a28:	d1ee      	bne.n	10008a08 <pico_lwip_rand+0x1c>
10008a2a:	2301      	movs	r3, #1
10008a2c:	425b      	negs	r3, r3
10008a2e:	4640      	mov	r0, r8
10008a30:	4698      	mov	r8, r3
10008a32:	44c4      	add	ip, r8
10008a34:	4663      	mov	r3, ip
10008a36:	4310      	orrs	r0, r2
10008a38:	2b00      	cmp	r3, #0
10008a3a:	d1e2      	bne.n	10008a02 <pico_lwip_rand+0x16>
10008a3c:	bc80      	pop	{r7}
10008a3e:	46b8      	mov	r8, r7
10008a40:	bdf0      	pop	{r4, r5, r6, r7, pc}
10008a42:	46c0      	nop			; (mov r8, r8)
10008a44:	2000adff 	.word	0x2000adff
10008a48:	40060000 	.word	0x40060000

10008a4c <dhcp_create_msg>:
10008a4c:	b5f0      	push	{r4, r5, r6, r7, lr}
10008a4e:	464f      	mov	r7, r9
10008a50:	4646      	mov	r6, r8
10008a52:	46d6      	mov	lr, sl
10008a54:	0005      	movs	r5, r0
10008a56:	b5c0      	push	{r6, r7, lr}
10008a58:	4699      	mov	r9, r3
10008a5a:	000e      	movs	r6, r1
10008a5c:	0017      	movs	r7, r2
10008a5e:	2800      	cmp	r0, #0
10008a60:	d100      	bne.n	10008a64 <dhcp_create_msg+0x18>
10008a62:	e091      	b.n	10008b88 <dhcp_create_msg+0x13c>
10008a64:	2900      	cmp	r1, #0
10008a66:	d100      	bne.n	10008a6a <dhcp_create_msg+0x1e>
10008a68:	e08e      	b.n	10008b88 <dhcp_create_msg+0x13c>
10008a6a:	22a0      	movs	r2, #160	; 0xa0
10008a6c:	219a      	movs	r1, #154	; 0x9a
10008a6e:	2036      	movs	r0, #54	; 0x36
10008a70:	0092      	lsls	r2, r2, #2
10008a72:	0049      	lsls	r1, r1, #1
10008a74:	f7fe ff36 	bl	100078e4 <pbuf_alloc>
10008a78:	4680      	mov	r8, r0
10008a7a:	2800      	cmp	r0, #0
10008a7c:	d100      	bne.n	10008a80 <dhcp_create_msg+0x34>
10008a7e:	e083      	b.n	10008b88 <dhcp_create_msg+0x13c>
10008a80:	2f03      	cmp	r7, #3
10008a82:	d058      	beq.n	10008b36 <dhcp_create_msg+0xea>
10008a84:	79b3      	ldrb	r3, [r6, #6]
10008a86:	2b00      	cmp	r3, #0
10008a88:	d100      	bne.n	10008a8c <dhcp_create_msg+0x40>
10008a8a:	e087      	b.n	10008b9c <dhcp_create_msg+0x150>
10008a8c:	4b46      	ldr	r3, [pc, #280]	; (10008ba8 <dhcp_create_msg+0x15c>)
10008a8e:	6818      	ldr	r0, [r3, #0]
10008a90:	4643      	mov	r3, r8
10008a92:	229a      	movs	r2, #154	; 0x9a
10008a94:	685c      	ldr	r4, [r3, #4]
10008a96:	2100      	movs	r1, #0
10008a98:	6030      	str	r0, [r6, #0]
10008a9a:	0052      	lsls	r2, r2, #1
10008a9c:	0020      	movs	r0, r4
10008a9e:	f7fd ffb3 	bl	10006a08 <__wrap_memset>
10008aa2:	2301      	movs	r3, #1
10008aa4:	7023      	strb	r3, [r4, #0]
10008aa6:	7063      	strb	r3, [r4, #1]
10008aa8:	469a      	mov	sl, r3
10008aaa:	3337      	adds	r3, #55	; 0x37
10008aac:	5ceb      	ldrb	r3, [r5, r3]
10008aae:	70a3      	strb	r3, [r4, #2]
10008ab0:	6830      	ldr	r0, [r6, #0]
10008ab2:	f7fe fbb5 	bl	10007220 <lwip_htonl>
10008ab6:	0a03      	lsrs	r3, r0, #8
10008ab8:	7163      	strb	r3, [r4, #5]
10008aba:	0203      	lsls	r3, r0, #8
10008abc:	7120      	strb	r0, [r4, #4]
10008abe:	0e1b      	lsrs	r3, r3, #24
10008ac0:	0e00      	lsrs	r0, r0, #24
10008ac2:	71a3      	strb	r3, [r4, #6]
10008ac4:	71e0      	strb	r0, [r4, #7]
10008ac6:	2f08      	cmp	r7, #8
10008ac8:	d055      	beq.n	10008b76 <dhcp_create_msg+0x12a>
10008aca:	2390      	movs	r3, #144	; 0x90
10008acc:	4652      	mov	r2, sl
10008ace:	40fb      	lsrs	r3, r7
10008ad0:	421a      	tst	r2, r3
10008ad2:	d150      	bne.n	10008b76 <dhcp_create_msg+0x12a>
10008ad4:	2f03      	cmp	r7, #3
10008ad6:	d04a      	beq.n	10008b6e <dhcp_create_msg+0x122>
10008ad8:	2332      	movs	r3, #50	; 0x32
10008ada:	5ceb      	ldrb	r3, [r5, r3]
10008adc:	2235      	movs	r2, #53	; 0x35
10008ade:	7723      	strb	r3, [r4, #28]
10008ae0:	2333      	movs	r3, #51	; 0x33
10008ae2:	5ceb      	ldrb	r3, [r5, r3]
10008ae4:	207e      	movs	r0, #126	; 0x7e
10008ae6:	7763      	strb	r3, [r4, #29]
10008ae8:	2334      	movs	r3, #52	; 0x34
10008aea:	5ceb      	ldrb	r3, [r5, r3]
10008aec:	4240      	negs	r0, r0
10008aee:	77a3      	strb	r3, [r4, #30]
10008af0:	5cab      	ldrb	r3, [r5, r2]
10008af2:	77e3      	strb	r3, [r4, #31]
10008af4:	2336      	movs	r3, #54	; 0x36
10008af6:	5ce9      	ldrb	r1, [r5, r3]
10008af8:	3b16      	subs	r3, #22
10008afa:	54e1      	strb	r1, [r4, r3]
10008afc:	3317      	adds	r3, #23
10008afe:	5ce9      	ldrb	r1, [r5, r3]
10008b00:	3b16      	subs	r3, #22
10008b02:	54e1      	strb	r1, [r4, r3]
10008b04:	2163      	movs	r1, #99	; 0x63
10008b06:	33cb      	adds	r3, #203	; 0xcb
10008b08:	54e1      	strb	r1, [r4, r3]
10008b0a:	0023      	movs	r3, r4
10008b0c:	33ec      	adds	r3, #236	; 0xec
10008b0e:	7058      	strb	r0, [r3, #1]
10008b10:	30d1      	adds	r0, #209	; 0xd1
10008b12:	7098      	strb	r0, [r3, #2]
10008b14:	70d9      	strb	r1, [r3, #3]
10008b16:	23f0      	movs	r3, #240	; 0xf0
10008b18:	54e2      	strb	r2, [r4, r3]
10008b1a:	3301      	adds	r3, #1
10008b1c:	3a34      	subs	r2, #52	; 0x34
10008b1e:	54e2      	strb	r2, [r4, r3]
10008b20:	464a      	mov	r2, r9
10008b22:	3301      	adds	r3, #1
10008b24:	54e7      	strb	r7, [r4, r3]
10008b26:	3bef      	subs	r3, #239	; 0xef
10008b28:	8013      	strh	r3, [r2, #0]
10008b2a:	4640      	mov	r0, r8
10008b2c:	bce0      	pop	{r5, r6, r7}
10008b2e:	46ba      	mov	sl, r7
10008b30:	46b1      	mov	r9, r6
10008b32:	46a8      	mov	r8, r5
10008b34:	bdf0      	pop	{r4, r5, r6, r7, pc}
10008b36:	7973      	ldrb	r3, [r6, #5]
10008b38:	2b03      	cmp	r3, #3
10008b3a:	d028      	beq.n	10008b8e <dhcp_create_msg+0x142>
10008b3c:	4643      	mov	r3, r8
10008b3e:	229a      	movs	r2, #154	; 0x9a
10008b40:	685c      	ldr	r4, [r3, #4]
10008b42:	2100      	movs	r1, #0
10008b44:	0052      	lsls	r2, r2, #1
10008b46:	0020      	movs	r0, r4
10008b48:	f7fd ff5e 	bl	10006a08 <__wrap_memset>
10008b4c:	2301      	movs	r3, #1
10008b4e:	7023      	strb	r3, [r4, #0]
10008b50:	7063      	strb	r3, [r4, #1]
10008b52:	3337      	adds	r3, #55	; 0x37
10008b54:	5ceb      	ldrb	r3, [r5, r3]
10008b56:	70a3      	strb	r3, [r4, #2]
10008b58:	6830      	ldr	r0, [r6, #0]
10008b5a:	f7fe fb61 	bl	10007220 <lwip_htonl>
10008b5e:	0a03      	lsrs	r3, r0, #8
10008b60:	7163      	strb	r3, [r4, #5]
10008b62:	0203      	lsls	r3, r0, #8
10008b64:	7120      	strb	r0, [r4, #4]
10008b66:	0e1b      	lsrs	r3, r3, #24
10008b68:	0e00      	lsrs	r0, r0, #24
10008b6a:	71a3      	strb	r3, [r4, #6]
10008b6c:	71e0      	strb	r0, [r4, #7]
10008b6e:	7973      	ldrb	r3, [r6, #5]
10008b70:	3b04      	subs	r3, #4
10008b72:	2b01      	cmp	r3, #1
10008b74:	d8b0      	bhi.n	10008ad8 <dhcp_create_msg+0x8c>
10008b76:	792b      	ldrb	r3, [r5, #4]
10008b78:	7323      	strb	r3, [r4, #12]
10008b7a:	796b      	ldrb	r3, [r5, #5]
10008b7c:	7363      	strb	r3, [r4, #13]
10008b7e:	79ab      	ldrb	r3, [r5, #6]
10008b80:	73a3      	strb	r3, [r4, #14]
10008b82:	79eb      	ldrb	r3, [r5, #7]
10008b84:	73e3      	strb	r3, [r4, #15]
10008b86:	e7a7      	b.n	10008ad8 <dhcp_create_msg+0x8c>
10008b88:	2300      	movs	r3, #0
10008b8a:	4698      	mov	r8, r3
10008b8c:	e7cd      	b.n	10008b2a <dhcp_create_msg+0xde>
10008b8e:	79b3      	ldrb	r3, [r6, #6]
10008b90:	2b00      	cmp	r3, #0
10008b92:	d003      	beq.n	10008b9c <dhcp_create_msg+0x150>
10008b94:	4b04      	ldr	r3, [pc, #16]	; (10008ba8 <dhcp_create_msg+0x15c>)
10008b96:	681b      	ldr	r3, [r3, #0]
10008b98:	6033      	str	r3, [r6, #0]
10008b9a:	e7cf      	b.n	10008b3c <dhcp_create_msg+0xf0>
10008b9c:	f7ff ff26 	bl	100089ec <pico_lwip_rand>
10008ba0:	4b01      	ldr	r3, [pc, #4]	; (10008ba8 <dhcp_create_msg+0x15c>)
10008ba2:	6018      	str	r0, [r3, #0]
10008ba4:	e774      	b.n	10008a90 <dhcp_create_msg+0x44>
10008ba6:	46c0      	nop			; (mov r8, r8)
10008ba8:	2000adf4 	.word	0x2000adf4

10008bac <dhcp_discover>:
10008bac:	2300      	movs	r3, #0
10008bae:	b5f0      	push	{r4, r5, r6, r7, lr}
10008bb0:	6a86      	ldr	r6, [r0, #40]	; 0x28
10008bb2:	0005      	movs	r5, r0
10008bb4:	7972      	ldrb	r2, [r6, #5]
10008bb6:	b085      	sub	sp, #20
10008bb8:	61f3      	str	r3, [r6, #28]
10008bba:	2a06      	cmp	r2, #6
10008bbc:	d003      	beq.n	10008bc6 <dhcp_discover+0x1a>
10008bbe:	2206      	movs	r2, #6
10008bc0:	71b3      	strb	r3, [r6, #6]
10008bc2:	7172      	strb	r2, [r6, #5]
10008bc4:	8133      	strh	r3, [r6, #8]
10008bc6:	230e      	movs	r3, #14
10008bc8:	2201      	movs	r2, #1
10008bca:	0031      	movs	r1, r6
10008bcc:	0028      	movs	r0, r5
10008bce:	446b      	add	r3, sp
10008bd0:	f7ff ff3c 	bl	10008a4c <dhcp_create_msg>
10008bd4:	1e04      	subs	r4, r0, #0
10008bd6:	d052      	beq.n	10008c7e <dhcp_discover+0xd2>
10008bd8:	466b      	mov	r3, sp
10008bda:	2239      	movs	r2, #57	; 0x39
10008bdc:	2102      	movs	r1, #2
10008bde:	6840      	ldr	r0, [r0, #4]
10008be0:	89db      	ldrh	r3, [r3, #14]
10008be2:	30f0      	adds	r0, #240	; 0xf0
10008be4:	54c2      	strb	r2, [r0, r3]
10008be6:	1c5a      	adds	r2, r3, #1
10008be8:	b292      	uxth	r2, r2
10008bea:	5481      	strb	r1, [r0, r2]
10008bec:	8e29      	ldrh	r1, [r5, #48]	; 0x30
10008bee:	1c9a      	adds	r2, r3, #2
10008bf0:	0a0f      	lsrs	r7, r1, #8
10008bf2:	b292      	uxth	r2, r2
10008bf4:	5487      	strb	r7, [r0, r2]
10008bf6:	1cda      	adds	r2, r3, #3
10008bf8:	b292      	uxth	r2, r2
10008bfa:	5481      	strb	r1, [r0, r2]
10008bfc:	2137      	movs	r1, #55	; 0x37
10008bfe:	1d1a      	adds	r2, r3, #4
10008c00:	b292      	uxth	r2, r2
10008c02:	5481      	strb	r1, [r0, r2]
10008c04:	1d5a      	adds	r2, r3, #5
10008c06:	b292      	uxth	r2, r2
10008c08:	3933      	subs	r1, #51	; 0x33
10008c0a:	5481      	strb	r1, [r0, r2]
10008c0c:	1d9a      	adds	r2, r3, #6
10008c0e:	b292      	uxth	r2, r2
10008c10:	3903      	subs	r1, #3
10008c12:	5481      	strb	r1, [r0, r2]
10008c14:	1dda      	adds	r2, r3, #7
10008c16:	b292      	uxth	r2, r2
10008c18:	3102      	adds	r1, #2
10008c1a:	5481      	strb	r1, [r0, r2]
10008c1c:	001a      	movs	r2, r3
10008c1e:	3208      	adds	r2, #8
10008c20:	b292      	uxth	r2, r2
10008c22:	3119      	adds	r1, #25
10008c24:	5481      	strb	r1, [r0, r2]
10008c26:	001a      	movs	r2, r3
10008c28:	3209      	adds	r2, #9
10008c2a:	b292      	uxth	r2, r2
10008c2c:	3916      	subs	r1, #22
10008c2e:	5481      	strb	r1, [r0, r2]
10008c30:	001a      	movs	r2, r3
10008c32:	4669      	mov	r1, sp
10008c34:	320a      	adds	r2, #10
10008c36:	81ca      	strh	r2, [r1, #14]
10008c38:	0019      	movs	r1, r3
10008c3a:	27ff      	movs	r7, #255	; 0xff
10008c3c:	310b      	adds	r1, #11
10008c3e:	b292      	uxth	r2, r2
10008c40:	b289      	uxth	r1, r1
10008c42:	5487      	strb	r7, [r0, r2]
10008c44:	2943      	cmp	r1, #67	; 0x43
10008c46:	d808      	bhi.n	10008c5a <dhcp_discover+0xae>
10008c48:	2238      	movs	r2, #56	; 0x38
10008c4a:	1ad2      	subs	r2, r2, r3
10008c4c:	b292      	uxth	r2, r2
10008c4e:	1840      	adds	r0, r0, r1
10008c50:	3201      	adds	r2, #1
10008c52:	2100      	movs	r1, #0
10008c54:	f7fd fed8 	bl	10006a08 <__wrap_memset>
10008c58:	2144      	movs	r1, #68	; 0x44
10008c5a:	31f0      	adds	r1, #240	; 0xf0
10008c5c:	0020      	movs	r0, r4
10008c5e:	b289      	uxth	r1, r1
10008c60:	f7fe fefc 	bl	10007a5c <pbuf_realloc>
10008c64:	4b13      	ldr	r3, [pc, #76]	; (10008cb4 <dhcp_discover+0x108>)
10008c66:	0021      	movs	r1, r4
10008c68:	6818      	ldr	r0, [r3, #0]
10008c6a:	4b13      	ldr	r3, [pc, #76]	; (10008cb8 <dhcp_discover+0x10c>)
10008c6c:	4a13      	ldr	r2, [pc, #76]	; (10008cbc <dhcp_discover+0x110>)
10008c6e:	9301      	str	r3, [sp, #4]
10008c70:	9500      	str	r5, [sp, #0]
10008c72:	2343      	movs	r3, #67	; 0x43
10008c74:	f7ff fdc8 	bl	10008808 <udp_sendto_if_src>
10008c78:	0020      	movs	r0, r4
10008c7a:	f7fe ff71 	bl	10007b60 <pbuf_free>
10008c7e:	79b3      	ldrb	r3, [r6, #6]
10008c80:	2bff      	cmp	r3, #255	; 0xff
10008c82:	d015      	beq.n	10008cb0 <dhcp_discover+0x104>
10008c84:	3301      	adds	r3, #1
10008c86:	b2db      	uxtb	r3, r3
10008c88:	71b3      	strb	r3, [r6, #6]
10008c8a:	2b05      	cmp	r3, #5
10008c8c:	d810      	bhi.n	10008cb0 <dhcp_discover+0x104>
10008c8e:	2201      	movs	r2, #1
10008c90:	20fa      	movs	r0, #250	; 0xfa
10008c92:	409a      	lsls	r2, r3
10008c94:	21fa      	movs	r1, #250	; 0xfa
10008c96:	0080      	lsls	r0, r0, #2
10008c98:	4350      	muls	r0, r2
10008c9a:	30f4      	adds	r0, #244	; 0xf4
10008c9c:	30ff      	adds	r0, #255	; 0xff
10008c9e:	b280      	uxth	r0, r0
10008ca0:	0049      	lsls	r1, r1, #1
10008ca2:	f7fd fab3 	bl	1000620c <__wrap___aeabi_idiv>
10008ca6:	b280      	uxth	r0, r0
10008ca8:	8130      	strh	r0, [r6, #8]
10008caa:	2000      	movs	r0, #0
10008cac:	b005      	add	sp, #20
10008cae:	bdf0      	pop	{r4, r5, r6, r7, pc}
10008cb0:	2078      	movs	r0, #120	; 0x78
10008cb2:	e7f9      	b.n	10008ca8 <dhcp_discover+0xfc>
10008cb4:	200012dc 	.word	0x200012dc
10008cb8:	1000a60c 	.word	0x1000a60c
10008cbc:	1000a610 	.word	0x1000a610

10008cc0 <dhcp_reboot.isra.0>:
10008cc0:	b5f0      	push	{r4, r5, r6, r7, lr}
10008cc2:	464e      	mov	r6, r9
10008cc4:	4645      	mov	r5, r8
10008cc6:	46de      	mov	lr, fp
10008cc8:	4657      	mov	r7, sl
10008cca:	b5e0      	push	{r5, r6, r7, lr}
10008ccc:	6a86      	ldr	r6, [r0, #40]	; 0x28
10008cce:	0005      	movs	r5, r0
10008cd0:	7973      	ldrb	r3, [r6, #5]
10008cd2:	b085      	sub	sp, #20
10008cd4:	2b03      	cmp	r3, #3
10008cd6:	d004      	beq.n	10008ce2 <dhcp_reboot.isra.0+0x22>
10008cd8:	2303      	movs	r3, #3
10008cda:	7173      	strb	r3, [r6, #5]
10008cdc:	2300      	movs	r3, #0
10008cde:	71b3      	strb	r3, [r6, #6]
10008ce0:	8133      	strh	r3, [r6, #8]
10008ce2:	230e      	movs	r3, #14
10008ce4:	2203      	movs	r2, #3
10008ce6:	0031      	movs	r1, r6
10008ce8:	0028      	movs	r0, r5
10008cea:	446b      	add	r3, sp
10008cec:	f7ff feae 	bl	10008a4c <dhcp_create_msg>
10008cf0:	1e04      	subs	r4, r0, #0
10008cf2:	d100      	bne.n	10008cf6 <dhcp_reboot.isra.0+0x36>
10008cf4:	e08b      	b.n	10008e0e <dhcp_reboot.isra.0+0x14e>
10008cf6:	466b      	mov	r3, sp
10008cf8:	89db      	ldrh	r3, [r3, #14]
10008cfa:	6847      	ldr	r7, [r0, #4]
10008cfc:	469a      	mov	sl, r3
10008cfe:	2339      	movs	r3, #57	; 0x39
10008d00:	4652      	mov	r2, sl
10008d02:	37f0      	adds	r7, #240	; 0xf0
10008d04:	54bb      	strb	r3, [r7, r2]
10008d06:	4653      	mov	r3, sl
10008d08:	2202      	movs	r2, #2
10008d0a:	3301      	adds	r3, #1
10008d0c:	b29b      	uxth	r3, r3
10008d0e:	54fa      	strb	r2, [r7, r3]
10008d10:	4653      	mov	r3, sl
10008d12:	3302      	adds	r3, #2
10008d14:	b29b      	uxth	r3, r3
10008d16:	54fa      	strb	r2, [r7, r3]
10008d18:	4653      	mov	r3, sl
10008d1a:	3303      	adds	r3, #3
10008d1c:	b29b      	uxth	r3, r3
10008d1e:	323e      	adds	r2, #62	; 0x3e
10008d20:	54fa      	strb	r2, [r7, r3]
10008d22:	4653      	mov	r3, sl
10008d24:	3304      	adds	r3, #4
10008d26:	b29b      	uxth	r3, r3
10008d28:	3a0e      	subs	r2, #14
10008d2a:	54fa      	strb	r2, [r7, r3]
10008d2c:	4653      	mov	r3, sl
10008d2e:	3306      	adds	r3, #6
10008d30:	b29b      	uxth	r3, r3
10008d32:	4699      	mov	r9, r3
10008d34:	4653      	mov	r3, sl
10008d36:	3305      	adds	r3, #5
10008d38:	3a2e      	subs	r2, #46	; 0x2e
10008d3a:	b29b      	uxth	r3, r3
10008d3c:	54fa      	strb	r2, [r7, r3]
10008d3e:	4693      	mov	fp, r2
10008d40:	466b      	mov	r3, sp
10008d42:	464a      	mov	r2, r9
10008d44:	69f0      	ldr	r0, [r6, #28]
10008d46:	81da      	strh	r2, [r3, #14]
10008d48:	f7fe fa6a 	bl	10007220 <lwip_htonl>
10008d4c:	464a      	mov	r2, r9
10008d4e:	0e03      	lsrs	r3, r0, #24
10008d50:	54bb      	strb	r3, [r7, r2]
10008d52:	4653      	mov	r3, sl
10008d54:	3307      	adds	r3, #7
10008d56:	b29b      	uxth	r3, r3
10008d58:	0c02      	lsrs	r2, r0, #16
10008d5a:	54fa      	strb	r2, [r7, r3]
10008d5c:	4653      	mov	r3, sl
10008d5e:	3308      	adds	r3, #8
10008d60:	b29b      	uxth	r3, r3
10008d62:	0a02      	lsrs	r2, r0, #8
10008d64:	54fa      	strb	r2, [r7, r3]
10008d66:	4653      	mov	r3, sl
10008d68:	3309      	adds	r3, #9
10008d6a:	b29b      	uxth	r3, r3
10008d6c:	54f8      	strb	r0, [r7, r3]
10008d6e:	4653      	mov	r3, sl
10008d70:	2237      	movs	r2, #55	; 0x37
10008d72:	330a      	adds	r3, #10
10008d74:	b29b      	uxth	r3, r3
10008d76:	54fa      	strb	r2, [r7, r3]
10008d78:	4653      	mov	r3, sl
10008d7a:	465a      	mov	r2, fp
10008d7c:	330b      	adds	r3, #11
10008d7e:	b29b      	uxth	r3, r3
10008d80:	54fa      	strb	r2, [r7, r3]
10008d82:	4653      	mov	r3, sl
10008d84:	330c      	adds	r3, #12
10008d86:	b29b      	uxth	r3, r3
10008d88:	3a03      	subs	r2, #3
10008d8a:	54fa      	strb	r2, [r7, r3]
10008d8c:	4653      	mov	r3, sl
10008d8e:	330d      	adds	r3, #13
10008d90:	b29b      	uxth	r3, r3
10008d92:	3202      	adds	r2, #2
10008d94:	54fa      	strb	r2, [r7, r3]
10008d96:	4653      	mov	r3, sl
10008d98:	330e      	adds	r3, #14
10008d9a:	b29b      	uxth	r3, r3
10008d9c:	3219      	adds	r2, #25
10008d9e:	54fa      	strb	r2, [r7, r3]
10008da0:	4653      	mov	r3, sl
10008da2:	330f      	adds	r3, #15
10008da4:	b29b      	uxth	r3, r3
10008da6:	3a16      	subs	r2, #22
10008da8:	54fa      	strb	r2, [r7, r3]
10008daa:	4653      	mov	r3, sl
10008dac:	466a      	mov	r2, sp
10008dae:	3310      	adds	r3, #16
10008db0:	81d3      	strh	r3, [r2, #14]
10008db2:	b29b      	uxth	r3, r3
10008db4:	4699      	mov	r9, r3
10008db6:	6aeb      	ldr	r3, [r5, #44]	; 0x2c
10008db8:	469b      	mov	fp, r3
10008dba:	2b00      	cmp	r3, #0
10008dbc:	d004      	beq.n	10008dc8 <dhcp_reboot.isra.0+0x108>
10008dbe:	0018      	movs	r0, r3
10008dc0:	f000 fd5e 	bl	10009880 <strlen>
10008dc4:	2800      	cmp	r0, #0
10008dc6:	d13f      	bne.n	10008e48 <dhcp_reboot.isra.0+0x188>
10008dc8:	464a      	mov	r2, r9
10008dca:	466b      	mov	r3, sp
10008dcc:	81da      	strh	r2, [r3, #14]
10008dce:	23ff      	movs	r3, #255	; 0xff
10008dd0:	1c50      	adds	r0, r2, #1
10008dd2:	b280      	uxth	r0, r0
10008dd4:	54bb      	strb	r3, [r7, r2]
10008dd6:	2843      	cmp	r0, #67	; 0x43
10008dd8:	d808      	bhi.n	10008dec <dhcp_reboot.isra.0+0x12c>
10008dda:	464b      	mov	r3, r9
10008ddc:	2243      	movs	r2, #67	; 0x43
10008dde:	1ad2      	subs	r2, r2, r3
10008de0:	2100      	movs	r1, #0
10008de2:	b292      	uxth	r2, r2
10008de4:	1838      	adds	r0, r7, r0
10008de6:	f7fd fe0f 	bl	10006a08 <__wrap_memset>
10008dea:	2044      	movs	r0, #68	; 0x44
10008dec:	0001      	movs	r1, r0
10008dee:	31f0      	adds	r1, #240	; 0xf0
10008df0:	0020      	movs	r0, r4
10008df2:	b289      	uxth	r1, r1
10008df4:	f7fe fe32 	bl	10007a5c <pbuf_realloc>
10008df8:	4b28      	ldr	r3, [pc, #160]	; (10008e9c <dhcp_reboot.isra.0+0x1dc>)
10008dfa:	0021      	movs	r1, r4
10008dfc:	6818      	ldr	r0, [r3, #0]
10008dfe:	4a28      	ldr	r2, [pc, #160]	; (10008ea0 <dhcp_reboot.isra.0+0x1e0>)
10008e00:	2343      	movs	r3, #67	; 0x43
10008e02:	9500      	str	r5, [sp, #0]
10008e04:	f7ff fd90 	bl	10008928 <udp_sendto_if>
10008e08:	0020      	movs	r0, r4
10008e0a:	f7fe fea9 	bl	10007b60 <pbuf_free>
10008e0e:	79b3      	ldrb	r3, [r6, #6]
10008e10:	2bff      	cmp	r3, #255	; 0xff
10008e12:	d017      	beq.n	10008e44 <dhcp_reboot.isra.0+0x184>
10008e14:	3301      	adds	r3, #1
10008e16:	b2db      	uxtb	r3, r3
10008e18:	71b3      	strb	r3, [r6, #6]
10008e1a:	2b09      	cmp	r3, #9
10008e1c:	d812      	bhi.n	10008e44 <dhcp_reboot.isra.0+0x184>
10008e1e:	20fa      	movs	r0, #250	; 0xfa
10008e20:	21fa      	movs	r1, #250	; 0xfa
10008e22:	0080      	lsls	r0, r0, #2
10008e24:	4358      	muls	r0, r3
10008e26:	30f4      	adds	r0, #244	; 0xf4
10008e28:	30ff      	adds	r0, #255	; 0xff
10008e2a:	b280      	uxth	r0, r0
10008e2c:	0049      	lsls	r1, r1, #1
10008e2e:	f7fd f9ed 	bl	1000620c <__wrap___aeabi_idiv>
10008e32:	b280      	uxth	r0, r0
10008e34:	8130      	strh	r0, [r6, #8]
10008e36:	b005      	add	sp, #20
10008e38:	bcf0      	pop	{r4, r5, r6, r7}
10008e3a:	46bb      	mov	fp, r7
10008e3c:	46b2      	mov	sl, r6
10008e3e:	46a9      	mov	r9, r5
10008e40:	46a0      	mov	r8, r4
10008e42:	bdf0      	pop	{r4, r5, r6, r7, pc}
10008e44:	2014      	movs	r0, #20
10008e46:	e7f5      	b.n	10008e34 <dhcp_reboot.isra.0+0x174>
10008e48:	2141      	movs	r1, #65	; 0x41
10008e4a:	464b      	mov	r3, r9
10008e4c:	1ac9      	subs	r1, r1, r3
10008e4e:	4281      	cmp	r1, r0
10008e50:	d822      	bhi.n	10008e98 <dhcp_reboot.isra.0+0x1d8>
10008e52:	464a      	mov	r2, r9
10008e54:	230c      	movs	r3, #12
10008e56:	54bb      	strb	r3, [r7, r2]
10008e58:	4653      	mov	r3, sl
10008e5a:	3312      	adds	r3, #18
10008e5c:	b29a      	uxth	r2, r3
10008e5e:	4691      	mov	r9, r2
10008e60:	4652      	mov	r2, sl
10008e62:	3211      	adds	r2, #17
10008e64:	b292      	uxth	r2, r2
10008e66:	54b9      	strb	r1, [r7, r2]
10008e68:	1e4a      	subs	r2, r1, #1
10008e6a:	4690      	mov	r8, r2
10008e6c:	2900      	cmp	r1, #0
10008e6e:	d0ab      	beq.n	10008dc8 <dhcp_reboot.isra.0+0x108>
10008e70:	4658      	mov	r0, fp
10008e72:	1a1b      	subs	r3, r3, r0
10008e74:	4699      	mov	r9, r3
10008e76:	4459      	add	r1, fp
10008e78:	7803      	ldrb	r3, [r0, #0]
10008e7a:	469c      	mov	ip, r3
10008e7c:	464b      	mov	r3, r9
10008e7e:	4662      	mov	r2, ip
10008e80:	181b      	adds	r3, r3, r0
10008e82:	b29b      	uxth	r3, r3
10008e84:	3001      	adds	r0, #1
10008e86:	54fa      	strb	r2, [r7, r3]
10008e88:	4281      	cmp	r1, r0
10008e8a:	d1f5      	bne.n	10008e78 <dhcp_reboot.isra.0+0x1b8>
10008e8c:	4653      	mov	r3, sl
10008e8e:	3313      	adds	r3, #19
10008e90:	4443      	add	r3, r8
10008e92:	b29b      	uxth	r3, r3
10008e94:	4699      	mov	r9, r3
10008e96:	e797      	b.n	10008dc8 <dhcp_reboot.isra.0+0x108>
10008e98:	0001      	movs	r1, r0
10008e9a:	e7da      	b.n	10008e52 <dhcp_reboot.isra.0+0x192>
10008e9c:	200012dc 	.word	0x200012dc
10008ea0:	1000a610 	.word	0x1000a610

10008ea4 <dhcp_network_changed_link_up>:
10008ea4:	6a82      	ldr	r2, [r0, #40]	; 0x28
10008ea6:	b510      	push	{r4, lr}
10008ea8:	2a00      	cmp	r2, #0
10008eaa:	d006      	beq.n	10008eba <dhcp_network_changed_link_up+0x16>
10008eac:	7953      	ldrb	r3, [r2, #5]
10008eae:	2b05      	cmp	r3, #5
10008eb0:	d804      	bhi.n	10008ebc <dhcp_network_changed_link_up+0x18>
10008eb2:	2b02      	cmp	r3, #2
10008eb4:	d809      	bhi.n	10008eca <dhcp_network_changed_link_up+0x26>
10008eb6:	2b00      	cmp	r3, #0
10008eb8:	d102      	bne.n	10008ec0 <dhcp_network_changed_link_up+0x1c>
10008eba:	bd10      	pop	{r4, pc}
10008ebc:	2b0a      	cmp	r3, #10
10008ebe:	d004      	beq.n	10008eca <dhcp_network_changed_link_up+0x26>
10008ec0:	2300      	movs	r3, #0
10008ec2:	7193      	strb	r3, [r2, #6]
10008ec4:	f7ff fe72 	bl	10008bac <dhcp_discover>
10008ec8:	e7f7      	b.n	10008eba <dhcp_network_changed_link_up+0x16>
10008eca:	2300      	movs	r3, #0
10008ecc:	7193      	strb	r3, [r2, #6]
10008ece:	f7ff fef7 	bl	10008cc0 <dhcp_reboot.isra.0>
10008ed2:	e7f2      	b.n	10008eba <dhcp_network_changed_link_up+0x16>

10008ed4 <dhcp_stop>:
10008ed4:	b5f0      	push	{r4, r5, r6, r7, lr}
10008ed6:	46ce      	mov	lr, r9
10008ed8:	4647      	mov	r7, r8
10008eda:	b580      	push	{r7, lr}
10008edc:	6a84      	ldr	r4, [r0, #40]	; 0x28
10008ede:	0005      	movs	r5, r0
10008ee0:	b085      	sub	sp, #20
10008ee2:	2c00      	cmp	r4, #0
10008ee4:	d024      	beq.n	10008f30 <dhcp_stop+0x5c>
10008ee6:	7962      	ldrb	r2, [r4, #5]
10008ee8:	2a00      	cmp	r2, #0
10008eea:	d021      	beq.n	10008f30 <dhcp_stop+0x5c>
10008eec:	69a3      	ldr	r3, [r4, #24]
10008eee:	2100      	movs	r1, #0
10008ef0:	9303      	str	r3, [sp, #12]
10008ef2:	2300      	movs	r3, #0
10008ef4:	61a3      	str	r3, [r4, #24]
10008ef6:	61e3      	str	r3, [r4, #28]
10008ef8:	6223      	str	r3, [r4, #32]
10008efa:	6263      	str	r3, [r4, #36]	; 0x24
10008efc:	6323      	str	r3, [r4, #48]	; 0x30
10008efe:	62e3      	str	r3, [r4, #44]	; 0x2c
10008f00:	62a3      	str	r3, [r4, #40]	; 0x28
10008f02:	81e3      	strh	r3, [r4, #14]
10008f04:	6123      	str	r3, [r4, #16]
10008f06:	82a3      	strh	r3, [r4, #20]
10008f08:	2a0a      	cmp	r2, #10
10008f0a:	d016      	beq.n	10008f3a <dhcp_stop+0x66>
10008f0c:	3a04      	subs	r2, #4
10008f0e:	2a01      	cmp	r2, #1
10008f10:	d913      	bls.n	10008f3a <dhcp_stop+0x66>
10008f12:	7161      	strb	r1, [r4, #5]
10008f14:	71a1      	strb	r1, [r4, #6]
10008f16:	8123      	strh	r3, [r4, #8]
10008f18:	7923      	ldrb	r3, [r4, #4]
10008f1a:	2b00      	cmp	r3, #0
10008f1c:	d008      	beq.n	10008f30 <dhcp_stop+0x5c>
10008f1e:	4b3b      	ldr	r3, [pc, #236]	; (1000900c <dhcp_stop+0x138>)
10008f20:	781d      	ldrb	r5, [r3, #0]
10008f22:	3d01      	subs	r5, #1
10008f24:	b2ed      	uxtb	r5, r5
10008f26:	701d      	strb	r5, [r3, #0]
10008f28:	2d00      	cmp	r5, #0
10008f2a:	d068      	beq.n	10008ffe <dhcp_stop+0x12a>
10008f2c:	2300      	movs	r3, #0
10008f2e:	7123      	strb	r3, [r4, #4]
10008f30:	b005      	add	sp, #20
10008f32:	bcc0      	pop	{r6, r7}
10008f34:	46b9      	mov	r9, r7
10008f36:	46b0      	mov	r8, r6
10008f38:	bdf0      	pop	{r4, r5, r6, r7, pc}
10008f3a:	2300      	movs	r3, #0
10008f3c:	7163      	strb	r3, [r4, #5]
10008f3e:	71a3      	strb	r3, [r4, #6]
10008f40:	8123      	strh	r3, [r4, #8]
10008f42:	330a      	adds	r3, #10
10008f44:	2207      	movs	r2, #7
10008f46:	0021      	movs	r1, r4
10008f48:	0028      	movs	r0, r5
10008f4a:	446b      	add	r3, sp
10008f4c:	f7ff fd7e 	bl	10008a4c <dhcp_create_msg>
10008f50:	1e06      	subs	r6, r0, #0
10008f52:	d04d      	beq.n	10008ff0 <dhcp_stop+0x11c>
10008f54:	466b      	mov	r3, sp
10008f56:	895b      	ldrh	r3, [r3, #10]
10008f58:	6877      	ldr	r7, [r6, #4]
10008f5a:	4698      	mov	r8, r3
10008f5c:	2336      	movs	r3, #54	; 0x36
10008f5e:	4642      	mov	r2, r8
10008f60:	37f0      	adds	r7, #240	; 0xf0
10008f62:	54bb      	strb	r3, [r7, r2]
10008f64:	4643      	mov	r3, r8
10008f66:	3302      	adds	r3, #2
10008f68:	b29b      	uxth	r3, r3
10008f6a:	4699      	mov	r9, r3
10008f6c:	4643      	mov	r3, r8
10008f6e:	2204      	movs	r2, #4
10008f70:	3301      	adds	r3, #1
10008f72:	b29b      	uxth	r3, r3
10008f74:	54fa      	strb	r2, [r7, r3]
10008f76:	466b      	mov	r3, sp
10008f78:	464a      	mov	r2, r9
10008f7a:	9803      	ldr	r0, [sp, #12]
10008f7c:	815a      	strh	r2, [r3, #10]
10008f7e:	f7fe f94f 	bl	10007220 <lwip_htonl>
10008f82:	464a      	mov	r2, r9
10008f84:	0e03      	lsrs	r3, r0, #24
10008f86:	54bb      	strb	r3, [r7, r2]
10008f88:	4643      	mov	r3, r8
10008f8a:	3303      	adds	r3, #3
10008f8c:	0c02      	lsrs	r2, r0, #16
10008f8e:	b29b      	uxth	r3, r3
10008f90:	54fa      	strb	r2, [r7, r3]
10008f92:	4643      	mov	r3, r8
10008f94:	3304      	adds	r3, #4
10008f96:	0a02      	lsrs	r2, r0, #8
10008f98:	b29b      	uxth	r3, r3
10008f9a:	54fa      	strb	r2, [r7, r3]
10008f9c:	4642      	mov	r2, r8
10008f9e:	4643      	mov	r3, r8
10008fa0:	3205      	adds	r2, #5
10008fa2:	b292      	uxth	r2, r2
10008fa4:	54b8      	strb	r0, [r7, r2]
10008fa6:	466a      	mov	r2, sp
10008fa8:	3306      	adds	r3, #6
10008faa:	b29b      	uxth	r3, r3
10008fac:	8153      	strh	r3, [r2, #10]
10008fae:	4642      	mov	r2, r8
10008fb0:	1dd0      	adds	r0, r2, #7
10008fb2:	22ff      	movs	r2, #255	; 0xff
10008fb4:	b280      	uxth	r0, r0
10008fb6:	54fa      	strb	r2, [r7, r3]
10008fb8:	2843      	cmp	r0, #67	; 0x43
10008fba:	d808      	bhi.n	10008fce <dhcp_stop+0xfa>
10008fbc:	4643      	mov	r3, r8
10008fbe:	223d      	movs	r2, #61	; 0x3d
10008fc0:	1ad2      	subs	r2, r2, r3
10008fc2:	2100      	movs	r1, #0
10008fc4:	b292      	uxth	r2, r2
10008fc6:	1838      	adds	r0, r7, r0
10008fc8:	f7fd fd1e 	bl	10006a08 <__wrap_memset>
10008fcc:	2044      	movs	r0, #68	; 0x44
10008fce:	0001      	movs	r1, r0
10008fd0:	31f0      	adds	r1, #240	; 0xf0
10008fd2:	0030      	movs	r0, r6
10008fd4:	b289      	uxth	r1, r1
10008fd6:	f7fe fd41 	bl	10007a5c <pbuf_realloc>
10008fda:	4b0d      	ldr	r3, [pc, #52]	; (10009010 <dhcp_stop+0x13c>)
10008fdc:	0031      	movs	r1, r6
10008fde:	6818      	ldr	r0, [r3, #0]
10008fe0:	aa03      	add	r2, sp, #12
10008fe2:	2343      	movs	r3, #67	; 0x43
10008fe4:	9500      	str	r5, [sp, #0]
10008fe6:	f7ff fc9f 	bl	10008928 <udp_sendto_if>
10008fea:	0030      	movs	r0, r6
10008fec:	f7fe fdb8 	bl	10007b60 <pbuf_free>
10008ff0:	4908      	ldr	r1, [pc, #32]	; (10009014 <dhcp_stop+0x140>)
10008ff2:	0028      	movs	r0, r5
10008ff4:	000b      	movs	r3, r1
10008ff6:	000a      	movs	r2, r1
10008ff8:	f7fe fbac 	bl	10007754 <netif_set_addr>
10008ffc:	e78c      	b.n	10008f18 <dhcp_stop+0x44>
10008ffe:	4e04      	ldr	r6, [pc, #16]	; (10009010 <dhcp_stop+0x13c>)
10009000:	6830      	ldr	r0, [r6, #0]
10009002:	f7ff fcb5 	bl	10008970 <udp_remove>
10009006:	6035      	str	r5, [r6, #0]
10009008:	e790      	b.n	10008f2c <dhcp_stop+0x58>
1000900a:	46c0      	nop			; (mov r8, r8)
1000900c:	2000ae03 	.word	0x2000ae03
10009010:	200012dc 	.word	0x200012dc
10009014:	1000a60c 	.word	0x1000a60c

10009018 <etharp_cleanup_netif>:
10009018:	b570      	push	{r4, r5, r6, lr}
1000901a:	4c60      	ldr	r4, [pc, #384]	; (1000919c <etharp_cleanup_netif+0x184>)
1000901c:	0005      	movs	r5, r0
1000901e:	7d23      	ldrb	r3, [r4, #20]
10009020:	2b00      	cmp	r3, #0
10009022:	d002      	beq.n	1000902a <etharp_cleanup_netif+0x12>
10009024:	68a3      	ldr	r3, [r4, #8]
10009026:	4298      	cmp	r0, r3
10009028:	d053      	beq.n	100090d2 <etharp_cleanup_netif+0xba>
1000902a:	232c      	movs	r3, #44	; 0x2c
1000902c:	5ce3      	ldrb	r3, [r4, r3]
1000902e:	2b00      	cmp	r3, #0
10009030:	d002      	beq.n	10009038 <etharp_cleanup_netif+0x20>
10009032:	6a23      	ldr	r3, [r4, #32]
10009034:	429d      	cmp	r5, r3
10009036:	d056      	beq.n	100090e6 <etharp_cleanup_netif+0xce>
10009038:	2344      	movs	r3, #68	; 0x44
1000903a:	5ce3      	ldrb	r3, [r4, r3]
1000903c:	2b00      	cmp	r3, #0
1000903e:	d003      	beq.n	10009048 <etharp_cleanup_netif+0x30>
10009040:	6ba3      	ldr	r3, [r4, #56]	; 0x38
10009042:	429d      	cmp	r5, r3
10009044:	d100      	bne.n	10009048 <etharp_cleanup_netif+0x30>
10009046:	e07b      	b.n	10009140 <etharp_cleanup_netif+0x128>
10009048:	235c      	movs	r3, #92	; 0x5c
1000904a:	5ce3      	ldrb	r3, [r4, r3]
1000904c:	2b00      	cmp	r3, #0
1000904e:	d002      	beq.n	10009056 <etharp_cleanup_netif+0x3e>
10009050:	6d23      	ldr	r3, [r4, #80]	; 0x50
10009052:	429d      	cmp	r5, r3
10009054:	d05d      	beq.n	10009112 <etharp_cleanup_netif+0xfa>
10009056:	2374      	movs	r3, #116	; 0x74
10009058:	5ce3      	ldrb	r3, [r4, r3]
1000905a:	2b00      	cmp	r3, #0
1000905c:	d003      	beq.n	10009066 <etharp_cleanup_netif+0x4e>
1000905e:	6ea3      	ldr	r3, [r4, #104]	; 0x68
10009060:	429d      	cmp	r5, r3
10009062:	d100      	bne.n	10009066 <etharp_cleanup_netif+0x4e>
10009064:	e083      	b.n	1000916e <etharp_cleanup_netif+0x156>
10009066:	238c      	movs	r3, #140	; 0x8c
10009068:	5ce3      	ldrb	r3, [r4, r3]
1000906a:	2b00      	cmp	r3, #0
1000906c:	d003      	beq.n	10009076 <etharp_cleanup_netif+0x5e>
1000906e:	2380      	movs	r3, #128	; 0x80
10009070:	58e3      	ldr	r3, [r4, r3]
10009072:	429d      	cmp	r5, r3
10009074:	d042      	beq.n	100090fc <etharp_cleanup_netif+0xe4>
10009076:	23a4      	movs	r3, #164	; 0xa4
10009078:	5ce3      	ldrb	r3, [r4, r3]
1000907a:	2b00      	cmp	r3, #0
1000907c:	d003      	beq.n	10009086 <etharp_cleanup_netif+0x6e>
1000907e:	2398      	movs	r3, #152	; 0x98
10009080:	58e3      	ldr	r3, [r4, r3]
10009082:	429d      	cmp	r5, r3
10009084:	d067      	beq.n	10009156 <etharp_cleanup_netif+0x13e>
10009086:	23bc      	movs	r3, #188	; 0xbc
10009088:	5ce3      	ldrb	r3, [r4, r3]
1000908a:	2b00      	cmp	r3, #0
1000908c:	d003      	beq.n	10009096 <etharp_cleanup_netif+0x7e>
1000908e:	23b0      	movs	r3, #176	; 0xb0
10009090:	58e3      	ldr	r3, [r4, r3]
10009092:	429d      	cmp	r5, r3
10009094:	d048      	beq.n	10009128 <etharp_cleanup_netif+0x110>
10009096:	23d4      	movs	r3, #212	; 0xd4
10009098:	5ce3      	ldrb	r3, [r4, r3]
1000909a:	2b00      	cmp	r3, #0
1000909c:	d004      	beq.n	100090a8 <etharp_cleanup_netif+0x90>
1000909e:	23c8      	movs	r3, #200	; 0xc8
100090a0:	58e3      	ldr	r3, [r4, r3]
100090a2:	429d      	cmp	r5, r3
100090a4:	d100      	bne.n	100090a8 <etharp_cleanup_netif+0x90>
100090a6:	e06d      	b.n	10009184 <etharp_cleanup_netif+0x16c>
100090a8:	23ec      	movs	r3, #236	; 0xec
100090aa:	5ce3      	ldrb	r3, [r4, r3]
100090ac:	2b00      	cmp	r3, #0
100090ae:	d003      	beq.n	100090b8 <etharp_cleanup_netif+0xa0>
100090b0:	23e0      	movs	r3, #224	; 0xe0
100090b2:	58e3      	ldr	r3, [r4, r3]
100090b4:	42ab      	cmp	r3, r5
100090b6:	d000      	beq.n	100090ba <etharp_cleanup_netif+0xa2>
100090b8:	bd70      	pop	{r4, r5, r6, pc}
100090ba:	25d8      	movs	r5, #216	; 0xd8
100090bc:	5960      	ldr	r0, [r4, r5]
100090be:	2800      	cmp	r0, #0
100090c0:	d003      	beq.n	100090ca <etharp_cleanup_netif+0xb2>
100090c2:	f7fe fd4d 	bl	10007b60 <pbuf_free>
100090c6:	2300      	movs	r3, #0
100090c8:	5163      	str	r3, [r4, r5]
100090ca:	23ec      	movs	r3, #236	; 0xec
100090cc:	2200      	movs	r2, #0
100090ce:	54e2      	strb	r2, [r4, r3]
100090d0:	e7f2      	b.n	100090b8 <etharp_cleanup_netif+0xa0>
100090d2:	6820      	ldr	r0, [r4, #0]
100090d4:	2800      	cmp	r0, #0
100090d6:	d003      	beq.n	100090e0 <etharp_cleanup_netif+0xc8>
100090d8:	f7fe fd42 	bl	10007b60 <pbuf_free>
100090dc:	2300      	movs	r3, #0
100090de:	6023      	str	r3, [r4, #0]
100090e0:	2300      	movs	r3, #0
100090e2:	7523      	strb	r3, [r4, #20]
100090e4:	e7a1      	b.n	1000902a <etharp_cleanup_netif+0x12>
100090e6:	69a0      	ldr	r0, [r4, #24]
100090e8:	2800      	cmp	r0, #0
100090ea:	d003      	beq.n	100090f4 <etharp_cleanup_netif+0xdc>
100090ec:	f7fe fd38 	bl	10007b60 <pbuf_free>
100090f0:	2300      	movs	r3, #0
100090f2:	61a3      	str	r3, [r4, #24]
100090f4:	232c      	movs	r3, #44	; 0x2c
100090f6:	2200      	movs	r2, #0
100090f8:	54e2      	strb	r2, [r4, r3]
100090fa:	e79d      	b.n	10009038 <etharp_cleanup_netif+0x20>
100090fc:	6fa0      	ldr	r0, [r4, #120]	; 0x78
100090fe:	2800      	cmp	r0, #0
10009100:	d003      	beq.n	1000910a <etharp_cleanup_netif+0xf2>
10009102:	f7fe fd2d 	bl	10007b60 <pbuf_free>
10009106:	2300      	movs	r3, #0
10009108:	67a3      	str	r3, [r4, #120]	; 0x78
1000910a:	238c      	movs	r3, #140	; 0x8c
1000910c:	2200      	movs	r2, #0
1000910e:	54e2      	strb	r2, [r4, r3]
10009110:	e7b1      	b.n	10009076 <etharp_cleanup_netif+0x5e>
10009112:	6ca0      	ldr	r0, [r4, #72]	; 0x48
10009114:	2800      	cmp	r0, #0
10009116:	d003      	beq.n	10009120 <etharp_cleanup_netif+0x108>
10009118:	f7fe fd22 	bl	10007b60 <pbuf_free>
1000911c:	2300      	movs	r3, #0
1000911e:	64a3      	str	r3, [r4, #72]	; 0x48
10009120:	235c      	movs	r3, #92	; 0x5c
10009122:	2200      	movs	r2, #0
10009124:	54e2      	strb	r2, [r4, r3]
10009126:	e796      	b.n	10009056 <etharp_cleanup_netif+0x3e>
10009128:	26a8      	movs	r6, #168	; 0xa8
1000912a:	59a0      	ldr	r0, [r4, r6]
1000912c:	2800      	cmp	r0, #0
1000912e:	d003      	beq.n	10009138 <etharp_cleanup_netif+0x120>
10009130:	f7fe fd16 	bl	10007b60 <pbuf_free>
10009134:	2300      	movs	r3, #0
10009136:	51a3      	str	r3, [r4, r6]
10009138:	23bc      	movs	r3, #188	; 0xbc
1000913a:	2200      	movs	r2, #0
1000913c:	54e2      	strb	r2, [r4, r3]
1000913e:	e7aa      	b.n	10009096 <etharp_cleanup_netif+0x7e>
10009140:	6b20      	ldr	r0, [r4, #48]	; 0x30
10009142:	2800      	cmp	r0, #0
10009144:	d003      	beq.n	1000914e <etharp_cleanup_netif+0x136>
10009146:	f7fe fd0b 	bl	10007b60 <pbuf_free>
1000914a:	2300      	movs	r3, #0
1000914c:	6323      	str	r3, [r4, #48]	; 0x30
1000914e:	2344      	movs	r3, #68	; 0x44
10009150:	2200      	movs	r2, #0
10009152:	54e2      	strb	r2, [r4, r3]
10009154:	e778      	b.n	10009048 <etharp_cleanup_netif+0x30>
10009156:	2690      	movs	r6, #144	; 0x90
10009158:	59a0      	ldr	r0, [r4, r6]
1000915a:	2800      	cmp	r0, #0
1000915c:	d003      	beq.n	10009166 <etharp_cleanup_netif+0x14e>
1000915e:	f7fe fcff 	bl	10007b60 <pbuf_free>
10009162:	2300      	movs	r3, #0
10009164:	51a3      	str	r3, [r4, r6]
10009166:	23a4      	movs	r3, #164	; 0xa4
10009168:	2200      	movs	r2, #0
1000916a:	54e2      	strb	r2, [r4, r3]
1000916c:	e78b      	b.n	10009086 <etharp_cleanup_netif+0x6e>
1000916e:	6e20      	ldr	r0, [r4, #96]	; 0x60
10009170:	2800      	cmp	r0, #0
10009172:	d003      	beq.n	1000917c <etharp_cleanup_netif+0x164>
10009174:	f7fe fcf4 	bl	10007b60 <pbuf_free>
10009178:	2300      	movs	r3, #0
1000917a:	6623      	str	r3, [r4, #96]	; 0x60
1000917c:	2374      	movs	r3, #116	; 0x74
1000917e:	2200      	movs	r2, #0
10009180:	54e2      	strb	r2, [r4, r3]
10009182:	e770      	b.n	10009066 <etharp_cleanup_netif+0x4e>
10009184:	26c0      	movs	r6, #192	; 0xc0
10009186:	59a0      	ldr	r0, [r4, r6]
10009188:	2800      	cmp	r0, #0
1000918a:	d003      	beq.n	10009194 <etharp_cleanup_netif+0x17c>
1000918c:	f7fe fce8 	bl	10007b60 <pbuf_free>
10009190:	2300      	movs	r3, #0
10009192:	51a3      	str	r3, [r4, r6]
10009194:	23d4      	movs	r3, #212	; 0xd4
10009196:	2200      	movs	r2, #0
10009198:	54e2      	strb	r2, [r4, r3]
1000919a:	e785      	b.n	100090a8 <etharp_cleanup_netif+0x90>
1000919c:	200006d0 	.word	0x200006d0

100091a0 <etharp_request>:
100091a0:	2332      	movs	r3, #50	; 0x32
100091a2:	b5f0      	push	{r4, r5, r6, r7, lr}
100091a4:	46ce      	mov	lr, r9
100091a6:	4647      	mov	r7, r8
100091a8:	22a0      	movs	r2, #160	; 0xa0
100091aa:	4698      	mov	r8, r3
100091ac:	b580      	push	{r7, lr}
100091ae:	1d03      	adds	r3, r0, #4
100091b0:	0006      	movs	r6, r0
100091b2:	000f      	movs	r7, r1
100091b4:	b083      	sub	sp, #12
100091b6:	211c      	movs	r1, #28
100091b8:	4480      	add	r8, r0
100091ba:	0092      	lsls	r2, r2, #2
100091bc:	200e      	movs	r0, #14
100091be:	4699      	mov	r9, r3
100091c0:	f7fe fb90 	bl	100078e4 <pbuf_alloc>
100091c4:	1e05      	subs	r5, r0, #0
100091c6:	d03e      	beq.n	10009246 <etharp_request+0xa6>
100091c8:	6844      	ldr	r4, [r0, #4]
100091ca:	2001      	movs	r0, #1
100091cc:	f7fe f824 	bl	10007218 <lwip_htons>
100091d0:	71a0      	strb	r0, [r4, #6]
100091d2:	0a00      	lsrs	r0, r0, #8
100091d4:	71e0      	strb	r0, [r4, #7]
100091d6:	0020      	movs	r0, r4
100091d8:	2206      	movs	r2, #6
100091da:	4641      	mov	r1, r8
100091dc:	3008      	adds	r0, #8
100091de:	f7fd fc19 	bl	10006a14 <__wrap___aeabi_memcpy>
100091e2:	0020      	movs	r0, r4
100091e4:	2206      	movs	r2, #6
100091e6:	491b      	ldr	r1, [pc, #108]	; (10009254 <etharp_request+0xb4>)
100091e8:	3012      	adds	r0, #18
100091ea:	f7fd fc13 	bl	10006a14 <__wrap___aeabi_memcpy>
100091ee:	0020      	movs	r0, r4
100091f0:	2204      	movs	r2, #4
100091f2:	4649      	mov	r1, r9
100091f4:	300e      	adds	r0, #14
100091f6:	f7fd fc0d 	bl	10006a14 <__wrap___aeabi_memcpy>
100091fa:	0020      	movs	r0, r4
100091fc:	2204      	movs	r2, #4
100091fe:	0039      	movs	r1, r7
10009200:	3018      	adds	r0, #24
10009202:	f7fd fc07 	bl	10006a14 <__wrap___aeabi_memcpy>
10009206:	2201      	movs	r2, #1
10009208:	2300      	movs	r3, #0
1000920a:	7062      	strb	r2, [r4, #1]
1000920c:	3207      	adds	r2, #7
1000920e:	7023      	strb	r3, [r4, #0]
10009210:	70a2      	strb	r2, [r4, #2]
10009212:	70e3      	strb	r3, [r4, #3]
10009214:	4a10      	ldr	r2, [pc, #64]	; (10009258 <etharp_request+0xb8>)
10009216:	3306      	adds	r3, #6
10009218:	7123      	strb	r3, [r4, #4]
1000921a:	3b02      	subs	r3, #2
1000921c:	7163      	strb	r3, [r4, #5]
1000921e:	0029      	movs	r1, r5
10009220:	4b0e      	ldr	r3, [pc, #56]	; (1000925c <etharp_request+0xbc>)
10009222:	9200      	str	r2, [sp, #0]
10009224:	0030      	movs	r0, r6
10009226:	4642      	mov	r2, r8
10009228:	f000 fa6a 	bl	10009700 <ethernet_output>
1000922c:	4a0c      	ldr	r2, [pc, #48]	; (10009260 <etharp_request+0xc0>)
1000922e:	0028      	movs	r0, r5
10009230:	8813      	ldrh	r3, [r2, #0]
10009232:	3301      	adds	r3, #1
10009234:	8013      	strh	r3, [r2, #0]
10009236:	f7fe fc93 	bl	10007b60 <pbuf_free>
1000923a:	2000      	movs	r0, #0
1000923c:	b003      	add	sp, #12
1000923e:	bcc0      	pop	{r6, r7}
10009240:	46b9      	mov	r9, r7
10009242:	46b0      	mov	r8, r6
10009244:	bdf0      	pop	{r4, r5, r6, r7, pc}
10009246:	2001      	movs	r0, #1
10009248:	4a05      	ldr	r2, [pc, #20]	; (10009260 <etharp_request+0xc0>)
1000924a:	4240      	negs	r0, r0
1000924c:	8993      	ldrh	r3, [r2, #12]
1000924e:	3301      	adds	r3, #1
10009250:	8193      	strh	r3, [r2, #12]
10009252:	e7f3      	b.n	1000923c <etharp_request+0x9c>
10009254:	1000a61c 	.word	0x1000a61c
10009258:	00000806 	.word	0x00000806
1000925c:	1000a614 	.word	0x1000a614
10009260:	200012f8 	.word	0x200012f8

10009264 <ip4_frag>:
10009264:	b5f0      	push	{r4, r5, r6, r7, lr}
10009266:	46de      	mov	lr, fp
10009268:	4657      	mov	r7, sl
1000926a:	464e      	mov	r6, r9
1000926c:	4645      	mov	r5, r8
1000926e:	2307      	movs	r3, #7
10009270:	b5e0      	push	{r5, r6, r7, lr}
10009272:	b089      	sub	sp, #36	; 0x24
10009274:	9205      	str	r2, [sp, #20]
10009276:	8e0a      	ldrh	r2, [r1, #48]	; 0x30
10009278:	468a      	mov	sl, r1
1000927a:	3a14      	subs	r2, #20
1000927c:	17d1      	asrs	r1, r2, #31
1000927e:	400b      	ands	r3, r1
10009280:	189b      	adds	r3, r3, r2
10009282:	10db      	asrs	r3, r3, #3
10009284:	b29b      	uxth	r3, r3
10009286:	9301      	str	r3, [sp, #4]
10009288:	230f      	movs	r3, #15
1000928a:	6841      	ldr	r1, [r0, #4]
1000928c:	4683      	mov	fp, r0
1000928e:	780a      	ldrb	r2, [r1, #0]
10009290:	9104      	str	r1, [sp, #16]
10009292:	4013      	ands	r3, r2
10009294:	2b05      	cmp	r3, #5
10009296:	d000      	beq.n	1000929a <ip4_frag+0x36>
10009298:	e091      	b.n	100093be <ip4_frag+0x15a>
1000929a:	8943      	ldrh	r3, [r0, #10]
1000929c:	2b13      	cmp	r3, #19
1000929e:	d800      	bhi.n	100092a2 <ip4_frag+0x3e>
100092a0:	e08d      	b.n	100093be <ip4_frag+0x15a>
100092a2:	79c8      	ldrb	r0, [r1, #7]
100092a4:	798b      	ldrb	r3, [r1, #6]
100092a6:	0200      	lsls	r0, r0, #8
100092a8:	4318      	orrs	r0, r3
100092aa:	f7fd ffb5 	bl	10007218 <lwip_htons>
100092ae:	04c3      	lsls	r3, r0, #19
100092b0:	0cdb      	lsrs	r3, r3, #19
100092b2:	4699      	mov	r9, r3
100092b4:	2380      	movs	r3, #128	; 0x80
100092b6:	019b      	lsls	r3, r3, #6
100092b8:	4018      	ands	r0, r3
100092ba:	465b      	mov	r3, fp
100092bc:	9007      	str	r0, [sp, #28]
100092be:	891c      	ldrh	r4, [r3, #8]
100092c0:	3c14      	subs	r4, #20
100092c2:	b2a4      	uxth	r4, r4
100092c4:	2c00      	cmp	r4, #0
100092c6:	d100      	bne.n	100092ca <ip4_frag+0x66>
100092c8:	e071      	b.n	100093ae <ip4_frag+0x14a>
100092ca:	2214      	movs	r2, #20
100092cc:	4690      	mov	r8, r2
100092ce:	466a      	mov	r2, sp
100092d0:	9b01      	ldr	r3, [sp, #4]
100092d2:	00db      	lsls	r3, r3, #3
100092d4:	b29b      	uxth	r3, r3
100092d6:	9302      	str	r3, [sp, #8]
100092d8:	81d3      	strh	r3, [r2, #14]
100092da:	4b3a      	ldr	r3, [pc, #232]	; (100093c4 <ip4_frag+0x160>)
100092dc:	9306      	str	r3, [sp, #24]
100092de:	e04e      	b.n	1000937e <ip4_frag+0x11a>
100092e0:	4643      	mov	r3, r8
100092e2:	6841      	ldr	r1, [r0, #4]
100092e4:	003a      	movs	r2, r7
100092e6:	4658      	mov	r0, fp
100092e8:	f7fe fc8e 	bl	10007c08 <pbuf_copy_partial>
100092ec:	4440      	add	r0, r8
100092ee:	b283      	uxth	r3, r0
100092f0:	2114      	movs	r1, #20
100092f2:	0030      	movs	r0, r6
100092f4:	4698      	mov	r8, r3
100092f6:	f7fe fc0d 	bl	10007b14 <pbuf_add_header>
100092fa:	2800      	cmp	r0, #0
100092fc:	d159      	bne.n	100093b2 <ip4_frag+0x14e>
100092fe:	2214      	movs	r2, #20
10009300:	6870      	ldr	r0, [r6, #4]
10009302:	9904      	ldr	r1, [sp, #16]
10009304:	f7fd fb86 	bl	10006a14 <__wrap___aeabi_memcpy>
10009308:	464b      	mov	r3, r9
1000930a:	04d8      	lsls	r0, r3, #19
1000930c:	4653      	mov	r3, sl
1000930e:	8e1b      	ldrh	r3, [r3, #48]	; 0x30
10009310:	6875      	ldr	r5, [r6, #4]
10009312:	3b13      	subs	r3, #19
10009314:	0cc0      	lsrs	r0, r0, #19
10009316:	42a3      	cmp	r3, r4
10009318:	dd02      	ble.n	10009320 <ip4_frag+0xbc>
1000931a:	9b07      	ldr	r3, [sp, #28]
1000931c:	2b00      	cmp	r3, #0
1000931e:	d002      	beq.n	10009326 <ip4_frag+0xc2>
10009320:	2380      	movs	r3, #128	; 0x80
10009322:	019b      	lsls	r3, r3, #6
10009324:	4318      	orrs	r0, r3
10009326:	f7fd ff77 	bl	10007218 <lwip_htons>
1000932a:	71a8      	strb	r0, [r5, #6]
1000932c:	0a00      	lsrs	r0, r0, #8
1000932e:	71e8      	strb	r0, [r5, #7]
10009330:	0038      	movs	r0, r7
10009332:	3014      	adds	r0, #20
10009334:	b280      	uxth	r0, r0
10009336:	f7fd ff6f 	bl	10007218 <lwip_htons>
1000933a:	2300      	movs	r3, #0
1000933c:	70a8      	strb	r0, [r5, #2]
1000933e:	0a00      	lsrs	r0, r0, #8
10009340:	2114      	movs	r1, #20
10009342:	70e8      	strb	r0, [r5, #3]
10009344:	72ab      	strb	r3, [r5, #10]
10009346:	72eb      	strb	r3, [r5, #11]
10009348:	0028      	movs	r0, r5
1000934a:	f7fe f83d 	bl	100073c8 <inet_chksum>
1000934e:	4653      	mov	r3, sl
10009350:	72a8      	strb	r0, [r5, #10]
10009352:	0a00      	lsrs	r0, r0, #8
10009354:	0031      	movs	r1, r6
10009356:	695b      	ldr	r3, [r3, #20]
10009358:	9a05      	ldr	r2, [sp, #20]
1000935a:	72e8      	strb	r0, [r5, #11]
1000935c:	4650      	mov	r0, sl
1000935e:	4798      	blx	r3
10009360:	9a06      	ldr	r2, [sp, #24]
10009362:	0030      	movs	r0, r6
10009364:	8b13      	ldrh	r3, [r2, #24]
10009366:	1be4      	subs	r4, r4, r7
10009368:	3301      	adds	r3, #1
1000936a:	8313      	strh	r3, [r2, #24]
1000936c:	f7fe fbf8 	bl	10007b60 <pbuf_free>
10009370:	9b01      	ldr	r3, [sp, #4]
10009372:	b2a4      	uxth	r4, r4
10009374:	444b      	add	r3, r9
10009376:	b29b      	uxth	r3, r3
10009378:	4699      	mov	r9, r3
1000937a:	2c00      	cmp	r4, #0
1000937c:	d017      	beq.n	100093ae <ip4_frag+0x14a>
1000937e:	466b      	mov	r3, sp
10009380:	89df      	ldrh	r7, [r3, #14]
10009382:	9b02      	ldr	r3, [sp, #8]
10009384:	42a3      	cmp	r3, r4
10009386:	d900      	bls.n	1000938a <ip4_frag+0x126>
10009388:	1c27      	adds	r7, r4, #0
1000938a:	22a0      	movs	r2, #160	; 0xa0
1000938c:	b2bf      	uxth	r7, r7
1000938e:	0039      	movs	r1, r7
10009390:	2022      	movs	r0, #34	; 0x22
10009392:	0092      	lsls	r2, r2, #2
10009394:	f7fe faa6 	bl	100078e4 <pbuf_alloc>
10009398:	1e06      	subs	r6, r0, #0
1000939a:	d1a1      	bne.n	100092e0 <ip4_frag+0x7c>
1000939c:	2001      	movs	r0, #1
1000939e:	4240      	negs	r0, r0
100093a0:	b009      	add	sp, #36	; 0x24
100093a2:	bcf0      	pop	{r4, r5, r6, r7}
100093a4:	46bb      	mov	fp, r7
100093a6:	46b2      	mov	sl, r6
100093a8:	46a9      	mov	r9, r5
100093aa:	46a0      	mov	r8, r4
100093ac:	bdf0      	pop	{r4, r5, r6, r7, pc}
100093ae:	2000      	movs	r0, #0
100093b0:	e7f6      	b.n	100093a0 <ip4_frag+0x13c>
100093b2:	0030      	movs	r0, r6
100093b4:	f7fe fbd4 	bl	10007b60 <pbuf_free>
100093b8:	2001      	movs	r0, #1
100093ba:	4240      	negs	r0, r0
100093bc:	e7f0      	b.n	100093a0 <ip4_frag+0x13c>
100093be:	2006      	movs	r0, #6
100093c0:	4240      	negs	r0, r0
100093c2:	e7ed      	b.n	100093a0 <ip4_frag+0x13c>
100093c4:	200012f8 	.word	0x200012f8

100093c8 <ip4_route>:
100093c8:	4b1b      	ldr	r3, [pc, #108]	; (10009438 <ip4_route+0x70>)
100093ca:	b5f0      	push	{r4, r5, r6, r7, lr}
100093cc:	0006      	movs	r6, r0
100093ce:	6818      	ldr	r0, [r3, #0]
100093d0:	2800      	cmp	r0, #0
100093d2:	d01a      	beq.n	1000940a <ip4_route+0x42>
100093d4:	2302      	movs	r3, #2
100093d6:	2139      	movs	r1, #57	; 0x39
100093d8:	2201      	movs	r2, #1
100093da:	469c      	mov	ip, r3
100093dc:	5c43      	ldrb	r3, [r0, r1]
100093de:	421a      	tst	r2, r3
100093e0:	d010      	beq.n	10009404 <ip4_route+0x3c>
100093e2:	089c      	lsrs	r4, r3, #2
100093e4:	4222      	tst	r2, r4
100093e6:	d00d      	beq.n	10009404 <ip4_route+0x3c>
100093e8:	6844      	ldr	r4, [r0, #4]
100093ea:	2c00      	cmp	r4, #0
100093ec:	d00a      	beq.n	10009404 <ip4_route+0x3c>
100093ee:	6835      	ldr	r5, [r6, #0]
100093f0:	6887      	ldr	r7, [r0, #8]
100093f2:	406c      	eors	r4, r5
100093f4:	4227      	tst	r7, r4
100093f6:	d018      	beq.n	1000942a <ip4_route+0x62>
100093f8:	4664      	mov	r4, ip
100093fa:	421c      	tst	r4, r3
100093fc:	d102      	bne.n	10009404 <ip4_route+0x3c>
100093fe:	68c3      	ldr	r3, [r0, #12]
10009400:	429d      	cmp	r5, r3
10009402:	d012      	beq.n	1000942a <ip4_route+0x62>
10009404:	6800      	ldr	r0, [r0, #0]
10009406:	2800      	cmp	r0, #0
10009408:	d1e8      	bne.n	100093dc <ip4_route+0x14>
1000940a:	4b0c      	ldr	r3, [pc, #48]	; (1000943c <ip4_route+0x74>)
1000940c:	6818      	ldr	r0, [r3, #0]
1000940e:	2800      	cmp	r0, #0
10009410:	d00c      	beq.n	1000942c <ip4_route+0x64>
10009412:	2339      	movs	r3, #57	; 0x39
10009414:	5cc2      	ldrb	r2, [r0, r3]
10009416:	3b34      	subs	r3, #52	; 0x34
10009418:	4013      	ands	r3, r2
1000941a:	2b05      	cmp	r3, #5
1000941c:	d106      	bne.n	1000942c <ip4_route+0x64>
1000941e:	6843      	ldr	r3, [r0, #4]
10009420:	2b00      	cmp	r3, #0
10009422:	d003      	beq.n	1000942c <ip4_route+0x64>
10009424:	7833      	ldrb	r3, [r6, #0]
10009426:	2b7f      	cmp	r3, #127	; 0x7f
10009428:	d000      	beq.n	1000942c <ip4_route+0x64>
1000942a:	bdf0      	pop	{r4, r5, r6, r7, pc}
1000942c:	4a04      	ldr	r2, [pc, #16]	; (10009440 <ip4_route+0x78>)
1000942e:	2000      	movs	r0, #0
10009430:	8fd3      	ldrh	r3, [r2, #62]	; 0x3e
10009432:	3301      	adds	r3, #1
10009434:	87d3      	strh	r3, [r2, #62]	; 0x3e
10009436:	e7f8      	b.n	1000942a <ip4_route+0x62>
10009438:	2000ac78 	.word	0x2000ac78
1000943c:	2000ac74 	.word	0x2000ac74
10009440:	200012f8 	.word	0x200012f8

10009444 <ip4_output_if>:
10009444:	b5f0      	push	{r4, r5, r6, r7, lr}
10009446:	4657      	mov	r7, sl
10009448:	4645      	mov	r5, r8
1000944a:	46de      	mov	lr, fp
1000944c:	464e      	mov	r6, r9
1000944e:	b5e0      	push	{r5, r6, r7, lr}
10009450:	b083      	sub	sp, #12
10009452:	4698      	mov	r8, r3
10009454:	ab0c      	add	r3, sp, #48	; 0x30
10009456:	781b      	ldrb	r3, [r3, #0]
10009458:	0005      	movs	r5, r0
1000945a:	469a      	mov	sl, r3
1000945c:	ab0d      	add	r3, sp, #52	; 0x34
1000945e:	781b      	ldrb	r3, [r3, #0]
10009460:	000f      	movs	r7, r1
10009462:	1e16      	subs	r6, r2, #0
10009464:	469b      	mov	fp, r3
10009466:	d100      	bne.n	1000946a <ip4_output_if+0x26>
10009468:	e07c      	b.n	10009564 <ip4_output_if+0x120>
1000946a:	2900      	cmp	r1, #0
1000946c:	d002      	beq.n	10009474 <ip4_output_if+0x30>
1000946e:	680b      	ldr	r3, [r1, #0]
10009470:	2b00      	cmp	r3, #0
10009472:	d101      	bne.n	10009478 <ip4_output_if+0x34>
10009474:	9b0e      	ldr	r3, [sp, #56]	; 0x38
10009476:	1d1f      	adds	r7, r3, #4
10009478:	2114      	movs	r1, #20
1000947a:	0028      	movs	r0, r5
1000947c:	f7fe fb4a 	bl	10007b14 <pbuf_add_header>
10009480:	4681      	mov	r9, r0
10009482:	2800      	cmp	r0, #0
10009484:	d000      	beq.n	10009488 <ip4_output_if+0x44>
10009486:	e084      	b.n	10009592 <ip4_output_if+0x14e>
10009488:	4643      	mov	r3, r8
1000948a:	686c      	ldr	r4, [r5, #4]
1000948c:	7223      	strb	r3, [r4, #8]
1000948e:	465b      	mov	r3, fp
10009490:	7263      	strb	r3, [r4, #9]
10009492:	4643      	mov	r3, r8
10009494:	021a      	lsls	r2, r3, #8
10009496:	465b      	mov	r3, fp
10009498:	431a      	orrs	r2, r3
1000949a:	6833      	ldr	r3, [r6, #0]
1000949c:	4694      	mov	ip, r2
1000949e:	0a19      	lsrs	r1, r3, #8
100094a0:	7461      	strb	r1, [r4, #17]
100094a2:	0e19      	lsrs	r1, r3, #24
100094a4:	74e1      	strb	r1, [r4, #19]
100094a6:	2145      	movs	r1, #69	; 0x45
100094a8:	7021      	strb	r1, [r4, #0]
100094aa:	4651      	mov	r1, sl
100094ac:	7061      	strb	r1, [r4, #1]
100094ae:	0209      	lsls	r1, r1, #8
100094b0:	468a      	mov	sl, r1
100094b2:	2145      	movs	r1, #69	; 0x45
100094b4:	4652      	mov	r2, sl
100094b6:	0c18      	lsrs	r0, r3, #16
100094b8:	7423      	strb	r3, [r4, #16]
100094ba:	041b      	lsls	r3, r3, #16
100094bc:	0c1b      	lsrs	r3, r3, #16
100094be:	181b      	adds	r3, r3, r0
100094c0:	4311      	orrs	r1, r2
100094c2:	18c9      	adds	r1, r1, r3
100094c4:	4662      	mov	r2, ip
100094c6:	4663      	mov	r3, ip
100094c8:	468b      	mov	fp, r1
100094ca:	021b      	lsls	r3, r3, #8
100094cc:	1212      	asrs	r2, r2, #8
100094ce:	431a      	orrs	r2, r3
100094d0:	74a0      	strb	r0, [r4, #18]
100094d2:	b292      	uxth	r2, r2
100094d4:	8928      	ldrh	r0, [r5, #8]
100094d6:	4493      	add	fp, r2
100094d8:	f7fd fe9e 	bl	10007218 <lwip_htons>
100094dc:	0a03      	lsrs	r3, r0, #8
100094de:	70e3      	strb	r3, [r4, #3]
100094e0:	464b      	mov	r3, r9
100094e2:	71a3      	strb	r3, [r4, #6]
100094e4:	71e3      	strb	r3, [r4, #7]
100094e6:	4b2f      	ldr	r3, [pc, #188]	; (100095a4 <ip4_output_if+0x160>)
100094e8:	70a0      	strb	r0, [r4, #2]
100094ea:	4483      	add	fp, r0
100094ec:	8818      	ldrh	r0, [r3, #0]
100094ee:	4699      	mov	r9, r3
100094f0:	f7fd fe92 	bl	10007218 <lwip_htons>
100094f4:	0a03      	lsrs	r3, r0, #8
100094f6:	7163      	strb	r3, [r4, #5]
100094f8:	464b      	mov	r3, r9
100094fa:	464a      	mov	r2, r9
100094fc:	881b      	ldrh	r3, [r3, #0]
100094fe:	7120      	strb	r0, [r4, #4]
10009500:	3301      	adds	r3, #1
10009502:	8013      	strh	r3, [r2, #0]
10009504:	683b      	ldr	r3, [r7, #0]
10009506:	4458      	add	r0, fp
10009508:	0a1a      	lsrs	r2, r3, #8
1000950a:	0e19      	lsrs	r1, r3, #24
1000950c:	7323      	strb	r3, [r4, #12]
1000950e:	7362      	strb	r2, [r4, #13]
10009510:	0c1a      	lsrs	r2, r3, #16
10009512:	041b      	lsls	r3, r3, #16
10009514:	0c1b      	lsrs	r3, r3, #16
10009516:	181b      	adds	r3, r3, r0
10009518:	73a2      	strb	r2, [r4, #14]
1000951a:	18d2      	adds	r2, r2, r3
1000951c:	0c13      	lsrs	r3, r2, #16
1000951e:	0412      	lsls	r2, r2, #16
10009520:	0c12      	lsrs	r2, r2, #16
10009522:	189b      	adds	r3, r3, r2
10009524:	0c1a      	lsrs	r2, r3, #16
10009526:	189b      	adds	r3, r3, r2
10009528:	43db      	mvns	r3, r3
1000952a:	b29a      	uxth	r2, r3
1000952c:	0a12      	lsrs	r2, r2, #8
1000952e:	73e1      	strb	r1, [r4, #15]
10009530:	72a3      	strb	r3, [r4, #10]
10009532:	72e2      	strb	r2, [r4, #11]
10009534:	4a1c      	ldr	r2, [pc, #112]	; (100095a8 <ip4_output_if+0x164>)
10009536:	8e13      	ldrh	r3, [r2, #48]	; 0x30
10009538:	3301      	adds	r3, #1
1000953a:	8613      	strh	r3, [r2, #48]	; 0x30
1000953c:	9b0e      	ldr	r3, [sp, #56]	; 0x38
1000953e:	8e1b      	ldrh	r3, [r3, #48]	; 0x30
10009540:	2b00      	cmp	r3, #0
10009542:	d002      	beq.n	1000954a <ip4_output_if+0x106>
10009544:	892a      	ldrh	r2, [r5, #8]
10009546:	429a      	cmp	r2, r3
10009548:	d81d      	bhi.n	10009586 <ip4_output_if+0x142>
1000954a:	9b0e      	ldr	r3, [sp, #56]	; 0x38
1000954c:	0032      	movs	r2, r6
1000954e:	0029      	movs	r1, r5
10009550:	695b      	ldr	r3, [r3, #20]
10009552:	980e      	ldr	r0, [sp, #56]	; 0x38
10009554:	4798      	blx	r3
10009556:	b003      	add	sp, #12
10009558:	bcf0      	pop	{r4, r5, r6, r7}
1000955a:	46bb      	mov	fp, r7
1000955c:	46b2      	mov	sl, r6
1000955e:	46a9      	mov	r9, r5
10009560:	46a0      	mov	r8, r4
10009562:	bdf0      	pop	{r4, r5, r6, r7, pc}
10009564:	8943      	ldrh	r3, [r0, #10]
10009566:	2b13      	cmp	r3, #19
10009568:	d913      	bls.n	10009592 <ip4_output_if+0x14e>
1000956a:	6869      	ldr	r1, [r5, #4]
1000956c:	ae01      	add	r6, sp, #4
1000956e:	7c4b      	ldrb	r3, [r1, #17]
10009570:	7c0a      	ldrb	r2, [r1, #16]
10009572:	021b      	lsls	r3, r3, #8
10009574:	4313      	orrs	r3, r2
10009576:	7c8a      	ldrb	r2, [r1, #18]
10009578:	0412      	lsls	r2, r2, #16
1000957a:	431a      	orrs	r2, r3
1000957c:	7ccb      	ldrb	r3, [r1, #19]
1000957e:	061b      	lsls	r3, r3, #24
10009580:	4313      	orrs	r3, r2
10009582:	9301      	str	r3, [sp, #4]
10009584:	e7d6      	b.n	10009534 <ip4_output_if+0xf0>
10009586:	0032      	movs	r2, r6
10009588:	0028      	movs	r0, r5
1000958a:	990e      	ldr	r1, [sp, #56]	; 0x38
1000958c:	f7ff fe6a 	bl	10009264 <ip4_frag>
10009590:	e7e1      	b.n	10009556 <ip4_output_if+0x112>
10009592:	2144      	movs	r1, #68	; 0x44
10009594:	2002      	movs	r0, #2
10009596:	4b04      	ldr	r3, [pc, #16]	; (100095a8 <ip4_output_if+0x164>)
10009598:	4240      	negs	r0, r0
1000959a:	5a5a      	ldrh	r2, [r3, r1]
1000959c:	3201      	adds	r2, #1
1000959e:	525a      	strh	r2, [r3, r1]
100095a0:	e7d9      	b.n	10009556 <ip4_output_if+0x112>
100095a2:	46c0      	nop			; (mov r8, r8)
100095a4:	2000adfa 	.word	0x2000adfa
100095a8:	200012f8 	.word	0x200012f8

100095ac <ip4_output_if_src>:
100095ac:	b5f0      	push	{r4, r5, r6, r7, lr}
100095ae:	464e      	mov	r6, r9
100095b0:	4645      	mov	r5, r8
100095b2:	46de      	mov	lr, fp
100095b4:	4657      	mov	r7, sl
100095b6:	b5e0      	push	{r5, r6, r7, lr}
100095b8:	b083      	sub	sp, #12
100095ba:	001d      	movs	r5, r3
100095bc:	ab0c      	add	r3, sp, #48	; 0x30
100095be:	781b      	ldrb	r3, [r3, #0]
100095c0:	0006      	movs	r6, r0
100095c2:	4699      	mov	r9, r3
100095c4:	ab0d      	add	r3, sp, #52	; 0x34
100095c6:	781b      	ldrb	r3, [r3, #0]
100095c8:	4688      	mov	r8, r1
100095ca:	1e17      	subs	r7, r2, #0
100095cc:	469b      	mov	fp, r3
100095ce:	d100      	bne.n	100095d2 <ip4_output_if_src+0x26>
100095d0:	e06e      	b.n	100096b0 <ip4_output_if_src+0x104>
100095d2:	2114      	movs	r1, #20
100095d4:	f7fe fa9e 	bl	10007b14 <pbuf_add_header>
100095d8:	4682      	mov	sl, r0
100095da:	2800      	cmp	r0, #0
100095dc:	d000      	beq.n	100095e0 <ip4_output_if_src+0x34>
100095de:	e081      	b.n	100096e4 <ip4_output_if_src+0x138>
100095e0:	465b      	mov	r3, fp
100095e2:	6874      	ldr	r4, [r6, #4]
100095e4:	7225      	strb	r5, [r4, #8]
100095e6:	7263      	strb	r3, [r4, #9]
100095e8:	022d      	lsls	r5, r5, #8
100095ea:	431d      	orrs	r5, r3
100095ec:	683b      	ldr	r3, [r7, #0]
100095ee:	0a1a      	lsrs	r2, r3, #8
100095f0:	7462      	strb	r2, [r4, #17]
100095f2:	0e1a      	lsrs	r2, r3, #24
100095f4:	74e2      	strb	r2, [r4, #19]
100095f6:	2245      	movs	r2, #69	; 0x45
100095f8:	7022      	strb	r2, [r4, #0]
100095fa:	464a      	mov	r2, r9
100095fc:	7062      	strb	r2, [r4, #1]
100095fe:	0210      	lsls	r0, r2, #8
10009600:	2245      	movs	r2, #69	; 0x45
10009602:	0c19      	lsrs	r1, r3, #16
10009604:	7423      	strb	r3, [r4, #16]
10009606:	041b      	lsls	r3, r3, #16
10009608:	0c1b      	lsrs	r3, r3, #16
1000960a:	185b      	adds	r3, r3, r1
1000960c:	4302      	orrs	r2, r0
1000960e:	18d2      	adds	r2, r2, r3
10009610:	022b      	lsls	r3, r5, #8
10009612:	122d      	asrs	r5, r5, #8
10009614:	74a1      	strb	r1, [r4, #18]
10009616:	431d      	orrs	r5, r3
10009618:	8930      	ldrh	r0, [r6, #8]
1000961a:	b2ad      	uxth	r5, r5
1000961c:	1955      	adds	r5, r2, r5
1000961e:	f7fd fdfb 	bl	10007218 <lwip_htons>
10009622:	0a03      	lsrs	r3, r0, #8
10009624:	70e3      	strb	r3, [r4, #3]
10009626:	4653      	mov	r3, sl
10009628:	71a3      	strb	r3, [r4, #6]
1000962a:	71e3      	strb	r3, [r4, #7]
1000962c:	4b31      	ldr	r3, [pc, #196]	; (100096f4 <ip4_output_if_src+0x148>)
1000962e:	70a0      	strb	r0, [r4, #2]
10009630:	1945      	adds	r5, r0, r5
10009632:	8818      	ldrh	r0, [r3, #0]
10009634:	469a      	mov	sl, r3
10009636:	f7fd fdef 	bl	10007218 <lwip_htons>
1000963a:	0a03      	lsrs	r3, r0, #8
1000963c:	7163      	strb	r3, [r4, #5]
1000963e:	4653      	mov	r3, sl
10009640:	4652      	mov	r2, sl
10009642:	881b      	ldrh	r3, [r3, #0]
10009644:	7120      	strb	r0, [r4, #4]
10009646:	3301      	adds	r3, #1
10009648:	8013      	strh	r3, [r2, #0]
1000964a:	4643      	mov	r3, r8
1000964c:	1940      	adds	r0, r0, r5
1000964e:	2b00      	cmp	r3, #0
10009650:	d03f      	beq.n	100096d2 <ip4_output_if_src+0x126>
10009652:	681b      	ldr	r3, [r3, #0]
10009654:	0a1a      	lsrs	r2, r3, #8
10009656:	0e19      	lsrs	r1, r3, #24
10009658:	7323      	strb	r3, [r4, #12]
1000965a:	7362      	strb	r2, [r4, #13]
1000965c:	0c1a      	lsrs	r2, r3, #16
1000965e:	041b      	lsls	r3, r3, #16
10009660:	0c1b      	lsrs	r3, r3, #16
10009662:	181b      	adds	r3, r3, r0
10009664:	18d3      	adds	r3, r2, r3
10009666:	73a2      	strb	r2, [r4, #14]
10009668:	0c1a      	lsrs	r2, r3, #16
1000966a:	041b      	lsls	r3, r3, #16
1000966c:	0c1b      	lsrs	r3, r3, #16
1000966e:	18d2      	adds	r2, r2, r3
10009670:	0c13      	lsrs	r3, r2, #16
10009672:	189b      	adds	r3, r3, r2
10009674:	43db      	mvns	r3, r3
10009676:	b29a      	uxth	r2, r3
10009678:	0a12      	lsrs	r2, r2, #8
1000967a:	73e1      	strb	r1, [r4, #15]
1000967c:	72a3      	strb	r3, [r4, #10]
1000967e:	72e2      	strb	r2, [r4, #11]
10009680:	4a1d      	ldr	r2, [pc, #116]	; (100096f8 <ip4_output_if_src+0x14c>)
10009682:	8e13      	ldrh	r3, [r2, #48]	; 0x30
10009684:	3301      	adds	r3, #1
10009686:	8613      	strh	r3, [r2, #48]	; 0x30
10009688:	9b0e      	ldr	r3, [sp, #56]	; 0x38
1000968a:	8e1b      	ldrh	r3, [r3, #48]	; 0x30
1000968c:	2b00      	cmp	r3, #0
1000968e:	d002      	beq.n	10009696 <ip4_output_if_src+0xea>
10009690:	8932      	ldrh	r2, [r6, #8]
10009692:	429a      	cmp	r2, r3
10009694:	d820      	bhi.n	100096d8 <ip4_output_if_src+0x12c>
10009696:	9b0e      	ldr	r3, [sp, #56]	; 0x38
10009698:	003a      	movs	r2, r7
1000969a:	0031      	movs	r1, r6
1000969c:	695b      	ldr	r3, [r3, #20]
1000969e:	980e      	ldr	r0, [sp, #56]	; 0x38
100096a0:	4798      	blx	r3
100096a2:	b003      	add	sp, #12
100096a4:	bcf0      	pop	{r4, r5, r6, r7}
100096a6:	46bb      	mov	fp, r7
100096a8:	46b2      	mov	sl, r6
100096aa:	46a9      	mov	r9, r5
100096ac:	46a0      	mov	r8, r4
100096ae:	bdf0      	pop	{r4, r5, r6, r7, pc}
100096b0:	8943      	ldrh	r3, [r0, #10]
100096b2:	2b13      	cmp	r3, #19
100096b4:	d916      	bls.n	100096e4 <ip4_output_if_src+0x138>
100096b6:	6841      	ldr	r1, [r0, #4]
100096b8:	af01      	add	r7, sp, #4
100096ba:	7c4b      	ldrb	r3, [r1, #17]
100096bc:	7c0a      	ldrb	r2, [r1, #16]
100096be:	021b      	lsls	r3, r3, #8
100096c0:	4313      	orrs	r3, r2
100096c2:	7c8a      	ldrb	r2, [r1, #18]
100096c4:	0412      	lsls	r2, r2, #16
100096c6:	431a      	orrs	r2, r3
100096c8:	7ccb      	ldrb	r3, [r1, #19]
100096ca:	061b      	lsls	r3, r3, #24
100096cc:	4313      	orrs	r3, r2
100096ce:	9301      	str	r3, [sp, #4]
100096d0:	e7d6      	b.n	10009680 <ip4_output_if_src+0xd4>
100096d2:	4b0a      	ldr	r3, [pc, #40]	; (100096fc <ip4_output_if_src+0x150>)
100096d4:	681b      	ldr	r3, [r3, #0]
100096d6:	e7bd      	b.n	10009654 <ip4_output_if_src+0xa8>
100096d8:	003a      	movs	r2, r7
100096da:	0030      	movs	r0, r6
100096dc:	990e      	ldr	r1, [sp, #56]	; 0x38
100096de:	f7ff fdc1 	bl	10009264 <ip4_frag>
100096e2:	e7de      	b.n	100096a2 <ip4_output_if_src+0xf6>
100096e4:	2144      	movs	r1, #68	; 0x44
100096e6:	2002      	movs	r0, #2
100096e8:	4b03      	ldr	r3, [pc, #12]	; (100096f8 <ip4_output_if_src+0x14c>)
100096ea:	4240      	negs	r0, r0
100096ec:	5a5a      	ldrh	r2, [r3, r1]
100096ee:	3201      	adds	r2, #1
100096f0:	525a      	strh	r2, [r3, r1]
100096f2:	e7d6      	b.n	100096a2 <ip4_output_if_src+0xf6>
100096f4:	2000adfa 	.word	0x2000adfa
100096f8:	200012f8 	.word	0x200012f8
100096fc:	1000a60c 	.word	0x1000a60c

10009700 <ethernet_output>:
10009700:	b5f8      	push	{r3, r4, r5, r6, r7, lr}
10009702:	46ce      	mov	lr, r9
10009704:	4647      	mov	r7, r8
10009706:	b580      	push	{r7, lr}
10009708:	4699      	mov	r9, r3
1000970a:	ab08      	add	r3, sp, #32
1000970c:	0007      	movs	r7, r0
1000970e:	8818      	ldrh	r0, [r3, #0]
10009710:	000e      	movs	r6, r1
10009712:	4690      	mov	r8, r2
10009714:	f7fd fd80 	bl	10007218 <lwip_htons>
10009718:	210e      	movs	r1, #14
1000971a:	0004      	movs	r4, r0
1000971c:	0030      	movs	r0, r6
1000971e:	f7fe f9f9 	bl	10007b14 <pbuf_add_header>
10009722:	2800      	cmp	r0, #0
10009724:	d115      	bne.n	10009752 <ethernet_output+0x52>
10009726:	6875      	ldr	r5, [r6, #4]
10009728:	2206      	movs	r2, #6
1000972a:	732c      	strb	r4, [r5, #12]
1000972c:	0a24      	lsrs	r4, r4, #8
1000972e:	4649      	mov	r1, r9
10009730:	0028      	movs	r0, r5
10009732:	736c      	strb	r4, [r5, #13]
10009734:	f7fd f96e 	bl	10006a14 <__wrap___aeabi_memcpy>
10009738:	4641      	mov	r1, r8
1000973a:	2206      	movs	r2, #6
1000973c:	1da8      	adds	r0, r5, #6
1000973e:	f7fd f969 	bl	10006a14 <__wrap___aeabi_memcpy>
10009742:	0031      	movs	r1, r6
10009744:	0038      	movs	r0, r7
10009746:	69bb      	ldr	r3, [r7, #24]
10009748:	4798      	blx	r3
1000974a:	bcc0      	pop	{r6, r7}
1000974c:	46b9      	mov	r9, r7
1000974e:	46b0      	mov	r8, r6
10009750:	bdf8      	pop	{r3, r4, r5, r6, r7, pc}
10009752:	2002      	movs	r0, #2
10009754:	4240      	negs	r0, r0
10009756:	e7f8      	b.n	1000974a <ethernet_output+0x4a>

10009758 <sys_arch_protect>:
10009758:	2000      	movs	r0, #0
1000975a:	4770      	bx	lr

1000975c <sys_arch_unprotect>:
1000975c:	4770      	bx	lr
1000975e:	46c0      	nop			; (mov r8, r8)

10009760 <memmove>:
10009760:	b5f0      	push	{r4, r5, r6, r7, lr}
10009762:	4288      	cmp	r0, r1
10009764:	d90a      	bls.n	1000977c <memmove+0x1c>
10009766:	188b      	adds	r3, r1, r2
10009768:	4298      	cmp	r0, r3
1000976a:	d207      	bcs.n	1000977c <memmove+0x1c>
1000976c:	1e53      	subs	r3, r2, #1
1000976e:	2a00      	cmp	r2, #0
10009770:	d003      	beq.n	1000977a <memmove+0x1a>
10009772:	5cca      	ldrb	r2, [r1, r3]
10009774:	54c2      	strb	r2, [r0, r3]
10009776:	3b01      	subs	r3, #1
10009778:	d2fb      	bcs.n	10009772 <memmove+0x12>
1000977a:	bdf0      	pop	{r4, r5, r6, r7, pc}
1000977c:	2a0f      	cmp	r2, #15
1000977e:	d80b      	bhi.n	10009798 <memmove+0x38>
10009780:	0005      	movs	r5, r0
10009782:	1e56      	subs	r6, r2, #1
10009784:	2a00      	cmp	r2, #0
10009786:	d0f8      	beq.n	1000977a <memmove+0x1a>
10009788:	2300      	movs	r3, #0
1000978a:	5ccc      	ldrb	r4, [r1, r3]
1000978c:	001a      	movs	r2, r3
1000978e:	54ec      	strb	r4, [r5, r3]
10009790:	3301      	adds	r3, #1
10009792:	4296      	cmp	r6, r2
10009794:	d1f9      	bne.n	1000978a <memmove+0x2a>
10009796:	e7f0      	b.n	1000977a <memmove+0x1a>
10009798:	2403      	movs	r4, #3
1000979a:	0003      	movs	r3, r0
1000979c:	0026      	movs	r6, r4
1000979e:	430b      	orrs	r3, r1
100097a0:	401e      	ands	r6, r3
100097a2:	421c      	tst	r4, r3
100097a4:	d12d      	bne.n	10009802 <memmove+0xa2>
100097a6:	0015      	movs	r5, r2
100097a8:	3d10      	subs	r5, #16
100097aa:	092d      	lsrs	r5, r5, #4
100097ac:	0003      	movs	r3, r0
100097ae:	000c      	movs	r4, r1
100097b0:	46ac      	mov	ip, r5
100097b2:	012f      	lsls	r7, r5, #4
100097b4:	183f      	adds	r7, r7, r0
100097b6:	6825      	ldr	r5, [r4, #0]
100097b8:	601d      	str	r5, [r3, #0]
100097ba:	6865      	ldr	r5, [r4, #4]
100097bc:	605d      	str	r5, [r3, #4]
100097be:	68a5      	ldr	r5, [r4, #8]
100097c0:	609d      	str	r5, [r3, #8]
100097c2:	68e5      	ldr	r5, [r4, #12]
100097c4:	3410      	adds	r4, #16
100097c6:	60dd      	str	r5, [r3, #12]
100097c8:	001d      	movs	r5, r3
100097ca:	3310      	adds	r3, #16
100097cc:	42bd      	cmp	r5, r7
100097ce:	d1f2      	bne.n	100097b6 <memmove+0x56>
100097d0:	4665      	mov	r5, ip
100097d2:	230f      	movs	r3, #15
100097d4:	240c      	movs	r4, #12
100097d6:	3501      	adds	r5, #1
100097d8:	012d      	lsls	r5, r5, #4
100097da:	1949      	adds	r1, r1, r5
100097dc:	4013      	ands	r3, r2
100097de:	1945      	adds	r5, r0, r5
100097e0:	4214      	tst	r4, r2
100097e2:	d011      	beq.n	10009808 <memmove+0xa8>
100097e4:	598c      	ldr	r4, [r1, r6]
100097e6:	51ac      	str	r4, [r5, r6]
100097e8:	3604      	adds	r6, #4
100097ea:	1b9c      	subs	r4, r3, r6
100097ec:	2c03      	cmp	r4, #3
100097ee:	d8f9      	bhi.n	100097e4 <memmove+0x84>
100097f0:	3b04      	subs	r3, #4
100097f2:	089b      	lsrs	r3, r3, #2
100097f4:	3301      	adds	r3, #1
100097f6:	009b      	lsls	r3, r3, #2
100097f8:	18ed      	adds	r5, r5, r3
100097fa:	18c9      	adds	r1, r1, r3
100097fc:	2303      	movs	r3, #3
100097fe:	401a      	ands	r2, r3
10009800:	e7bf      	b.n	10009782 <memmove+0x22>
10009802:	0005      	movs	r5, r0
10009804:	1e56      	subs	r6, r2, #1
10009806:	e7bf      	b.n	10009788 <memmove+0x28>
10009808:	001a      	movs	r2, r3
1000980a:	e7ba      	b.n	10009782 <memmove+0x22>

1000980c <strncmp>:
1000980c:	b530      	push	{r4, r5, lr}
1000980e:	2a00      	cmp	r2, #0
10009810:	d026      	beq.n	10009860 <strncmp+0x54>
10009812:	0003      	movs	r3, r0
10009814:	430b      	orrs	r3, r1
10009816:	079b      	lsls	r3, r3, #30
10009818:	d124      	bne.n	10009864 <strncmp+0x58>
1000981a:	2a03      	cmp	r2, #3
1000981c:	d922      	bls.n	10009864 <strncmp+0x58>
1000981e:	4d16      	ldr	r5, [pc, #88]	; (10009878 <strncmp+0x6c>)
10009820:	e00b      	b.n	1000983a <strncmp+0x2e>
10009822:	3a04      	subs	r2, #4
10009824:	2a00      	cmp	r2, #0
10009826:	d01b      	beq.n	10009860 <strncmp+0x54>
10009828:	4c14      	ldr	r4, [pc, #80]	; (1000987c <strncmp+0x70>)
1000982a:	191c      	adds	r4, r3, r4
1000982c:	439c      	bics	r4, r3
1000982e:	422c      	tst	r4, r5
10009830:	d116      	bne.n	10009860 <strncmp+0x54>
10009832:	3004      	adds	r0, #4
10009834:	3104      	adds	r1, #4
10009836:	2a03      	cmp	r2, #3
10009838:	d914      	bls.n	10009864 <strncmp+0x58>
1000983a:	6803      	ldr	r3, [r0, #0]
1000983c:	680c      	ldr	r4, [r1, #0]
1000983e:	42a3      	cmp	r3, r4
10009840:	d0ef      	beq.n	10009822 <strncmp+0x16>
10009842:	7804      	ldrb	r4, [r0, #0]
10009844:	780d      	ldrb	r5, [r1, #0]
10009846:	42ac      	cmp	r4, r5
10009848:	d113      	bne.n	10009872 <strncmp+0x66>
1000984a:	2301      	movs	r3, #1
1000984c:	e006      	b.n	1000985c <strncmp+0x50>
1000984e:	5cc4      	ldrb	r4, [r0, r3]
10009850:	5ccd      	ldrb	r5, [r1, r3]
10009852:	42ac      	cmp	r4, r5
10009854:	d10d      	bne.n	10009872 <strncmp+0x66>
10009856:	3301      	adds	r3, #1
10009858:	4293      	cmp	r3, r2
1000985a:	d001      	beq.n	10009860 <strncmp+0x54>
1000985c:	2c00      	cmp	r4, #0
1000985e:	d1f6      	bne.n	1000984e <strncmp+0x42>
10009860:	2000      	movs	r0, #0
10009862:	bd30      	pop	{r4, r5, pc}
10009864:	7804      	ldrb	r4, [r0, #0]
10009866:	780d      	ldrb	r5, [r1, #0]
10009868:	42a5      	cmp	r5, r4
1000986a:	d102      	bne.n	10009872 <strncmp+0x66>
1000986c:	2a01      	cmp	r2, #1
1000986e:	d1ec      	bne.n	1000984a <strncmp+0x3e>
10009870:	e7f6      	b.n	10009860 <strncmp+0x54>
10009872:	1b60      	subs	r0, r4, r5
10009874:	e7f5      	b.n	10009862 <strncmp+0x56>
10009876:	46c0      	nop			; (mov r8, r8)
10009878:	80808080 	.word	0x80808080
1000987c:	fefefeff 	.word	0xfefefeff

10009880 <strlen>:
10009880:	b510      	push	{r4, lr}
10009882:	0783      	lsls	r3, r0, #30
10009884:	d00a      	beq.n	1000989c <strlen+0x1c>
10009886:	0003      	movs	r3, r0
10009888:	2103      	movs	r1, #3
1000988a:	e002      	b.n	10009892 <strlen+0x12>
1000988c:	3301      	adds	r3, #1
1000988e:	420b      	tst	r3, r1
10009890:	d005      	beq.n	1000989e <strlen+0x1e>
10009892:	781a      	ldrb	r2, [r3, #0]
10009894:	2a00      	cmp	r2, #0
10009896:	d1f9      	bne.n	1000988c <strlen+0xc>
10009898:	1a18      	subs	r0, r3, r0
1000989a:	bd10      	pop	{r4, pc}
1000989c:	0003      	movs	r3, r0
1000989e:	6819      	ldr	r1, [r3, #0]
100098a0:	4a0c      	ldr	r2, [pc, #48]	; (100098d4 <strlen+0x54>)
100098a2:	4c0d      	ldr	r4, [pc, #52]	; (100098d8 <strlen+0x58>)
100098a4:	188a      	adds	r2, r1, r2
100098a6:	438a      	bics	r2, r1
100098a8:	4222      	tst	r2, r4
100098aa:	d10f      	bne.n	100098cc <strlen+0x4c>
100098ac:	6859      	ldr	r1, [r3, #4]
100098ae:	4a09      	ldr	r2, [pc, #36]	; (100098d4 <strlen+0x54>)
100098b0:	3304      	adds	r3, #4
100098b2:	188a      	adds	r2, r1, r2
100098b4:	438a      	bics	r2, r1
100098b6:	4222      	tst	r2, r4
100098b8:	d108      	bne.n	100098cc <strlen+0x4c>
100098ba:	6859      	ldr	r1, [r3, #4]
100098bc:	4a05      	ldr	r2, [pc, #20]	; (100098d4 <strlen+0x54>)
100098be:	3304      	adds	r3, #4
100098c0:	188a      	adds	r2, r1, r2
100098c2:	438a      	bics	r2, r1
100098c4:	4222      	tst	r2, r4
100098c6:	d0f1      	beq.n	100098ac <strlen+0x2c>
100098c8:	e000      	b.n	100098cc <strlen+0x4c>
100098ca:	3301      	adds	r3, #1
100098cc:	781a      	ldrb	r2, [r3, #0]
100098ce:	2a00      	cmp	r2, #0
100098d0:	d1fb      	bne.n	100098ca <strlen+0x4a>
100098d2:	e7e1      	b.n	10009898 <strlen+0x18>
100098d4:	fefefeff 	.word	0xfefefeff
100098d8:	80808080 	.word	0x80808080

100098dc <_fini>:
100098dc:	b5f8      	push	{r3, r4, r5, r6, r7, lr}
100098de:	46c0      	nop			; (mov r8, r8)

100098e0 <__flash_do_cmd_veneer>:
100098e0:	b401      	push	{r0}
100098e2:	4802      	ldr	r0, [pc, #8]	; (100098ec <__flash_do_cmd_veneer+0xc>)
100098e4:	4684      	mov	ip, r0
100098e6:	bc01      	pop	{r0}
100098e8:	4760      	bx	ip
100098ea:	bf00      	nop
100098ec:	20000139 	.word	0x20000139

100098f0 <__mutex_exit_veneer>:
100098f0:	b401      	push	{r0}
100098f2:	4802      	ldr	r0, [pc, #8]	; (100098fc <__mutex_exit_veneer+0xc>)
100098f4:	4684      	mov	ip, r0
100098f6:	bc01      	pop	{r0}
100098f8:	4760      	bx	ip
100098fa:	bf00      	nop
100098fc:	20000355 	.word	0x20000355

10009900 <____aeabi_ldiv0_veneer>:
10009900:	b401      	push	{r0}
10009902:	4802      	ldr	r0, [pc, #8]	; (1000990c <____aeabi_ldiv0_veneer+0xc>)
10009904:	4684      	mov	ip, r0
10009906:	bc01      	pop	{r0}
10009908:	4760      	bx	ip
1000990a:	bf00      	nop
1000990c:	200003c1 	.word	0x200003c1

10009910 <____aeabi_idiv0_veneer>:
10009910:	b401      	push	{r0}
10009912:	4802      	ldr	r0, [pc, #8]	; (1000991c <____aeabi_idiv0_veneer+0xc>)
10009914:	4684      	mov	ip, r0
10009916:	bc01      	pop	{r0}
10009918:	4760      	bx	ip
1000991a:	bf00      	nop
1000991c:	200003c1 	.word	0x200003c1

10009920 <__recursive_mutex_enter_blocking_veneer>:
10009920:	b401      	push	{r0}
10009922:	4802      	ldr	r0, [pc, #8]	; (1000992c <__recursive_mutex_enter_blocking_veneer+0xc>)
10009924:	4684      	mov	ip, r0
10009926:	bc01      	pop	{r0}
10009928:	4760      	bx	ip
1000992a:	bf00      	nop
1000992c:	200002bd 	.word	0x200002bd

10009930 <__mutex_try_enter_veneer>:
10009930:	b401      	push	{r0}
10009932:	4802      	ldr	r0, [pc, #8]	; (1000993c <__mutex_try_enter_veneer+0xc>)
10009934:	4684      	mov	ip, r0
10009936:	bc01      	pop	{r0}
10009938:	4760      	bx	ip
1000993a:	bf00      	nop
1000993c:	20000311 	.word	0x20000311

10009940 <__sem_acquire_timeout_us_veneer>:
10009940:	b401      	push	{r0}
10009942:	4802      	ldr	r0, [pc, #8]	; (1000994c <__sem_acquire_timeout_us_veneer+0xc>)
10009944:	4684      	mov	ip, r0
10009946:	bc01      	pop	{r0}
10009948:	4760      	bx	ip
1000994a:	bf00      	nop
1000994c:	200001fd 	.word	0x200001fd

10009950 <__recursive_mutex_exit_veneer>:
10009950:	b401      	push	{r0}
10009952:	4802      	ldr	r0, [pc, #8]	; (1000995c <__recursive_mutex_exit_veneer+0xc>)
10009954:	4684      	mov	ip, r0
10009956:	bc01      	pop	{r0}
10009958:	4760      	bx	ip
1000995a:	bf00      	nop
1000995c:	2000037d 	.word	0x2000037d

10009960 <__mutex_enter_blocking_veneer>:
10009960:	b401      	push	{r0}
10009962:	4802      	ldr	r0, [pc, #8]	; (1000996c <__mutex_enter_blocking_veneer+0xc>)
10009964:	4684      	mov	ip, r0
10009966:	bc01      	pop	{r0}
10009968:	4760      	bx	ip
1000996a:	bf00      	nop
1000996c:	20000275 	.word	0x20000275

Disassembly of section .data:

200000c0 <flash_init_boot2_copyout>:
200000c0:	b510      	push	{r4, lr}
200000c2:	4c08      	ldr	r4, [pc, #32]	; (200000e4 <flash_init_boot2_copyout+0x24>)
200000c4:	7823      	ldrb	r3, [r4, #0]
200000c6:	2b00      	cmp	r3, #0
200000c8:	d10a      	bne.n	200000e0 <flash_init_boot2_copyout+0x20>
200000ca:	2380      	movs	r3, #128	; 0x80
200000cc:	4806      	ldr	r0, [pc, #24]	; (200000e8 <flash_init_boot2_copyout+0x28>)
200000ce:	4907      	ldr	r1, [pc, #28]	; (200000ec <flash_init_boot2_copyout+0x2c>)
200000d0:	055b      	lsls	r3, r3, #21
200000d2:	681a      	ldr	r2, [r3, #0]
200000d4:	50c2      	str	r2, [r0, r3]
200000d6:	3304      	adds	r3, #4
200000d8:	428b      	cmp	r3, r1
200000da:	d1fa      	bne.n	200000d2 <flash_init_boot2_copyout+0x12>
200000dc:	2301      	movs	r3, #1
200000de:	7023      	strb	r3, [r4, #0]
200000e0:	bd10      	pop	{r4, pc}
200000e2:	46c0      	nop			; (mov r8, r8)
200000e4:	2000adfe 	.word	0x2000adfe
200000e8:	100007c0 	.word	0x100007c0
200000ec:	10000100 	.word	0x10000100

200000f0 <flash_enable_xip_via_boot2>:
200000f0:	b510      	push	{r4, lr}
200000f2:	4b02      	ldr	r3, [pc, #8]	; (200000fc <flash_enable_xip_via_boot2+0xc>)
200000f4:	3301      	adds	r3, #1
200000f6:	4798      	blx	r3
200000f8:	bd10      	pop	{r4, pc}
200000fa:	46c0      	nop			; (mov r8, r8)
200000fc:	200007c0 	.word	0x200007c0

20000100 <flash_cs_force.constprop.0>:
20000100:	4b03      	ldr	r3, [pc, #12]	; (20000110 <flash_cs_force.constprop.0+0x10>)
20000102:	681a      	ldr	r2, [r3, #0]
20000104:	23c0      	movs	r3, #192	; 0xc0
20000106:	009b      	lsls	r3, r3, #2
20000108:	4393      	bics	r3, r2
2000010a:	4a02      	ldr	r2, [pc, #8]	; (20000114 <flash_cs_force.constprop.0+0x14>)
2000010c:	6013      	str	r3, [r2, #0]
2000010e:	4770      	bx	lr
20000110:	4001800c 	.word	0x4001800c
20000114:	4001900c 	.word	0x4001900c

20000118 <flash_cs_force.constprop.1>:
20000118:	4b05      	ldr	r3, [pc, #20]	; (20000130 <flash_cs_force.constprop.1+0x18>)
2000011a:	681a      	ldr	r2, [r3, #0]
2000011c:	2380      	movs	r3, #128	; 0x80
2000011e:	009b      	lsls	r3, r3, #2
20000120:	4053      	eors	r3, r2
20000122:	22c0      	movs	r2, #192	; 0xc0
20000124:	0092      	lsls	r2, r2, #2
20000126:	4013      	ands	r3, r2
20000128:	4a02      	ldr	r2, [pc, #8]	; (20000134 <flash_cs_force.constprop.1+0x1c>)
2000012a:	6013      	str	r3, [r2, #0]
2000012c:	4770      	bx	lr
2000012e:	46c0      	nop			; (mov r8, r8)
20000130:	4001800c 	.word	0x4001800c
20000134:	4001900c 	.word	0x4001900c

20000138 <flash_do_cmd>:
20000138:	2314      	movs	r3, #20
2000013a:	b5f0      	push	{r4, r5, r6, r7, lr}
2000013c:	46d6      	mov	lr, sl
2000013e:	464f      	mov	r7, r9
20000140:	4646      	mov	r6, r8
20000142:	469a      	mov	sl, r3
20000144:	4681      	mov	r9, r0
20000146:	8818      	ldrh	r0, [r3, #0]
20000148:	3304      	adds	r3, #4
2000014a:	b5c0      	push	{r6, r7, lr}
2000014c:	4698      	mov	r8, r3
2000014e:	000e      	movs	r6, r1
20000150:	881b      	ldrh	r3, [r3, #0]
20000152:	4927      	ldr	r1, [pc, #156]	; (200001f0 <flash_do_cmd+0xb8>)
20000154:	0014      	movs	r4, r2
20000156:	4798      	blx	r3
20000158:	4653      	mov	r3, sl
2000015a:	0007      	movs	r7, r0
2000015c:	8818      	ldrh	r0, [r3, #0]
2000015e:	4643      	mov	r3, r8
20000160:	4924      	ldr	r1, [pc, #144]	; (200001f4 <flash_do_cmd+0xbc>)
20000162:	881b      	ldrh	r3, [r3, #0]
20000164:	4798      	blx	r3
20000166:	4653      	mov	r3, sl
20000168:	0005      	movs	r5, r0
2000016a:	8818      	ldrh	r0, [r3, #0]
2000016c:	4643      	mov	r3, r8
2000016e:	4922      	ldr	r1, [pc, #136]	; (200001f8 <flash_do_cmd+0xc0>)
20000170:	881b      	ldrh	r3, [r3, #0]
20000172:	4798      	blx	r3
20000174:	4680      	mov	r8, r0
20000176:	f7ff ffa3 	bl	200000c0 <flash_init_boot2_copyout>
2000017a:	47b8      	blx	r7
2000017c:	47a8      	blx	r5
2000017e:	f7ff ffcb 	bl	20000118 <flash_cs_force.constprop.1>
20000182:	2c00      	cmp	r4, #0
20000184:	d01b      	beq.n	200001be <flash_do_cmd+0x86>
20000186:	21c0      	movs	r1, #192	; 0xc0
20000188:	0022      	movs	r2, r4
2000018a:	2708      	movs	r7, #8
2000018c:	2002      	movs	r0, #2
2000018e:	0549      	lsls	r1, r1, #21
20000190:	003d      	movs	r5, r7
20000192:	6a8b      	ldr	r3, [r1, #40]	; 0x28
20000194:	401d      	ands	r5, r3
20000196:	4218      	tst	r0, r3
20000198:	d00b      	beq.n	200001b2 <flash_do_cmd+0x7a>
2000019a:	2c00      	cmp	r4, #0
2000019c:	d009      	beq.n	200001b2 <flash_do_cmd+0x7a>
2000019e:	1b13      	subs	r3, r2, r4
200001a0:	2b0d      	cmp	r3, #13
200001a2:	d81f      	bhi.n	200001e4 <flash_do_cmd+0xac>
200001a4:	464b      	mov	r3, r9
200001a6:	781b      	ldrb	r3, [r3, #0]
200001a8:	3c01      	subs	r4, #1
200001aa:	660b      	str	r3, [r1, #96]	; 0x60
200001ac:	2301      	movs	r3, #1
200001ae:	469c      	mov	ip, r3
200001b0:	44e1      	add	r9, ip
200001b2:	0023      	movs	r3, r4
200001b4:	2d00      	cmp	r5, #0
200001b6:	d10c      	bne.n	200001d2 <flash_do_cmd+0x9a>
200001b8:	4313      	orrs	r3, r2
200001ba:	2b00      	cmp	r3, #0
200001bc:	d1e8      	bne.n	20000190 <flash_do_cmd+0x58>
200001be:	f7ff ff9f 	bl	20000100 <flash_cs_force.constprop.0>
200001c2:	47c0      	blx	r8
200001c4:	f7ff ff94 	bl	200000f0 <flash_enable_xip_via_boot2>
200001c8:	bce0      	pop	{r5, r6, r7}
200001ca:	46ba      	mov	sl, r7
200001cc:	46b1      	mov	r9, r6
200001ce:	46a8      	mov	r8, r5
200001d0:	bdf0      	pop	{r4, r5, r6, r7, pc}
200001d2:	2a00      	cmp	r2, #0
200001d4:	d0f1      	beq.n	200001ba <flash_do_cmd+0x82>
200001d6:	6e0b      	ldr	r3, [r1, #96]	; 0x60
200001d8:	3a01      	subs	r2, #1
200001da:	7033      	strb	r3, [r6, #0]
200001dc:	0013      	movs	r3, r2
200001de:	3601      	adds	r6, #1
200001e0:	4323      	orrs	r3, r4
200001e2:	e7ea      	b.n	200001ba <flash_do_cmd+0x82>
200001e4:	2d00      	cmp	r5, #0
200001e6:	d0d3      	beq.n	20000190 <flash_do_cmd+0x58>
200001e8:	2a00      	cmp	r2, #0
200001ea:	d0d1      	beq.n	20000190 <flash_do_cmd+0x58>
200001ec:	e7f3      	b.n	200001d6 <flash_do_cmd+0x9e>
200001ee:	46c0      	nop			; (mov r8, r8)
200001f0:	00004649 	.word	0x00004649
200001f4:	00005845 	.word	0x00005845
200001f8:	00004346 	.word	0x00004346

200001fc <sem_acquire_timeout_us>:
200001fc:	b5f8      	push	{r3, r4, r5, r6, r7, lr}
200001fe:	000d      	movs	r5, r1
20000200:	0004      	movs	r4, r0
20000202:	f000 f8e9 	bl	200003d8 <__time_us_64_veneer>
20000206:	002e      	movs	r6, r5
20000208:	0002      	movs	r2, r0
2000020a:	000b      	movs	r3, r1
2000020c:	2700      	movs	r7, #0
2000020e:	18b6      	adds	r6, r6, r2
20000210:	415f      	adcs	r7, r3
20000212:	42b9      	cmp	r1, r7
20000214:	d828      	bhi.n	20000268 <sem_acquire_timeout_us+0x6c>
20000216:	d025      	beq.n	20000264 <sem_acquire_timeout_us+0x68>
20000218:	2500      	movs	r5, #0
2000021a:	e00b      	b.n	20000234 <sem_acquire_timeout_us+0x38>
2000021c:	6823      	ldr	r3, [r4, #0]
2000021e:	f3bf 8f5f 	dmb	sy
20000222:	601d      	str	r5, [r3, #0]
20000224:	f381 8810 	msr	PRIMASK, r1
20000228:	0030      	movs	r0, r6
2000022a:	0039      	movs	r1, r7
2000022c:	f000 f8cc 	bl	200003c8 <__best_effort_wfe_or_timeout_veneer>
20000230:	2800      	cmp	r0, #0
20000232:	d11d      	bne.n	20000270 <sem_acquire_timeout_us+0x74>
20000234:	6822      	ldr	r2, [r4, #0]
20000236:	f3ef 8110 	mrs	r1, PRIMASK
2000023a:	b672      	cpsid	i
2000023c:	6813      	ldr	r3, [r2, #0]
2000023e:	2b00      	cmp	r3, #0
20000240:	d0fc      	beq.n	2000023c <sem_acquire_timeout_us+0x40>
20000242:	f3bf 8f5f 	dmb	sy
20000246:	2204      	movs	r2, #4
20000248:	5ea3      	ldrsh	r3, [r4, r2]
2000024a:	2b00      	cmp	r3, #0
2000024c:	dde6      	ble.n	2000021c <sem_acquire_timeout_us+0x20>
2000024e:	3b01      	subs	r3, #1
20000250:	80a3      	strh	r3, [r4, #4]
20000252:	6823      	ldr	r3, [r4, #0]
20000254:	f3bf 8f5f 	dmb	sy
20000258:	2200      	movs	r2, #0
2000025a:	601a      	str	r2, [r3, #0]
2000025c:	f381 8810 	msr	PRIMASK, r1
20000260:	2001      	movs	r0, #1
20000262:	bdf8      	pop	{r3, r4, r5, r6, r7, pc}
20000264:	42b0      	cmp	r0, r6
20000266:	d9d7      	bls.n	20000218 <sem_acquire_timeout_us+0x1c>
20000268:	2601      	movs	r6, #1
2000026a:	4276      	negs	r6, r6
2000026c:	17f7      	asrs	r7, r6, #31
2000026e:	e7d3      	b.n	20000218 <sem_acquire_timeout_us+0x1c>
20000270:	2000      	movs	r0, #0
20000272:	e7f6      	b.n	20000262 <sem_acquire_timeout_us+0x66>

20000274 <mutex_enter_blocking>:
20000274:	23d0      	movs	r3, #208	; 0xd0
20000276:	b530      	push	{r4, r5, lr}
20000278:	2500      	movs	r5, #0
2000027a:	061b      	lsls	r3, r3, #24
2000027c:	2400      	movs	r4, #0
2000027e:	575d      	ldrsb	r5, [r3, r5]
20000280:	e006      	b.n	20000290 <mutex_enter_blocking+0x1c>
20000282:	6803      	ldr	r3, [r0, #0]
20000284:	f3bf 8f5f 	dmb	sy
20000288:	601c      	str	r4, [r3, #0]
2000028a:	f381 8810 	msr	PRIMASK, r1
2000028e:	bf20      	wfe
20000290:	6802      	ldr	r2, [r0, #0]
20000292:	f3ef 8110 	mrs	r1, PRIMASK
20000296:	b672      	cpsid	i
20000298:	6813      	ldr	r3, [r2, #0]
2000029a:	2b00      	cmp	r3, #0
2000029c:	d0fc      	beq.n	20000298 <mutex_enter_blocking+0x24>
2000029e:	f3bf 8f5f 	dmb	sy
200002a2:	7903      	ldrb	r3, [r0, #4]
200002a4:	2b7f      	cmp	r3, #127	; 0x7f
200002a6:	d9ec      	bls.n	20000282 <mutex_enter_blocking+0xe>
200002a8:	7105      	strb	r5, [r0, #4]
200002aa:	6803      	ldr	r3, [r0, #0]
200002ac:	f3bf 8f5f 	dmb	sy
200002b0:	2200      	movs	r2, #0
200002b2:	601a      	str	r2, [r3, #0]
200002b4:	f381 8810 	msr	PRIMASK, r1
200002b8:	bd30      	pop	{r4, r5, pc}
200002ba:	46c0      	nop			; (mov r8, r8)

200002bc <recursive_mutex_enter_blocking>:
200002bc:	23d0      	movs	r3, #208	; 0xd0
200002be:	b530      	push	{r4, r5, lr}
200002c0:	2400      	movs	r4, #0
200002c2:	061b      	lsls	r3, r3, #24
200002c4:	2500      	movs	r5, #0
200002c6:	571c      	ldrsb	r4, [r3, r4]
200002c8:	e008      	b.n	200002dc <recursive_mutex_enter_blocking+0x20>
200002ca:	2b00      	cmp	r3, #0
200002cc:	db13      	blt.n	200002f6 <recursive_mutex_enter_blocking+0x3a>
200002ce:	6803      	ldr	r3, [r0, #0]
200002d0:	f3bf 8f5f 	dmb	sy
200002d4:	601d      	str	r5, [r3, #0]
200002d6:	f381 8810 	msr	PRIMASK, r1
200002da:	bf20      	wfe
200002dc:	6802      	ldr	r2, [r0, #0]
200002de:	f3ef 8110 	mrs	r1, PRIMASK
200002e2:	b672      	cpsid	i
200002e4:	6813      	ldr	r3, [r2, #0]
200002e6:	2b00      	cmp	r3, #0
200002e8:	d0fc      	beq.n	200002e4 <recursive_mutex_enter_blocking+0x28>
200002ea:	f3bf 8f5f 	dmb	sy
200002ee:	2304      	movs	r3, #4
200002f0:	56c3      	ldrsb	r3, [r0, r3]
200002f2:	42a3      	cmp	r3, r4
200002f4:	d1e9      	bne.n	200002ca <recursive_mutex_enter_blocking+0xe>
200002f6:	7943      	ldrb	r3, [r0, #5]
200002f8:	7104      	strb	r4, [r0, #4]
200002fa:	3301      	adds	r3, #1
200002fc:	7143      	strb	r3, [r0, #5]
200002fe:	6803      	ldr	r3, [r0, #0]
20000300:	f3bf 8f5f 	dmb	sy
20000304:	2200      	movs	r2, #0
20000306:	601a      	str	r2, [r3, #0]
20000308:	f381 8810 	msr	PRIMASK, r1
2000030c:	bd30      	pop	{r4, r5, pc}
2000030e:	46c0      	nop			; (mov r8, r8)

20000310 <mutex_try_enter>:
20000310:	0003      	movs	r3, r0
20000312:	6800      	ldr	r0, [r0, #0]
20000314:	f3ef 8c10 	mrs	ip, PRIMASK
20000318:	b672      	cpsid	i
2000031a:	6802      	ldr	r2, [r0, #0]
2000031c:	2a00      	cmp	r2, #0
2000031e:	d0fc      	beq.n	2000031a <mutex_try_enter+0xa>
20000320:	f3bf 8f5f 	dmb	sy
20000324:	2204      	movs	r2, #4
20000326:	569a      	ldrsb	r2, [r3, r2]
20000328:	2a00      	cmp	r2, #0
2000032a:	db0b      	blt.n	20000344 <mutex_try_enter+0x34>
2000032c:	2900      	cmp	r1, #0
2000032e:	d00f      	beq.n	20000350 <mutex_try_enter+0x40>
20000330:	2000      	movs	r0, #0
20000332:	600a      	str	r2, [r1, #0]
20000334:	681b      	ldr	r3, [r3, #0]
20000336:	f3bf 8f5f 	dmb	sy
2000033a:	2200      	movs	r2, #0
2000033c:	601a      	str	r2, [r3, #0]
2000033e:	f38c 8810 	msr	PRIMASK, ip
20000342:	4770      	bx	lr
20000344:	22d0      	movs	r2, #208	; 0xd0
20000346:	0612      	lsls	r2, r2, #24
20000348:	6812      	ldr	r2, [r2, #0]
2000034a:	2001      	movs	r0, #1
2000034c:	711a      	strb	r2, [r3, #4]
2000034e:	e7f1      	b.n	20000334 <mutex_try_enter+0x24>
20000350:	2000      	movs	r0, #0
20000352:	e7ef      	b.n	20000334 <mutex_try_enter+0x24>

20000354 <mutex_exit>:
20000354:	6802      	ldr	r2, [r0, #0]
20000356:	f3ef 8110 	mrs	r1, PRIMASK
2000035a:	b672      	cpsid	i
2000035c:	6813      	ldr	r3, [r2, #0]
2000035e:	2b00      	cmp	r3, #0
20000360:	d0fc      	beq.n	2000035c <mutex_exit+0x8>
20000362:	f3bf 8f5f 	dmb	sy
20000366:	23ff      	movs	r3, #255	; 0xff
20000368:	7103      	strb	r3, [r0, #4]
2000036a:	6803      	ldr	r3, [r0, #0]
2000036c:	f3bf 8f5f 	dmb	sy
20000370:	2200      	movs	r2, #0
20000372:	601a      	str	r2, [r3, #0]
20000374:	f381 8810 	msr	PRIMASK, r1
20000378:	bf40      	sev
2000037a:	4770      	bx	lr

2000037c <recursive_mutex_exit>:
2000037c:	6802      	ldr	r2, [r0, #0]
2000037e:	f3ef 8110 	mrs	r1, PRIMASK
20000382:	b672      	cpsid	i
20000384:	6813      	ldr	r3, [r2, #0]
20000386:	2b00      	cmp	r3, #0
20000388:	d0fc      	beq.n	20000384 <recursive_mutex_exit+0x8>
2000038a:	f3bf 8f5f 	dmb	sy
2000038e:	7943      	ldrb	r3, [r0, #5]
20000390:	3b01      	subs	r3, #1
20000392:	b2db      	uxtb	r3, r3
20000394:	7143      	strb	r3, [r0, #5]
20000396:	2b00      	cmp	r3, #0
20000398:	d109      	bne.n	200003ae <recursive_mutex_exit+0x32>
2000039a:	22ff      	movs	r2, #255	; 0xff
2000039c:	7102      	strb	r2, [r0, #4]
2000039e:	6802      	ldr	r2, [r0, #0]
200003a0:	f3bf 8f5f 	dmb	sy
200003a4:	6013      	str	r3, [r2, #0]
200003a6:	f381 8810 	msr	PRIMASK, r1
200003aa:	bf40      	sev
200003ac:	4770      	bx	lr
200003ae:	6803      	ldr	r3, [r0, #0]
200003b0:	f3bf 8f5f 	dmb	sy
200003b4:	2200      	movs	r2, #0
200003b6:	601a      	str	r2, [r3, #0]
200003b8:	f381 8810 	msr	PRIMASK, r1
200003bc:	e7f6      	b.n	200003ac <recursive_mutex_exit+0x30>
200003be:	46c0      	nop			; (mov r8, r8)

200003c0 <__aeabi_idiv0>:
200003c0:	4770      	bx	lr
200003c2:	46c0      	nop			; (mov r8, r8)
200003c4:	0000      	movs	r0, r0
	...

200003c8 <__best_effort_wfe_or_timeout_veneer>:
200003c8:	b401      	push	{r0}
200003ca:	4802      	ldr	r0, [pc, #8]	; (200003d4 <__best_effort_wfe_or_timeout_veneer+0xc>)
200003cc:	4684      	mov	ip, r0
200003ce:	bc01      	pop	{r0}
200003d0:	4760      	bx	ip
200003d2:	bf00      	nop
200003d4:	10003f49 	.word	0x10003f49

200003d8 <__time_us_64_veneer>:
200003d8:	b401      	push	{r0}
200003da:	4802      	ldr	r0, [pc, #8]	; (200003e4 <__time_us_64_veneer+0xc>)
200003dc:	4684      	mov	ip, r0
200003de:	bc01      	pop	{r0}
200003e0:	4760      	bx	ip
200003e2:	bf00      	nop
200003e4:	100040d9 	.word	0x100040d9

200003e8 <striped_spin_lock_num>:
200003e8:	00000010                                ....

200003ec <irq_handler_chain_slots>:
200003ec:	00000000 	.word	0x00000000
200003f0:	00010000 	.word	0x00010000
	...
200003fc:	00020000 	.word	0x00020000
	...
20000408:	00030000 	.word	0x00030000
	...
20000414:	00ff0000 	.word	0x00ff0000
20000418:	00000000 	.word	0x00000000

2000041c <irq_handler_chain_first_slot>:
2000041c:	b500      	push	{lr}
2000041e:	6848      	ldr	r0, [r1, #4]
20000420:	3101      	adds	r1, #1
20000422:	468e      	mov	lr, r1
20000424:	4700      	bx	r0

20000426 <irq_handler_chain_remove_tail>:
20000426:	4670      	mov	r0, lr
20000428:	3809      	subs	r0, #9
2000042a:	4901      	ldr	r1, [pc, #4]	; (20000430 <irq_handler_chain_remove_tail+0xa>)
2000042c:	4788      	blx	r1
2000042e:	bd00      	pop	{pc}
20000430:	100038cd 	.word	0x100038cd

20000434 <default_alarm_pool>:
20000434:	2000044c 00000000 200004b8 2000129c     L.. ....... ... 
	...

2000044c <default_alarm_pool_heap>:
2000044c:	200012ac 00000000 00000000 00000010     ... ............
2000045c:	00000000                                ....

20000460 <aeabi_bits_funcs>:
20000460:	00003350 	.word	0x00003350
20000464:	0000334c 	.word	0x0000334c
20000468:	00003354 	.word	0x00003354
2000046c:	00003352 	.word	0x00003352

20000470 <aeabi_bits_funcs_end>:
20000470:	0000534d 	.word	0x0000534d
20000474:	0000434d 	.word	0x0000434d
20000478:	00003453 	.word	0x00003453
2000047c:	00003443 	.word	0x00003443

20000480 <stdio_uart>:
20000480:	10006e45 00000000 10006e91 00000000     En.......n......
20000490:	00000100                                ....

20000494 <udp_port>:
20000494:	0000c000                                ....

20000498 <print_mutex>:
	...

200004a0 <__mutex_array_end>:
200004a0:	100069f9 	.word	0x100069f9
200004a4:	100061f1 	.word	0x100061f1
200004a8:	10006899 	.word	0x10006899
200004ac:	1000699d 	.word	0x1000699d

200004b0 <__frame_dummy_init_array_entry>:
200004b0:	100002ed 100004b9                       ........
